---
triple:          'arm64-apple-darwin'
binary-path:     '/Users/yoshitakaoyama/work/private/kanon/target/debug/deps/lib_native.dylib'
relocations:
  - { offset: 0x1E, size: 0x8, addend: 0x0, symName: '__ZN4pyo35impl_10trampoline7newfunc5inner28_$u7b$$u7b$closure$u7d$$u7d$17h4fabd6097c8367b3E', symObjAddr: 0x0, symBinAddr: 0x888, symSize: 0x40 }
  - { offset: 0x1427, size: 0x8, addend: 0x0, symName: '__ZN4pyo35impl_10trampoline7newfunc5inner28_$u7b$$u7b$closure$u7d$$u7d$17h4fabd6097c8367b3E', symObjAddr: 0x0, symBinAddr: 0x888, symSize: 0x40 }
  - { offset: 0x1D26, size: 0x8, addend: 0x0, symName: '__ZN63_$LT$I$u20$as$u20$core..iter..traits..collect..IntoIterator$GT$9into_iter17hf3aaaaf387130415E', symObjAddr: 0x0, symBinAddr: 0x8C8, symSize: 0x18 }
  - { offset: 0x2523, size: 0x8, addend: 0x0, symName: '__ZN63_$LT$I$u20$as$u20$core..iter..traits..collect..IntoIterator$GT$9into_iter17hf3aaaaf387130415E', symObjAddr: 0x0, symBinAddr: 0x8C8, symSize: 0x18 }
  - { offset: 0x34EC, size: 0x8, addend: 0x0, symName: '__ZN128_$LT$pyo3..impl_..pyclass_init..PyNativeTypeInitializer$LT$T$GT$$u20$as$u20$pyo3..impl_..pyclass_init..PyObjectInit$LT$T$GT$$GT$15into_new_object17h52f6f50a44a593a6E', symObjAddr: 0x0, symBinAddr: 0x8E0, symSize: 0x34 }
  - { offset: 0x4902, size: 0x8, addend: 0x0, symName: '__ZN128_$LT$pyo3..impl_..pyclass_init..PyNativeTypeInitializer$LT$T$GT$$u20$as$u20$pyo3..impl_..pyclass_init..PyObjectInit$LT$T$GT$$GT$15into_new_object17h52f6f50a44a593a6E', symObjAddr: 0x0, symBinAddr: 0x8E0, symSize: 0x34 }
  - { offset: 0x51E7, size: 0x8, addend: 0x0, symName: __ZN4pyo37pyclass18create_type_object18create_type_object17h14269b1aa52c3b5aE, symObjAddr: 0x0, symBinAddr: 0x914, symSize: 0xEC }
  - { offset: 0x6D00, size: 0x8, addend: 0x0, symName: __ZN4pyo37pyclass18create_type_object18create_type_object17h14269b1aa52c3b5aE, symObjAddr: 0x0, symBinAddr: 0x914, symSize: 0xEC }
  - { offset: 0x7E8D, size: 0x8, addend: 0x0, symName: __ZN4core5slice20copy_from_slice_impl17hfd7a51b89ca44108E, symObjAddr: 0x0, symBinAddr: 0xA00, symSize: 0xAC }
  - { offset: 0x86CF, size: 0x8, addend: 0x0, symName: __ZN4core5slice20copy_from_slice_impl17hfd7a51b89ca44108E, symObjAddr: 0x0, symBinAddr: 0xA00, symSize: 0xAC }
  - { offset: 0x97AF, size: 0x8, addend: 0x0, symName: __ZN4pyo35impl_16extract_argument16extract_argument17h57f9790eb4a67072E, symObjAddr: 0x0, symBinAddr: 0xAAC, symSize: 0x148 }
  - { offset: 0xBAA8, size: 0x8, addend: 0x0, symName: __ZN4pyo35impl_16extract_argument16extract_argument17h57f9790eb4a67072E, symObjAddr: 0x0, symBinAddr: 0xAAC, symSize: 0x148 }
  - { offset: 0xBB2B, size: 0x8, addend: 0x0, symName: __ZN4pyo35impl_16extract_argument16extract_argument17hbd17fa8d4465e37fE, symObjAddr: 0x148, symBinAddr: 0xBF4, symSize: 0x168 }
  - { offset: 0xBD31, size: 0x8, addend: 0x0, symName: '__ZN4pyo35impl_16extract_argument19FunctionDescription26extract_arguments_fastcall28_$u7b$$u7b$closure$u7d$$u7d$17h48a841a8425f8023E', symObjAddr: 0x16FC, symBinAddr: 0x21A8, symSize: 0x24 }
  - { offset: 0xBD89, size: 0x8, addend: 0x0, symName: '__ZN4pyo35impl_16extract_argument19FunctionDescription28extract_arguments_tuple_dict28_$u7b$$u7b$closure$u7d$$u7d$17h18dd42ad1fc142f2E', symObjAddr: 0x1C00, symBinAddr: 0x26AC, symSize: 0x24 }
  - { offset: 0xBDE1, size: 0x8, addend: 0x0, symName: '__ZN4pyo35impl_16extract_argument19FunctionDescription36find_keyword_parameter_in_positional28_$u7b$$u7b$closure$u7d$$u7d$17h153eec54d50bd8d7E', symObjAddr: 0x1C24, symBinAddr: 0x26D0, symSize: 0x48 }
  - { offset: 0xBE41, size: 0x8, addend: 0x0, symName: '__ZN4pyo35impl_16extract_argument19FunctionDescription38find_keyword_parameter_in_keyword_only28_$u7b$$u7b$closure$u7d$$u7d$17h34f4c5402fb12535E', symObjAddr: 0x1C6C, symBinAddr: 0x2718, symSize: 0x38 }
  - { offset: 0xBE83, size: 0x8, addend: 0x0, symName: __ZN4pyo35impl_16extract_argument19extract_pyclass_ref17h65091fca03de5940E, symObjAddr: 0x1CA4, symBinAddr: 0x2750, symSize: 0xE0 }
  - { offset: 0xBF00, size: 0x8, addend: 0x0, symName: __ZN4pyo35impl_16extract_argument23extract_pyclass_ref_mut17h453636c41c361aaeE, symObjAddr: 0x1D84, symBinAddr: 0x2830, symSize: 0xE0 }
  - { offset: 0xBF82, size: 0x8, addend: 0x0, symName: '__ZN80_$LT$T$u20$as$u20$pyo3..impl_..extract_argument..PyFunctionArgument$LT$_$GT$$GT$7extract17hc103c285f50747d4E', symObjAddr: 0x1E64, symBinAddr: 0x2910, symSize: 0x28 }
  - { offset: 0xCCAF, size: 0x8, addend: 0x0, symName: __ZN4pyo35impl_16extract_argument19FunctionDescription13handle_kwargs17h261b937984a7fba4E, symObjAddr: 0x2B0, symBinAddr: 0xD5C, symSize: 0x708 }
  - { offset: 0xCECA, size: 0x8, addend: 0x0, symName: __ZN4pyo35impl_16extract_argument19FunctionDescription13handle_kwargs17hb7797dc16afca26fE, symObjAddr: 0x9B8, symBinAddr: 0x1464, symSize: 0x70C }
  - { offset: 0xD0E9, size: 0x8, addend: 0x0, symName: __ZN4pyo35impl_16extract_argument19FunctionDescription26extract_arguments_fastcall17hd793ea5d24d7dfefE, symObjAddr: 0x10C4, symBinAddr: 0x1B70, symSize: 0x638 }
  - { offset: 0xD41B, size: 0x8, addend: 0x0, symName: __ZN4pyo35impl_16extract_argument19FunctionDescription28extract_arguments_tuple_dict17hb549b081f686a01bE, symObjAddr: 0x1720, symBinAddr: 0x21CC, symSize: 0x4E0 }
  - { offset: 0xDD61, size: 0x8, addend: 0x0, symName: '__ZN78_$LT$jpnorm_core..l4_extra..emoji..EmojiAction$u20$as$u20$core..fmt..Debug$GT$3fmt17h74367b6c16f2f455E', symObjAddr: 0x0, symBinAddr: 0x2938, symSize: 0xD0 }
  - { offset: 0xDDCB, size: 0x8, addend: 0x0, symName: '__ZN78_$LT$jpnorm_core..l4_extra..emoji..EmojiAction$u20$as$u20$core..fmt..Debug$GT$3fmt17h74367b6c16f2f455E', symObjAddr: 0x0, symBinAddr: 0x2938, symSize: 0xD0 }
  - { offset: 0xDE28, size: 0x8, addend: 0x0, symName: '__ZN80_$LT$jpnorm_core..l4_extra..emoji..EmojiAction$u20$as$u20$core..clone..Clone$GT$5clone17hca67144d4120bd8cE', symObjAddr: 0xD0, symBinAddr: 0x2A08, symSize: 0x28 }
  - { offset: 0xE041, size: 0x8, addend: 0x0, symName: '__ZN104_$LT$core..iter..adapters..copied..Copied$LT$I$GT$$u20$as$u20$core..iter..traits..iterator..Iterator$GT$4next17h2d0f0aa77b20c2a6E', symObjAddr: 0x0, symBinAddr: 0x2A30, symSize: 0x5C }
  - { offset: 0xF2BA, size: 0x8, addend: 0x0, symName: '__ZN104_$LT$core..iter..adapters..copied..Copied$LT$I$GT$$u20$as$u20$core..iter..traits..iterator..Iterator$GT$4next17h2d0f0aa77b20c2a6E', symObjAddr: 0x0, symBinAddr: 0x2A30, symSize: 0x5C }
  - { offset: 0xF35F, size: 0x8, addend: 0x0, symName: '__ZN63_$LT$I$u20$as$u20$core..iter..traits..collect..IntoIterator$GT$9into_iter17h99729bfe0ca949caE', symObjAddr: 0x5C, symBinAddr: 0x2A8C, symSize: 0x1C }
  - { offset: 0xFA03, size: 0x8, addend: 0x0, symName: __ZN4pyo35impl_10trampoline8reprfunc5inner17h4eaa39df6b5e0d73E, symObjAddr: 0x0, symBinAddr: 0x2AA8, symSize: 0x30 }
  - { offset: 0x10E07, size: 0x8, addend: 0x0, symName: __ZN4pyo35impl_10trampoline8reprfunc5inner17h4eaa39df6b5e0d73E, symObjAddr: 0x0, symBinAddr: 0x2AA8, symSize: 0x30 }
  - { offset: 0x116BE, size: 0x8, addend: 0x0, symName: __ZN4pyo35types4none6PyNone3get17hb2caa9bd931af3ceE, symObjAddr: 0x0, symBinAddr: 0x2AD8, symSize: 0x24 }
  - { offset: 0x12DF9, size: 0x8, addend: 0x0, symName: __ZN4pyo35types4none6PyNone3get17hb2caa9bd931af3ceE, symObjAddr: 0x0, symBinAddr: 0x2AD8, symSize: 0x24 }
  - { offset: 0x12E44, size: 0x8, addend: 0x0, symName: '__ZN100_$LT$pyo3..types..tuple..BorrowedTupleIterator$u20$as$u20$core..iter..traits..iterator..Iterator$GT$4next17h7dce462766b18bf7E', symObjAddr: 0x0, symBinAddr: 0x2AFC, symSize: 0x9C }
  - { offset: 0x14040, size: 0x8, addend: 0x0, symName: '__ZN100_$LT$pyo3..types..tuple..BorrowedTupleIterator$u20$as$u20$core..iter..traits..iterator..Iterator$GT$4next17h7dce462766b18bf7E', symObjAddr: 0x0, symBinAddr: 0x2AFC, symSize: 0x9C }
  - { offset: 0x146FE, size: 0x8, addend: 0x0, symName: '__ZN119_$LT$pyo3..instance..Bound$LT$pyo3..types..typeobject..PyType$GT$$u20$as$u20$pyo3..types..typeobject..PyTypeMethods$GT$11as_type_ptr17h807b0014f4bf3d3fE', symObjAddr: 0x0, symBinAddr: 0x2B98, symSize: 0x24 }
  - { offset: 0x15C98, size: 0x8, addend: 0x0, symName: '__ZN119_$LT$pyo3..instance..Bound$LT$pyo3..types..typeobject..PyType$GT$$u20$as$u20$pyo3..types..typeobject..PyTypeMethods$GT$11as_type_ptr17h807b0014f4bf3d3fE', symObjAddr: 0x0, symBinAddr: 0x2B98, symSize: 0x24 }
  - { offset: 0x164EB, size: 0x8, addend: 0x0, symName: '__ZN4pyo38instance36Bound$LT$pyo3..types..any..PyAny$GT$14from_owned_ptr17h8550e75e15e5d4c4E', symObjAddr: 0x24, symBinAddr: 0x2BBC, symSize: 0x48 }
  - { offset: 0x16554, size: 0x8, addend: 0x0, symName: '__ZN4pyo38instance39Borrowed$LT$pyo3..types..any..PyAny$GT$13from_non_null17hc3b95588b2e44522E', symObjAddr: 0x6C, symBinAddr: 0x2C04, symSize: 0x14 }
  - { offset: 0x16798, size: 0x8, addend: 0x0, symName: '__ZN4pyo38instance39Borrowed$LT$pyo3..types..any..PyAny$GT$15from_ptr_or_err17h2cabcd2c3b2c723dE', symObjAddr: 0x80, symBinAddr: 0x2C18, symSize: 0x38 }
  - { offset: 0x167D6, size: 0x8, addend: 0x0, symName: '__ZN4pyo38instance39Borrowed$LT$pyo3..types..any..PyAny$GT$15from_ptr_or_opt17hdf793ec81f19ee7cE', symObjAddr: 0xB8, symBinAddr: 0x2C50, symSize: 0x2C }
  - { offset: 0x16814, size: 0x8, addend: 0x0, symName: '__ZN4pyo38instance39Borrowed$LT$pyo3..types..any..PyAny$GT$18from_ptr_unchecked17h7288698984545f20E', symObjAddr: 0xE4, symBinAddr: 0x2C7C, symSize: 0x30 }
  - { offset: 0x16852, size: 0x8, addend: 0x0, symName: '__ZN4pyo38instance39Borrowed$LT$pyo3..types..any..PyAny$GT$8from_ptr17h9ed1d5114bb63822E', symObjAddr: 0x114, symBinAddr: 0x2CAC, symSize: 0x40 }
  - { offset: 0x168F1, size: 0x8, addend: 0x0, symName: __ZN7_native9normalize9_PYO3_DEF17h2684d5f6d2702c23E, symObjAddr: 0x70, symBinAddr: 0x134368, symSize: 0x0 }
  - { offset: 0x17E4B, size: 0x8, addend: 0x0, symName: __ZN4pyo35types4dict12DictIterImpl14next_unchecked17hafc698f2a52f08baE, symObjAddr: 0x0, symBinAddr: 0x2CEC, symSize: 0x1C4 }
  - { offset: 0x19122, size: 0x8, addend: 0x0, symName: '__ZN95_$LT$pyo3..types..dict..BoundDictIterator$u20$as$u20$core..iter..traits..iterator..Iterator$GT$4next17hfd3aa9dff513521bE', symObjAddr: 0x1C4, symBinAddr: 0x2EB0, symSize: 0x2C }
  - { offset: 0x19784, size: 0x8, addend: 0x0, symName: __ZN4pyo35types4dict12DictIterImpl14next_unchecked17hafc698f2a52f08baE, symObjAddr: 0x0, symBinAddr: 0x2CEC, symSize: 0x1C4 }
  - { offset: 0x1987F, size: 0x8, addend: 0x0, symName: '__ZN111_$LT$pyo3..impl_..pyclass..NoopThreadChecker$u20$as$u20$pyo3..impl_..pyclass..PyClassThreadChecker$LT$T$GT$$GT$3new17h8c635e82316da9a5E', symObjAddr: 0x0, symBinAddr: 0x2EDC, symSize: 0x4 }
  - { offset: 0x1AF0F, size: 0x8, addend: 0x0, symName: '__ZN111_$LT$pyo3..impl_..pyclass..NoopThreadChecker$u20$as$u20$pyo3..impl_..pyclass..PyClassThreadChecker$LT$T$GT$$GT$3new17h8c635e82316da9a5E', symObjAddr: 0x0, symBinAddr: 0x2EDC, symSize: 0x4 }
  - { offset: 0x1AF33, size: 0x8, addend: 0x0, symName: '__ZN111_$LT$pyo3..impl_..pyclass..NoopThreadChecker$u20$as$u20$pyo3..impl_..pyclass..PyClassThreadChecker$LT$T$GT$$GT$6ensure17h64ef6cdc6f1ee159E', symObjAddr: 0x4, symBinAddr: 0x2EE0, symSize: 0x10 }
  - { offset: 0x1AF66, size: 0x8, addend: 0x0, symName: '__ZN111_$LT$pyo3..impl_..pyclass..NoopThreadChecker$u20$as$u20$pyo3..impl_..pyclass..PyClassThreadChecker$LT$T$GT$$GT$8can_drop17hc1184ff2d87f5769E', symObjAddr: 0x14, symBinAddr: 0x2EF0, symSize: 0x18 }
  - { offset: 0x1AFB9, size: 0x8, addend: 0x0, symName: __ZN4pyo35impl_7pyclass10tp_dealloc17ha1097257843df577E, symObjAddr: 0x2C, symBinAddr: 0x2F08, symSize: 0x34 }
  - { offset: 0x1AFF1, size: 0x8, addend: 0x0, symName: __ZN4pyo35impl_7pyclass11PyClassDict10clear_dict17had20c447b9d5f7a9E, symObjAddr: 0x60, symBinAddr: 0x2F3C, symSize: 0x10 }
  - { offset: 0x1B041, size: 0x8, addend: 0x0, symName: __ZN4pyo35impl_7pyclass14PyClassWeakRef14clear_weakrefs17ha2df8bb4afecd5cdE, symObjAddr: 0x70, symBinAddr: 0x2F4C, symSize: 0x14 }
  - { offset: 0x1B09A, size: 0x8, addend: 0x0, symName: __ZN4pyo35impl_7pyclass18tp_dealloc_with_gc17h79fd6933fc0a4e10E, symObjAddr: 0x84, symBinAddr: 0x2F60, symSize: 0x4C }
  - { offset: 0x1BD81, size: 0x8, addend: 0x0, symName: '__ZN4pyo35impl_7pyclass29PyClassImplCollector$LT$T$GT$3new17h22d28653d4698ffbE', symObjAddr: 0xD0, symBinAddr: 0x2FAC, symSize: 0x4 }
  - { offset: 0x1BDF0, size: 0x8, addend: 0x0, symName: __ZN4core3ptr19copy_nonoverlapping18precondition_check17h3488c28a0e7c387aE, symObjAddr: 0x0, symBinAddr: 0x2FB0, symSize: 0x168 }
  - { offset: 0x1BED8, size: 0x8, addend: 0x0, symName: __ZN4core3ptr19copy_nonoverlapping18precondition_check17h3488c28a0e7c387aE, symObjAddr: 0x0, symBinAddr: 0x2FB0, symSize: 0x168 }
  - { offset: 0x1C10A, size: 0x8, addend: 0x0, symName: __ZN4pyo35types4list17BoundListIterator14next_unchecked17h58c63afb8401d682E, symObjAddr: 0x0, symBinAddr: 0x3118, symSize: 0x104 }
  - { offset: 0x1D3F8, size: 0x8, addend: 0x0, symName: '__ZN95_$LT$pyo3..types..list..BoundListIterator$u20$as$u20$core..iter..traits..iterator..Iterator$GT$4next17h042bd064d2fdff4bE', symObjAddr: 0x104, symBinAddr: 0x321C, symSize: 0x24 }
  - { offset: 0x1DA28, size: 0x8, addend: 0x0, symName: __ZN4pyo35types4list17BoundListIterator14next_unchecked17h58c63afb8401d682E, symObjAddr: 0x0, symBinAddr: 0x3118, symSize: 0x104 }
  - { offset: 0x1DAD6, size: 0x8, addend: 0x0, symName: __ZN4pyo35types4list17BoundListIterator21with_critical_section17hdfb4f75e48753c38E, symObjAddr: 0x0, symBinAddr: 0x3240, symSize: 0xB8 }
  - { offset: 0x1ED30, size: 0x8, addend: 0x0, symName: '__ZN63_$LT$I$u20$as$u20$core..iter..traits..collect..IntoIterator$GT$9into_iter17h01b95e625b066f05E', symObjAddr: 0xF8, symBinAddr: 0x3338, symSize: 0x18 }
  - { offset: 0x1EE2C, size: 0x8, addend: 0x0, symName: '__ZN95_$LT$pyo3..types..list..BoundListIterator$u20$as$u20$core..iter..traits..iterator..Iterator$GT$4next28_$u7b$$u7b$closure$u7d$$u7d$17hffb400bcd57970b7E', symObjAddr: 0x110, symBinAddr: 0x3350, symSize: 0x34 }
  - { offset: 0x1EE8F, size: 0x8, addend: 0x0, symName: '__ZN4pyo35types4list17BoundListIterator21with_critical_section28_$u7b$$u7b$closure$u7d$$u7d$17h0a4b175049b0ce8bE', symObjAddr: 0xB8, symBinAddr: 0x32F8, symSize: 0x40 }
  - { offset: 0x1F4ED, size: 0x8, addend: 0x0, symName: __ZN4pyo35types4list17BoundListIterator21with_critical_section17hdfb4f75e48753c38E, symObjAddr: 0x0, symBinAddr: 0x3240, symSize: 0xB8 }
  - { offset: 0x1F5B9, size: 0x8, addend: 0x0, symName: '__ZN4pyo35impl_4wrap30IntoPyObjectConverter$LT$T$GT$4wrap17hc065925e0b28b328E', symObjAddr: 0x0, symBinAddr: 0x3384, symSize: 0x24 }
  - { offset: 0x2135D, size: 0x8, addend: 0x0, symName: '__ZN4pyo35impl_4wrap62IntoPyObjectConverter$LT$core..result..Result$LT$T$C$E$GT$$GT$12map_into_ptr28_$u7b$$u7b$closure$u7d$$u7d$17h9fa551976e8b99b7E', symObjAddr: 0xD4, symBinAddr: 0x3458, symSize: 0x48 }
  - { offset: 0x213B5, size: 0x8, addend: 0x0, symName: '__ZN4pyo35impl_4wrap62IntoPyObjectConverter$LT$core..result..Result$LT$T$C$E$GT$$GT$12map_into_ptr28_$u7b$$u7b$closure$u7d$$u7d$17hb911368b8696f570E', symObjAddr: 0x11C, symBinAddr: 0x34A0, symSize: 0x34 }
  - { offset: 0x214C5, size: 0x8, addend: 0x0, symName: '__ZN4pyo35impl_4wrap82EmptyTupleConverter$LT$core..result..Result$LT$$LP$$RP$$C$pyo3..err..PyErr$GT$$GT$12map_into_ptr28_$u7b$$u7b$closure$u7d$$u7d$17hb66562dc8b36302bE', symObjAddr: 0x1B8, symBinAddr: 0x353C, symSize: 0x28 }
  - { offset: 0x2151B, size: 0x8, addend: 0x0, symName: __ZN4pyo35impl_4wrap9converter17h4be9c0365c895fa4E, symObjAddr: 0x1E0, symBinAddr: 0x3564, symSize: 0x10 }
  - { offset: 0x21548, size: 0x8, addend: 0x0, symName: __ZN4pyo35impl_4wrap9converter17h844f916bfff89c5cE, symObjAddr: 0x1F0, symBinAddr: 0x3574, symSize: 0x10 }
  - { offset: 0x21575, size: 0x8, addend: 0x0, symName: __ZN4pyo35impl_4wrap9converter17ha165e39d56c89de9E, symObjAddr: 0x200, symBinAddr: 0x3584, symSize: 0x10 }
  - { offset: 0x215A2, size: 0x8, addend: 0x0, symName: __ZN4pyo35impl_4wrap9converter17haed04b61847fba78E, symObjAddr: 0x210, symBinAddr: 0x3594, symSize: 0x10 }
  - { offset: 0x215D4, size: 0x8, addend: 0x0, symName: '__ZN81_$LT$pyo3..impl_..wrap..Converter$LT$T$GT$$u20$as$u20$core..ops..deref..Deref$GT$5deref17h049bdd47ba5b722eE', symObjAddr: 0x220, symBinAddr: 0x35A4, symSize: 0x14 }
  - { offset: 0x21609, size: 0x8, addend: 0x0, symName: '__ZN81_$LT$pyo3..impl_..wrap..Converter$LT$T$GT$$u20$as$u20$core..ops..deref..Deref$GT$5deref17h200f4b43854db896E', symObjAddr: 0x234, symBinAddr: 0x35B8, symSize: 0x14 }
  - { offset: 0x2163E, size: 0x8, addend: 0x0, symName: '__ZN81_$LT$pyo3..impl_..wrap..Converter$LT$T$GT$$u20$as$u20$core..ops..deref..Deref$GT$5deref17h4e77a67e59526b94E', symObjAddr: 0x248, symBinAddr: 0x35CC, symSize: 0x14 }
  - { offset: 0x21673, size: 0x8, addend: 0x0, symName: '__ZN81_$LT$pyo3..impl_..wrap..Converter$LT$T$GT$$u20$as$u20$core..ops..deref..Deref$GT$5deref17he60682e6c9ba42fbE', symObjAddr: 0x25C, symBinAddr: 0x35E0, symSize: 0x14 }
  - { offset: 0x216AE, size: 0x8, addend: 0x0, symName: '__ZN91_$LT$pyo3..impl_..wrap..EmptyTupleConverter$LT$T$GT$$u20$as$u20$core..ops..deref..Deref$GT$5deref17h09d5a74bdd1d5fe0E', symObjAddr: 0x270, symBinAddr: 0x35F4, symSize: 0x14 }
  - { offset: 0x216E3, size: 0x8, addend: 0x0, symName: '__ZN91_$LT$pyo3..impl_..wrap..EmptyTupleConverter$LT$T$GT$$u20$as$u20$core..ops..deref..Deref$GT$5deref17h8c5d1dbf2722fbc8E', symObjAddr: 0x284, symBinAddr: 0x3608, symSize: 0x14 }
  - { offset: 0x21718, size: 0x8, addend: 0x0, symName: '__ZN91_$LT$pyo3..impl_..wrap..EmptyTupleConverter$LT$T$GT$$u20$as$u20$core..ops..deref..Deref$GT$5deref17hb4013ed01585066dE', symObjAddr: 0x298, symBinAddr: 0x361C, symSize: 0x14 }
  - { offset: 0x2174D, size: 0x8, addend: 0x0, symName: '__ZN91_$LT$pyo3..impl_..wrap..EmptyTupleConverter$LT$T$GT$$u20$as$u20$core..ops..deref..Deref$GT$5deref17hf44a90c2ed5847bfE', symObjAddr: 0x2AC, symBinAddr: 0x3630, symSize: 0x14 }
  - { offset: 0x21D1A, size: 0x8, addend: 0x0, symName: '__ZN4pyo35impl_4wrap30IntoPyObjectConverter$LT$T$GT$4wrap17hc065925e0b28b328E', symObjAddr: 0x0, symBinAddr: 0x3384, symSize: 0x24 }
  - { offset: 0x2285C, size: 0x8, addend: 0x0, symName: '__ZN4pyo35impl_4wrap62IntoPyObjectConverter$LT$core..result..Result$LT$T$C$E$GT$$GT$12map_into_ptr17hae7f9caa855b943bE', symObjAddr: 0x24, symBinAddr: 0x33A8, symSize: 0x5C }
  - { offset: 0x228C7, size: 0x8, addend: 0x0, symName: '__ZN4pyo35impl_4wrap62IntoPyObjectConverter$LT$core..result..Result$LT$T$C$E$GT$$GT$12map_into_ptr17hc98eb56de59bbdddE', symObjAddr: 0x80, symBinAddr: 0x3404, symSize: 0x54 }
  - { offset: 0x22932, size: 0x8, addend: 0x0, symName: '__ZN4pyo35impl_4wrap62IntoPyObjectConverter$LT$core..result..Result$LT$T$C$E$GT$$GT$4wrap17h3dd8deb0adc671eaE', symObjAddr: 0x150, symBinAddr: 0x34D4, symSize: 0x34 }
  - { offset: 0x22975, size: 0x8, addend: 0x0, symName: '__ZN4pyo35impl_4wrap62IntoPyObjectConverter$LT$core..result..Result$LT$T$C$E$GT$$GT$4wrap17he2e9543501dec881E', symObjAddr: 0x184, symBinAddr: 0x3508, symSize: 0x34 }
  - { offset: 0x22A7F, size: 0x8, addend: 0x0, symName: __ZN4pyo33err5PyErr16write_unraisable17h059fa24f811736f5E, symObjAddr: 0x0, symBinAddr: 0x3644, symSize: 0x58 }
  - { offset: 0x24782, size: 0x8, addend: 0x0, symName: __ZN4pyo33err5PyErr16write_unraisable17h059fa24f811736f5E, symObjAddr: 0x0, symBinAddr: 0x3644, symSize: 0x58 }
  - { offset: 0x247D0, size: 0x8, addend: 0x0, symName: __ZN4pyo33err5PyErr7restore17hdc8dd7ab0f79ff0aE, symObjAddr: 0x58, symBinAddr: 0x369C, symSize: 0x38 }
  - { offset: 0x2482D, size: 0x8, addend: 0x0, symName: '__ZN71_$LT$_native..PyNormalizer$u20$as$u20$pyo3..type_object..PyTypeInfo$GT$15type_object_raw17h2c22c3eaa986e013E', symObjAddr: 0x0, symBinAddr: 0x36D4, symSize: 0x40 }
  - { offset: 0x24856, size: 0x8, addend: 0x0, symName: '__ZN75_$LT$_native..PyNormalizer$u20$as$u20$pyo3..impl_..pyclass..PyClassImpl$GT$10items_iter15INTRINSIC_ITEMS17h569c179c4ada1dc9E', symObjAddr: 0x2FB8, symBinAddr: 0xC6800, symSize: 0x0 }
  - { offset: 0x24876, size: 0x8, addend: 0x0, symName: '__ZN75_$LT$_native..PyNormalizer$u20$as$u20$pyo3..impl_..pyclass..PyClassImpl$GT$16lazy_type_object11TYPE_OBJECT17hefba895089a75477E', symObjAddr: 0x3058, symBinAddr: 0x134388, symSize: 0x0 }
  - { offset: 0x24884, size: 0x8, addend: 0x0, symName: '__ZN75_$LT$_native..PyNormalizer$u20$as$u20$pyo3..impl_..pyclass..PyClassImpl$GT$10items_iter17h99a0b8fb3fb3405bE', symObjAddr: 0x88, symBinAddr: 0x375C, symSize: 0x38 }
  - { offset: 0x248BF, size: 0x8, addend: 0x0, symName: '__ZN75_$LT$_native..PyNormalizer$u20$as$u20$pyo3..impl_..pyclass..PyClassImpl$GT$16lazy_type_object17h5fc8a03ae96e3774E', symObjAddr: 0xC0, symBinAddr: 0x3794, symSize: 0xC }
  - { offset: 0x24A73, size: 0x8, addend: 0x0, symName: '__ZN7_native162_$LT$impl$u20$pyo3..impl_..pyclass..PyMethods$LT$_native..PyNormalizer$GT$$u20$for$u20$pyo3..impl_..pyclass..PyClassImplCollector$LT$_native..PyNormalizer$GT$$GT$10py_methods5ITEMS17h48e25c319c5e0d95E', symObjAddr: 0x2EB8, symBinAddr: 0x12C8C0, symSize: 0x0 }
  - { offset: 0x24A87, size: 0x8, addend: 0x0, symName: '__ZN71_$LT$_native..PyNormalizer$u20$as$u20$pyo3..type_object..PyTypeInfo$GT$15type_object_raw17h2c22c3eaa986e013E', symObjAddr: 0x0, symBinAddr: 0x36D4, symSize: 0x40 }
  - { offset: 0x24AC4, size: 0x8, addend: 0x0, symName: '__ZN72_$LT$_native..PyNormalizer$u20$as$u20$pyo3..conversion..IntoPyObject$GT$13into_pyobject17h58f5c728086df51eE', symObjAddr: 0x40, symBinAddr: 0x3714, symSize: 0x48 }
  - { offset: 0x24B0B, size: 0x8, addend: 0x0, symName: __ZN7_native22__pyfunction_normalize17h272528fc7f06f8b7E, symObjAddr: 0x1E54, symBinAddr: 0x5528, symSize: 0x308 }
  - { offset: 0x24C84, size: 0x8, addend: 0x0, symName: __ZN7_native7_native17h561bbbf20858c3ebE, symObjAddr: 0x215C, symBinAddr: 0x5830, symSize: 0x23C }
  - { offset: 0x24D29, size: 0x8, addend: 0x0, symName: __ZN7_native9normalize17ha9d1e1d7b8dd762bE, symObjAddr: 0x2398, symBinAddr: 0x5A6C, symSize: 0x88 }
  - { offset: 0x28B0C, size: 0x8, addend: 0x0, symName: __ZN7_native12PyNormalizer16with_custom_dict17h1c57f0efa9e412c7E, symObjAddr: 0xCC, symBinAddr: 0x37A0, symSize: 0x770 }
  - { offset: 0x28CA2, size: 0x8, addend: 0x0, symName: __ZN7_native12PyNormalizer19__pymethod_preset__17hbe4b7d9ab4084aaaE, symObjAddr: 0x83C, symBinAddr: 0x3F10, symSize: 0x310 }
  - { offset: 0x28E11, size: 0x8, addend: 0x0, symName: __ZN7_native12PyNormalizer20__pymethod___new____17h564371b06b77a4d6E, symObjAddr: 0xB4C, symBinAddr: 0x4220, symSize: 0xF4 }
  - { offset: 0x28F13, size: 0x8, addend: 0x0, symName: __ZN7_native12PyNormalizer21__pymethod___repr____17hfafc33f2248f7974E, symObjAddr: 0xC40, symBinAddr: 0x4314, symSize: 0x16C }
  - { offset: 0x28FB7, size: 0x8, addend: 0x0, symName: __ZN7_native12PyNormalizer21load_custom_dict_json17h80aa852163f2905dE, symObjAddr: 0xDAC, symBinAddr: 0x4480, symSize: 0x1DC }
  - { offset: 0x2903B, size: 0x8, addend: 0x0, symName: __ZN7_native12PyNormalizer22__pymethod_normalize__17h4a146663a152dbfaE, symObjAddr: 0xF88, symBinAddr: 0x465C, symSize: 0x404 }
  - { offset: 0x291CE, size: 0x8, addend: 0x0, symName: __ZN7_native12PyNormalizer29__pymethod_with_custom_dict__17h56025b10864b8c61E, symObjAddr: 0x138C, symBinAddr: 0x4A60, symSize: 0x3EC }
  - { offset: 0x29361, size: 0x8, addend: 0x0, symName: __ZN7_native12PyNormalizer34__pymethod_load_custom_dict_json__17h2a994cecc331b677E, symObjAddr: 0x1778, symBinAddr: 0x4E4C, symSize: 0x3F0 }
  - { offset: 0x294F4, size: 0x8, addend: 0x0, symName: __ZN7_native12PyNormalizer3new17hba3b61c957f471fcE, symObjAddr: 0x1B68, symBinAddr: 0x523C, symSize: 0x44 }
  - { offset: 0x29507, size: 0x8, addend: 0x0, symName: __ZN7_native12PyNormalizer6preset17h353690a317ce26eeE, symObjAddr: 0x1BAC, symBinAddr: 0x5280, symSize: 0x200 }
  - { offset: 0x295CB, size: 0x8, addend: 0x0, symName: __ZN7_native12PyNormalizer8__repr__17h09590c0f1eb328fdE, symObjAddr: 0x1DAC, symBinAddr: 0x5480, symSize: 0x78 }
  - { offset: 0x29644, size: 0x8, addend: 0x0, symName: __ZN7_native12PyNormalizer9normalize17h896d9d9e2d0b114fE, symObjAddr: 0x1E24, symBinAddr: 0x54F8, symSize: 0x30 }
  - { offset: 0x29898, size: 0x8, addend: 0x0, symName: __ZN4pyo35impl_5panic9PanicTrap3new17h3eacb15dba8b35f4E, symObjAddr: 0x0, symBinAddr: 0x5AF4, symSize: 0x18 }
  - { offset: 0x29927, size: 0x8, addend: 0x0, symName: __ZN4pyo35impl_5panic9PanicTrap3new17h3eacb15dba8b35f4E, symObjAddr: 0x0, symBinAddr: 0x5AF4, symSize: 0x18 }
  - { offset: 0x29949, size: 0x8, addend: 0x0, symName: __ZN4pyo35impl_5panic9PanicTrap6disarm17h61186e78a9eaf6faE, symObjAddr: 0x18, symBinAddr: 0x5B0C, symSize: 0x28 }
  - { offset: 0x29989, size: 0x8, addend: 0x0, symName: '__ZN5alloc7raw_vec19RawVec$LT$T$C$A$GT$8grow_one17h106de4d8f7ed725eE', symObjAddr: 0x0, symBinAddr: 0x5B34, symSize: 0x88 }
  - { offset: 0x29EF7, size: 0x8, addend: 0x0, symName: '__ZN5alloc7raw_vec19RawVec$LT$T$C$A$GT$8grow_one17h106de4d8f7ed725eE', symObjAddr: 0x0, symBinAddr: 0x5B34, symSize: 0x88 }
  - { offset: 0x29F80, size: 0x8, addend: 0x0, symName: '__ZN72_$LT$jpnorm_core..pipeline..Normalizer$u20$as$u20$core..clone..Clone$GT$5clone17h92b69bba6c6b50eaE', symObjAddr: 0x0, symBinAddr: 0x5BBC, symSize: 0x78 }
  - { offset: 0x2A0B1, size: 0x8, addend: 0x0, symName: '__ZN72_$LT$jpnorm_core..pipeline..Normalizer$u20$as$u20$core..clone..Clone$GT$5clone17h92b69bba6c6b50eaE', symObjAddr: 0x0, symBinAddr: 0x5BBC, symSize: 0x78 }
  - { offset: 0x2ACA4, size: 0x8, addend: 0x0, symName: __ZN4pyo34sync16critical_section21with_critical_section17hd09ee032678aa23dE, symObjAddr: 0x0, symBinAddr: 0x5C34, symSize: 0x34 }
  - { offset: 0x2BF01, size: 0x8, addend: 0x0, symName: __ZN4pyo34sync16critical_section21with_critical_section17hd09ee032678aa23dE, symObjAddr: 0x0, symBinAddr: 0x5C34, symSize: 0x34 }
  - { offset: 0x2C618, size: 0x8, addend: 0x0, symName: __ZN4core9ub_checks23maybe_is_nonoverlapping7runtime17ha2abcd8b091e6f53E, symObjAddr: 0x0, symBinAddr: 0x5C68, symSize: 0xD8 }
  - { offset: 0x2C79D, size: 0x8, addend: 0x0, symName: __ZN4core9ub_checks23maybe_is_nonoverlapping7runtime17ha2abcd8b091e6f53E, symObjAddr: 0x0, symBinAddr: 0x5C68, symSize: 0xD8 }
  - { offset: 0x2C9B0, size: 0x8, addend: 0x0, symName: __ZN4pyo35impl_8callback7convert17h9953e711e39628e4E, symObjAddr: 0x0, symBinAddr: 0x5D40, symSize: 0x34 }
  - { offset: 0x2DE24, size: 0x8, addend: 0x0, symName: __ZN4pyo35impl_8callback7convert17h9953e711e39628e4E, symObjAddr: 0x0, symBinAddr: 0x5D40, symSize: 0x34 }
  - { offset: 0x2E7BF, size: 0x8, addend: 0x0, symName: '__ZN63_$LT$I$u20$as$u20$core..iter..traits..collect..IntoIterator$GT$9into_iter17h050211d06deaaef6E', symObjAddr: 0x0, symBinAddr: 0x5D74, symSize: 0x14 }
  - { offset: 0x2EFC3, size: 0x8, addend: 0x0, symName: '__ZN63_$LT$I$u20$as$u20$core..iter..traits..collect..IntoIterator$GT$9into_iter17h050211d06deaaef6E', symObjAddr: 0x0, symBinAddr: 0x5D74, symSize: 0x14 }
  - { offset: 0x2FFDB, size: 0x8, addend: 0x0, symName: __ZN4pyo36marker6Python15assume_attached17h8273a5f7c4dd3d47E, symObjAddr: 0x0, symBinAddr: 0x5D88, symSize: 0x4 }
  - { offset: 0x30117, size: 0x8, addend: 0x0, symName: __ZN4pyo36marker6Python15assume_attached17h8273a5f7c4dd3d47E, symObjAddr: 0x0, symBinAddr: 0x5D88, symSize: 0x4 }
  - { offset: 0x30148, size: 0x8, addend: 0x0, symName: __ZN3std9panicking12catch_unwind7do_call17h0c1c14dc8af086e6E, symObjAddr: 0x0, symBinAddr: 0x5D8C, symSize: 0x94 }
  - { offset: 0x32436, size: 0x8, addend: 0x0, symName: __ZN3std9panicking12catch_unwind7do_call17h0c1c14dc8af086e6E, symObjAddr: 0x0, symBinAddr: 0x5D8C, symSize: 0x94 }
  - { offset: 0x32531, size: 0x8, addend: 0x0, symName: __ZN3std9panicking12catch_unwind7do_call17h169fa657eda8db08E, symObjAddr: 0x94, symBinAddr: 0x5E20, symSize: 0x94 }
  - { offset: 0x3262C, size: 0x8, addend: 0x0, symName: __ZN3std9panicking12catch_unwind7do_call17h217d6edc9dd82858E, symObjAddr: 0x128, symBinAddr: 0x5EB4, symSize: 0x94 }
  - { offset: 0x32727, size: 0x8, addend: 0x0, symName: __ZN3std9panicking12catch_unwind7do_call17h602e3d972574ab26E, symObjAddr: 0x1BC, symBinAddr: 0x5F48, symSize: 0x94 }
  - { offset: 0x32822, size: 0x8, addend: 0x0, symName: __ZN3std9panicking12catch_unwind7do_call17hb3f4f97c50626042E, symObjAddr: 0x250, symBinAddr: 0x5FDC, symSize: 0x98 }
  - { offset: 0x3291D, size: 0x8, addend: 0x0, symName: __ZN3std9panicking12catch_unwind8do_catch17h25ab0e1e3f2eadd3E, symObjAddr: 0x2E8, symBinAddr: 0x6074, symSize: 0x70 }
  - { offset: 0x329B2, size: 0x8, addend: 0x0, symName: __ZN3std9panicking12catch_unwind8do_catch17h5eee0a036d0e8e3fE, symObjAddr: 0x358, symBinAddr: 0x60E4, symSize: 0x70 }
  - { offset: 0x32A47, size: 0x8, addend: 0x0, symName: __ZN3std9panicking12catch_unwind8do_catch17h7996979551c0172eE, symObjAddr: 0x3C8, symBinAddr: 0x6154, symSize: 0x70 }
  - { offset: 0x32ADC, size: 0x8, addend: 0x0, symName: __ZN3std9panicking12catch_unwind8do_catch17h932810b5ce48ea81E, symObjAddr: 0x438, symBinAddr: 0x61C4, symSize: 0x70 }
  - { offset: 0x32B71, size: 0x8, addend: 0x0, symName: __ZN3std9panicking12catch_unwind8do_catch17hd361f5a0a4f4d092E, symObjAddr: 0x4A8, symBinAddr: 0x6234, symSize: 0x70 }
  - { offset: 0x33142, size: 0x8, addend: 0x0, symName: '__ZN7_native162_$LT$impl$u20$pyo3..impl_..pyclass..PyMethods$LT$_native..PyNormalizer$GT$$u20$for$u20$pyo3..impl_..pyclass..PyClassImplCollector$LT$_native..PyNormalizer$GT$$GT$10py_methods17hfab8a810c8ca9f8bE', symObjAddr: 0x0, symBinAddr: 0x62A4, symSize: 0x14 }
  - { offset: 0x34B6F, size: 0x8, addend: 0x0, symName: '__ZN7_native162_$LT$impl$u20$pyo3..impl_..pyclass..PyMethods$LT$_native..PyNormalizer$GT$$u20$for$u20$pyo3..impl_..pyclass..PyClassImplCollector$LT$_native..PyNormalizer$GT$$GT$10py_methods17hfab8a810c8ca9f8bE', symObjAddr: 0x0, symBinAddr: 0x62A4, symSize: 0x14 }
  - { offset: 0x35EC4, size: 0x8, addend: 0x0, symName: '__ZN109_$LT$pyo3..types..dict..borrowed_iter..BorrowedDictIter$u20$as$u20$core..iter..traits..iterator..Iterator$GT$4next17he024316e1f1b33a4E', symObjAddr: 0x0, symBinAddr: 0x62B8, symSize: 0xD4 }
  - { offset: 0x370C5, size: 0x8, addend: 0x0, symName: '__ZN109_$LT$pyo3..types..dict..borrowed_iter..BorrowedDictIter$u20$as$u20$core..iter..traits..iterator..Iterator$GT$4next17he024316e1f1b33a4E', symObjAddr: 0x0, symBinAddr: 0x62B8, symSize: 0xD4 }
  - { offset: 0x377CE, size: 0x8, addend: 0x0, symName: __ZN4core3ops8function6FnOnce9call_once17h0fed50bf31cf4b4eE, symObjAddr: 0x0, symBinAddr: 0x638C, symSize: 0x48 }
  - { offset: 0x37FC6, size: 0x8, addend: 0x0, symName: __ZN4core3ops8function6FnOnce9call_once17h0fed50bf31cf4b4eE, symObjAddr: 0x0, symBinAddr: 0x638C, symSize: 0x48 }
  - { offset: 0x3800A, size: 0x8, addend: 0x0, symName: __ZN4core3ops8function6FnOnce9call_once17h432dc1dedf46290fE, symObjAddr: 0x48, symBinAddr: 0x63D4, symSize: 0x24 }
  - { offset: 0x3804E, size: 0x8, addend: 0x0, symName: __ZN4core3ops8function6FnOnce9call_once17h59687a94e519bc52E, symObjAddr: 0x6C, symBinAddr: 0x63F8, symSize: 0x24 }
  - { offset: 0x38092, size: 0x8, addend: 0x0, symName: __ZN4core3ops8function6FnOnce9call_once17he5510c2fba9bac96E, symObjAddr: 0xB4, symBinAddr: 0x641C, symSize: 0x24 }
  - { offset: 0x380DE, size: 0x8, addend: 0x0, symName: '__ZN4core3ptr112drop_in_place$LT$core..option..Option$LT$pyo3..pyclass..guard..PyClassGuard$LT$_native..PyNormalizer$GT$$GT$$GT$17h4c271756a3f46164E', symObjAddr: 0x1EC, symBinAddr: 0x6440, symSize: 0x44 }
  - { offset: 0x3810D, size: 0x8, addend: 0x0, symName: '__ZN4core3ptr115drop_in_place$LT$core..option..Option$LT$pyo3..pyclass..guard..PyClassGuardMut$LT$_native..PyNormalizer$GT$$GT$$GT$17h439afda093760ef9E', symObjAddr: 0x230, symBinAddr: 0x6484, symSize: 0x44 }
  - { offset: 0x3813C, size: 0x8, addend: 0x0, symName: '__ZN4core3ptr42drop_in_place$LT$_native..PyNormalizer$GT$17h751090ca7fba84c6E', symObjAddr: 0x2BC, symBinAddr: 0x64C8, symSize: 0x24 }
  - { offset: 0x3816B, size: 0x8, addend: 0x0, symName: '__ZN4core3ptr57drop_in_place$LT$pyo3..err..cast_error..CastIntoError$GT$17h9897aabff85398d7E', symObjAddr: 0x304, symBinAddr: 0x64EC, symSize: 0x60 }
  - { offset: 0x3819A, size: 0x8, addend: 0x0, symName: '__ZN4core3ptr57drop_in_place$LT$pyo3..types..dict..BoundDictIterator$GT$17h3173297d0ad35e93E', symObjAddr: 0x364, symBinAddr: 0x654C, symSize: 0x24 }
  - { offset: 0x381C9, size: 0x8, addend: 0x0, symName: '__ZN4core3ptr57drop_in_place$LT$pyo3..types..list..BoundListIterator$GT$17h5084a97ad53f4911E', symObjAddr: 0x388, symBinAddr: 0x6570, symSize: 0x24 }
  - { offset: 0x381F8, size: 0x8, addend: 0x0, symName: '__ZN4core3ptr71drop_in_place$LT$jpnorm_core..l3_lexical..synonym..SynonymDictError$GT$17h8590750b207317caE', symObjAddr: 0x408, symBinAddr: 0x6594, symSize: 0x40 }
  - { offset: 0x38227, size: 0x8, addend: 0x0, symName: '__ZN4core3ptr72drop_in_place$LT$core..cell..UnsafeCell$LT$_native..PyNormalizer$GT$$GT$17h230e8367c213bdd1E', symObjAddr: 0x448, symBinAddr: 0x65D4, symSize: 0x24 }
  - { offset: 0x38256, size: 0x8, addend: 0x0, symName: '__ZN4core3ptr84drop_in_place$LT$pyo3..pyclass..guard..PyClassGuard$LT$_native..PyNormalizer$GT$$GT$17he91df1cfc14005bcE', symObjAddr: 0x520, symBinAddr: 0x65F8, symSize: 0x24 }
  - { offset: 0x38285, size: 0x8, addend: 0x0, symName: '__ZN4core3ptr87drop_in_place$LT$pyo3..pyclass..guard..PyClassGuardMut$LT$_native..PyNormalizer$GT$$GT$17h8483627fc9cee2faE', symObjAddr: 0x544, symBinAddr: 0x661C, symSize: 0x24 }
  - { offset: 0x382B4, size: 0x8, addend: 0x0, symName: '__ZN4core3ptr88drop_in_place$LT$pyo3..pyclass_init..PyClassInitializer$LT$_native..PyNormalizer$GT$$GT$17h16ed91d6ddb71bc8E', symObjAddr: 0x568, symBinAddr: 0x6640, symSize: 0x24 }
  - { offset: 0x382E3, size: 0x8, addend: 0x0, symName: '__ZN4core3ptr89drop_in_place$LT$core..result..Result$LT$_native..PyNormalizer$C$pyo3..err..PyErr$GT$$GT$17hc27bcff3a33e12f9E', symObjAddr: 0x58C, symBinAddr: 0x6664, symSize: 0x58 }
  - { offset: 0x38312, size: 0x8, addend: 0x0, symName: '__ZN4core3ptr89drop_in_place$LT$core..result..Result$LT$alloc..string..String$C$pyo3..err..PyErr$GT$$GT$17hf4d2610d5a06a504E', symObjAddr: 0x5E4, symBinAddr: 0x66BC, symSize: 0x50 }
  - { offset: 0x38419, size: 0x8, addend: 0x0, symName: __ZN4core5clone5Clone5clone17h16ddad7bf75ac9daE, symObjAddr: 0x658, symBinAddr: 0x670C, symSize: 0x38 }
  - { offset: 0x39F50, size: 0x8, addend: 0x0, symName: '__ZN85_$LT$pyo3..pyclass..guard..PyClassGuard$LT$T$GT$$u20$as$u20$core..ops..drop..Drop$GT$4drop17h57b1cd5db8a68a16E', symObjAddr: 0x76C, symBinAddr: 0x6744, symSize: 0x2C }
  - { offset: 0x39F89, size: 0x8, addend: 0x0, symName: '__ZN88_$LT$pyo3..pyclass..guard..PyClassGuardMut$LT$T$GT$$u20$as$u20$core..ops..drop..Drop$GT$4drop17h3545f63988ddb880E', symObjAddr: 0x798, symBinAddr: 0x6770, symSize: 0x2C }
  - { offset: 0x3B048, size: 0x8, addend: 0x0, symName: __ZN4core4sync6atomic11AtomicUsize3new17h14942699f2adc68dE, symObjAddr: 0x0, symBinAddr: 0x679C, symSize: 0x18 }
  - { offset: 0x3B0BD, size: 0x8, addend: 0x0, symName: __ZN4core4sync6atomic11AtomicUsize3new17h14942699f2adc68dE, symObjAddr: 0x0, symBinAddr: 0x679C, symSize: 0x18 }
  - { offset: 0x3B0FE, size: 0x8, addend: 0x0, symName: _PyInit__native, symObjAddr: 0x0, symBinAddr: 0x67B4, symSize: 0x34 }
  - { offset: 0x3B122, size: 0x8, addend: 0x0, symName: __ZN7_native7_native9_PYO3_DEF17h138966817259eebeE, symObjAddr: 0x108, symBinAddr: 0x1343F0, symSize: 0x0 }
  - { offset: 0x3B141, size: 0x8, addend: 0x0, symName: __ZN7_native7_native9_PYO3_DEF5SLOTS17h6e12bb77f4e7ddcdE, symObjAddr: 0x188, symBinAddr: 0x134470, symSize: 0x0 }
  - { offset: 0x3B14E, size: 0x8, addend: 0x0, symName: __ZN7_native7_native9_PYO3_DEF18__pyo3_module_exec17hbb4ff661f6130be3E, symObjAddr: 0x6C, symBinAddr: 0x6820, symSize: 0x3C }
  - { offset: 0x3B17B, size: 0x8, addend: 0x0, symName: _PyInit__native, symObjAddr: 0x0, symBinAddr: 0x67B4, symSize: 0x34 }
  - { offset: 0x3D57F, size: 0x8, addend: 0x0, symName: '__ZN7_native46_$LT$impl$u20$_native.._native..ModuleExec$GT$18__pyo3_module_exec17he78601b2d31d0b0aE', symObjAddr: 0x34, symBinAddr: 0x67E8, symSize: 0x38 }
  - { offset: 0x3D5BF, size: 0x8, addend: 0x0, symName: __ZN4pyo35impl_10trampoline7newfunc5inner17hc32bf86afa30c82eE, symObjAddr: 0x0, symBinAddr: 0x685C, symSize: 0x50 }
  - { offset: 0x3E9C3, size: 0x8, addend: 0x0, symName: __ZN4pyo35impl_10trampoline7newfunc5inner17hc32bf86afa30c82eE, symObjAddr: 0x0, symBinAddr: 0x685C, symSize: 0x50 }
  - { offset: 0x3F2A0, size: 0x8, addend: 0x0, symName: __ZN3std5panic12catch_unwind17h397d9699bc21a0b4E, symObjAddr: 0x0, symBinAddr: 0x68AC, symSize: 0xE4 }
  - { offset: 0x4129C, size: 0x8, addend: 0x0, symName: __ZN3std5panic12catch_unwind17h397d9699bc21a0b4E, symObjAddr: 0x0, symBinAddr: 0x68AC, symSize: 0xE4 }
  - { offset: 0x413C1, size: 0x8, addend: 0x0, symName: __ZN3std5panic12catch_unwind17h4bcead8a154b516fE, symObjAddr: 0xE4, symBinAddr: 0x6990, symSize: 0xE4 }
  - { offset: 0x414E6, size: 0x8, addend: 0x0, symName: __ZN3std5panic12catch_unwind17h93019f24fdd4f73eE, symObjAddr: 0x1C8, symBinAddr: 0x6A74, symSize: 0xF8 }
  - { offset: 0x41640, size: 0x8, addend: 0x0, symName: __ZN3std5panic12catch_unwind17hd949ab0e59e4ca57E, symObjAddr: 0x2C0, symBinAddr: 0x6B6C, symSize: 0x10C }
  - { offset: 0x4179C, size: 0x8, addend: 0x0, symName: __ZN3std5panic12catch_unwind17he3c72143587cebcbE, symObjAddr: 0x3CC, symBinAddr: 0x6C78, symSize: 0xE4 }
  - { offset: 0x424C3, size: 0x8, addend: 0x0, symName: __ZN4pyo35impl_10trampoline11module_exec17h428a5fed0c5d1a1aE, symObjAddr: 0x0, symBinAddr: 0x6DB0, symSize: 0x34 }
  - { offset: 0x43922, size: 0x8, addend: 0x0, symName: __ZN4pyo35impl_10trampoline11module_exec17h428a5fed0c5d1a1aE, symObjAddr: 0x0, symBinAddr: 0x6DB0, symSize: 0x34 }
  - { offset: 0x4395C, size: 0x8, addend: 0x0, symName: __ZN4pyo35impl_10trampoline7dealloc17h12af78873736bdbaE, symObjAddr: 0x34, symBinAddr: 0x6DE4, symSize: 0x34 }
  - { offset: 0x4429E, size: 0x8, addend: 0x0, symName: '__ZN4core3ptr8non_null16NonNull$LT$T$GT$4cast17h770f225b07a4031dE', symObjAddr: 0x0, symBinAddr: 0x6E18, symSize: 0x14 }
  - { offset: 0x44BA4, size: 0x8, addend: 0x0, symName: '__ZN90_$LT$core..ptr..non_null..NonNull$LT$T$GT$$u20$as$u20$core..convert..From$LT$$RF$T$GT$$GT$4from17h49b995fda83a9b98E', symObjAddr: 0x3C, symBinAddr: 0x6E54, symSize: 0x14 }
  - { offset: 0x4698D, size: 0x8, addend: 0x0, symName: '__ZN4core3ptr8non_null16NonNull$LT$T$GT$4cast17h770f225b07a4031dE', symObjAddr: 0x0, symBinAddr: 0x6E18, symSize: 0x14 }
  - { offset: 0x469C2, size: 0x8, addend: 0x0, symName: '__ZN4core3ptr8non_null16NonNull$LT$T$GT$4cast17h8393ccdf4b7cba19E', symObjAddr: 0x14, symBinAddr: 0x6E2C, symSize: 0x14 }
  - { offset: 0x46A2B, size: 0x8, addend: 0x0, symName: '__ZN4core3ptr8non_null16NonNull$LT$T$GT$4cast17hdf7c5770fb0514f5E', symObjAddr: 0x28, symBinAddr: 0x6E40, symSize: 0x14 }
  - { offset: 0x46A8B, size: 0x8, addend: 0x0, symName: __ZN4pyo35impl_9pymethods11tp_new_impl17h874c6674c1e4a150E, symObjAddr: 0x0, symBinAddr: 0x6E68, symSize: 0xDC }
  - { offset: 0x47E35, size: 0x8, addend: 0x0, symName: '__ZN50_$LT$T$u20$as$u20$core..convert..Into$LT$U$GT$$GT$4into17hfee5d669eaeb380fE', symObjAddr: 0xDC, symBinAddr: 0x6F44, symSize: 0x24 }
  - { offset: 0x48882, size: 0x8, addend: 0x0, symName: __ZN4pyo35impl_9pymethods11tp_new_impl17h874c6674c1e4a150E, symObjAddr: 0x0, symBinAddr: 0x6E68, symSize: 0xDC }
  - { offset: 0x494AB, size: 0x8, addend: 0x0, symName: '__ZN96_$LT$pyo3..pycell..impl_..BorrowChecker$u20$as$u20$pyo3..pycell..impl_..PyClassBorrowChecker$GT$3new17hf85af2e693aee471E', symObjAddr: 0x0, symBinAddr: 0x6F68, symSize: 0x40 }
  - { offset: 0x494CC, size: 0x8, addend: 0x0, symName: '__ZN96_$LT$pyo3..pycell..impl_..BorrowChecker$u20$as$u20$pyo3..pycell..impl_..PyClassBorrowChecker$GT$3new17hf85af2e693aee471E', symObjAddr: 0x0, symBinAddr: 0x6F68, symSize: 0x40 }
  - { offset: 0x49587, size: 0x8, addend: 0x0, symName: '__ZN87_$LT$$BP$mut$u20$pyo3_ffi..object..PyObject$u20$as$u20$pyo3..ffi_ptr_ext..FfiPtrExt$GT$12assume_owned17h6faab4564dd7da1eE', symObjAddr: 0x0, symBinAddr: 0x6FA8, symSize: 0x24 }
  - { offset: 0x495DA, size: 0x8, addend: 0x0, symName: __ZN8pyo3_ffi6object10Py_IS_TYPE17hf9395f01ae49de00E, symObjAddr: 0x90, symBinAddr: 0x7038, symSize: 0x38 }
  - { offset: 0x49614, size: 0x8, addend: 0x0, symName: __ZN8pyo3_ffi6object18PyObject_TypeCheck17ha59ccaf74e2c025dE, symObjAddr: 0xC8, symBinAddr: 0x7070, symSize: 0x70 }
  - { offset: 0x49651, size: 0x8, addend: 0x0, symName: __ZN8pyo3_ffi6object7Py_None17ha15f214afc03fbacE, symObjAddr: 0x138, symBinAddr: 0x70E0, symSize: 0xC }
  - { offset: 0x4966F, size: 0x8, addend: 0x0, symName: __ZN8pyo3_ffi6object7Py_TYPE17h8fcb04522714527eE, symObjAddr: 0x144, symBinAddr: 0x70EC, symSize: 0x74 }
  - { offset: 0x4AB1A, size: 0x8, addend: 0x0, symName: '__ZN87_$LT$$BP$mut$u20$pyo3_ffi..object..PyObject$u20$as$u20$pyo3..ffi_ptr_ext..FfiPtrExt$GT$12assume_owned17h6faab4564dd7da1eE', symObjAddr: 0x0, symBinAddr: 0x6FA8, symSize: 0x24 }
  - { offset: 0x4AB5F, size: 0x8, addend: 0x0, symName: '__ZN87_$LT$$BP$mut$u20$pyo3_ffi..object..PyObject$u20$as$u20$pyo3..ffi_ptr_ext..FfiPtrExt$GT$22assume_borrowed_or_err17h90580072687e8d9aE', symObjAddr: 0x24, symBinAddr: 0x6FCC, symSize: 0x24 }
  - { offset: 0x4ABA4, size: 0x8, addend: 0x0, symName: '__ZN87_$LT$$BP$mut$u20$pyo3_ffi..object..PyObject$u20$as$u20$pyo3..ffi_ptr_ext..FfiPtrExt$GT$22assume_borrowed_or_opt17h4a6ff132db1d122eE', symObjAddr: 0x48, symBinAddr: 0x6FF0, symSize: 0x24 }
  - { offset: 0x4ABE9, size: 0x8, addend: 0x0, symName: '__ZN87_$LT$$BP$mut$u20$pyo3_ffi..object..PyObject$u20$as$u20$pyo3..ffi_ptr_ext..FfiPtrExt$GT$25assume_borrowed_unchecked17he734c4f233905bb0E', symObjAddr: 0x6C, symBinAddr: 0x7014, symSize: 0x24 }
  - { offset: 0x4B524, size: 0x8, addend: 0x0, symName: '__ZN4core3ptr9const_ptr33_$LT$impl$u20$$BP$const$u20$T$GT$20offset_from_unsigned18precondition_check17h868c549d1286f153E', symObjAddr: 0x0, symBinAddr: 0x7160, symSize: 0x60 }
  - { offset: 0x4B54A, size: 0x8, addend: 0x0, symName: '__ZN4core3ptr9const_ptr33_$LT$impl$u20$$BP$const$u20$T$GT$20offset_from_unsigned18precondition_check17h868c549d1286f153E', symObjAddr: 0x0, symBinAddr: 0x7160, symSize: 0x60 }
  - { offset: 0x4B633, size: 0x8, addend: 0x0, symName: '__ZN4core3ptr9const_ptr33_$LT$impl$u20$$BP$const$u20$T$GT$6offset18precondition_check17hcc19b690ac217d0cE', symObjAddr: 0x60, symBinAddr: 0x71C0, symSize: 0xC4 }
  - { offset: 0x4BA1A, size: 0x8, addend: 0x0, symName: __ZN4core5slice3raw14from_raw_parts18precondition_check17h2be3461d3c13a0b6E, symObjAddr: 0x0, symBinAddr: 0x7284, symSize: 0x10C }
  - { offset: 0x4BB00, size: 0x8, addend: 0x0, symName: __ZN4core5slice3raw14from_raw_parts18precondition_check17h2be3461d3c13a0b6E, symObjAddr: 0x0, symBinAddr: 0x7284, symSize: 0x10C }
  - { offset: 0x4BC95, size: 0x8, addend: 0x0, symName: '__ZN4pyo37pyclass5guard21PyClassGuard$LT$T$GT$15as_class_object17h12056dc92c6f0ab9E', symObjAddr: 0x0, symBinAddr: 0x7390, symSize: 0x38 }
  - { offset: 0x4D68D, size: 0x8, addend: 0x0, symName: '__ZN4pyo37pyclass5guard21PyClassGuard$LT$T$GT$21try_from_class_object28_$u7b$$u7b$closure$u7d$$u7d$17hbc13a37eaee975fbE', symObjAddr: 0x78, symBinAddr: 0x7408, symSize: 0x2C }
  - { offset: 0x4D761, size: 0x8, addend: 0x0, symName: '__ZN4pyo37pyclass5guard24PyClassGuardMut$LT$T$GT$21try_from_class_object28_$u7b$$u7b$closure$u7d$$u7d$17h8a0cae147149387cE', symObjAddr: 0x144, symBinAddr: 0x74D4, symSize: 0x2C }
  - { offset: 0x4D7AC, size: 0x8, addend: 0x0, symName: '__ZN87_$LT$pyo3..pyclass..guard..PyClassGuard$LT$T$GT$$u20$as$u20$core..ops..deref..Deref$GT$5deref17hb193e9f2470597b8E', symObjAddr: 0x198, symBinAddr: 0x7528, symSize: 0x78 }
  - { offset: 0x4D7E9, size: 0x8, addend: 0x0, symName: '__ZN93_$LT$pyo3..pyclass..guard..PyClassGuardMut$LT$T$GT$$u20$as$u20$core..ops..deref..DerefMut$GT$9deref_mut17hf3879c19e7fdf5b0E', symObjAddr: 0x210, symBinAddr: 0x75A0, symSize: 0x74 }
  - { offset: 0x4E544, size: 0x8, addend: 0x0, symName: '__ZN4pyo37pyclass5guard21PyClassGuard$LT$T$GT$15as_class_object17h12056dc92c6f0ab9E', symObjAddr: 0x0, symBinAddr: 0x7390, symSize: 0x38 }
  - { offset: 0x4E58C, size: 0x8, addend: 0x0, symName: '__ZN4pyo37pyclass5guard21PyClassGuard$LT$T$GT$21try_from_class_object17hee6192efa43eb264E', symObjAddr: 0x38, symBinAddr: 0x73C8, symSize: 0x40 }
  - { offset: 0x4E5D1, size: 0x8, addend: 0x0, symName: '__ZN4pyo37pyclass5guard21PyClassGuard$LT$T$GT$24try_borrow_from_borrowed17h63b04d9a19cac07dE', symObjAddr: 0xA4, symBinAddr: 0x7434, symSize: 0x28 }
  - { offset: 0x4E609, size: 0x8, addend: 0x0, symName: '__ZN4pyo37pyclass5guard24PyClassGuardMut$LT$T$GT$15as_class_object17h53a54bc6a1453756E', symObjAddr: 0xCC, symBinAddr: 0x745C, symSize: 0x38 }
  - { offset: 0x4E653, size: 0x8, addend: 0x0, symName: '__ZN4pyo37pyclass5guard24PyClassGuardMut$LT$T$GT$21try_from_class_object17h668c912db8a5dcdeE', symObjAddr: 0x104, symBinAddr: 0x7494, symSize: 0x40 }
  - { offset: 0x4E67F, size: 0x8, addend: 0x0, symName: '__ZN4pyo37pyclass5guard24PyClassGuardMut$LT$T$GT$28try_borrow_mut_from_borrowed17h2f90e82191791012E', symObjAddr: 0x170, symBinAddr: 0x7500, symSize: 0x28 }
  - { offset: 0x4E6F0, size: 0x8, addend: 0x0, symName: __ZN4pyo35impl_10trampoline10trampoline17h1988452e721c7295E, symObjAddr: 0x0, symBinAddr: 0x7614, symSize: 0x15C }
  - { offset: 0x4FDB7, size: 0x8, addend: 0x0, symName: __ZN4pyo35impl_10trampoline10trampoline17h1988452e721c7295E, symObjAddr: 0x0, symBinAddr: 0x7614, symSize: 0x15C }
  - { offset: 0x4FE60, size: 0x8, addend: 0x0, symName: __ZN4pyo35impl_10trampoline10trampoline17h7bf1c42846754740E, symObjAddr: 0x15C, symBinAddr: 0x7770, symSize: 0x158 }
  - { offset: 0x4FF09, size: 0x8, addend: 0x0, symName: __ZN4pyo35impl_10trampoline10trampoline17hd25cf4b1c5a1a56fE, symObjAddr: 0x2B4, symBinAddr: 0x78C8, symSize: 0x160 }
  - { offset: 0x4FFB3, size: 0x8, addend: 0x0, symName: __ZN4pyo35impl_10trampoline10trampoline17hda43c3ba82529b56E, symObjAddr: 0x414, symBinAddr: 0x7A28, symSize: 0x158 }
  - { offset: 0x50061, size: 0x8, addend: 0x0, symName: '__ZN4pyo35impl_10trampoline10trampoline28_$u7b$$u7b$closure$u7d$$u7d$17h63c8edd26f553718E', symObjAddr: 0x56C, symBinAddr: 0x7B80, symSize: 0x34 }
  - { offset: 0x500B3, size: 0x8, addend: 0x0, symName: '__ZN4pyo35impl_10trampoline10trampoline28_$u7b$$u7b$closure$u7d$$u7d$17h9276e8955088fa4eE', symObjAddr: 0x5A0, symBinAddr: 0x7BB4, symSize: 0x40 }
  - { offset: 0x50105, size: 0x8, addend: 0x0, symName: '__ZN4pyo35impl_10trampoline10trampoline28_$u7b$$u7b$closure$u7d$$u7d$17ha316ecfcca11e7a5E', symObjAddr: 0x5E0, symBinAddr: 0x7BF4, symSize: 0x2C }
  - { offset: 0x50156, size: 0x8, addend: 0x0, symName: '__ZN4pyo35impl_10trampoline10trampoline28_$u7b$$u7b$closure$u7d$$u7d$17hc3fe87ccfebac756E', symObjAddr: 0x60C, symBinAddr: 0x7C20, symSize: 0x2C }
  - { offset: 0x501AD, size: 0x8, addend: 0x0, symName: '__ZN4pyo35impl_10trampoline11module_exec28_$u7b$$u7b$closure$u7d$$u7d$17h096c589b29f81da6E', symObjAddr: 0x638, symBinAddr: 0x7C4C, symSize: 0x1A4 }
  - { offset: 0x502BF, size: 0x8, addend: 0x0, symName: __ZN4pyo35impl_10trampoline21trampoline_unraisable17hadeb2372ac3f6ec0E, symObjAddr: 0x7DC, symBinAddr: 0x7DF0, symSize: 0x218 }
  - { offset: 0x50369, size: 0x8, addend: 0x0, symName: '__ZN4pyo35impl_10trampoline21trampoline_unraisable28_$u7b$$u7b$closure$u7d$$u7d$17h193efdf6ec6d6559E', symObjAddr: 0x9F4, symBinAddr: 0x8008, symSize: 0x5C }
  - { offset: 0x503AB, size: 0x8, addend: 0x0, symName: '__ZN4pyo35impl_10trampoline21trampoline_unraisable28_$u7b$$u7b$closure$u7d$$u7d$17h4fc0936ed1556a67E', symObjAddr: 0xA50, symBinAddr: 0x8064, symSize: 0x2C }
  - { offset: 0x503FB, size: 0x8, addend: 0x0, symName: __ZN4pyo35impl_10trampoline32fastcall_cfunction_with_keywords17h6152da7ef661650dE, symObjAddr: 0xA7C, symBinAddr: 0x8090, symSize: 0x50 }
  - { offset: 0x5045A, size: 0x8, addend: 0x0, symName: __ZN4pyo35impl_10trampoline32fastcall_cfunction_with_keywords17h68011f753d87be43E, symObjAddr: 0xACC, symBinAddr: 0x80E0, symSize: 0x50 }
  - { offset: 0x504B9, size: 0x8, addend: 0x0, symName: __ZN4pyo35impl_10trampoline32fastcall_cfunction_with_keywords17h724dd33a9a6732c8E, symObjAddr: 0xB1C, symBinAddr: 0x8130, symSize: 0x50 }
  - { offset: 0x50518, size: 0x8, addend: 0x0, symName: __ZN4pyo35impl_10trampoline32fastcall_cfunction_with_keywords17hb962ba4219326fa7E, symObjAddr: 0xB6C, symBinAddr: 0x8180, symSize: 0x50 }
  - { offset: 0x50577, size: 0x8, addend: 0x0, symName: __ZN4pyo35impl_10trampoline32fastcall_cfunction_with_keywords17hc1c7434a98cd3290E, symObjAddr: 0xBBC, symBinAddr: 0x81D0, symSize: 0x50 }
  - { offset: 0x505DB, size: 0x8, addend: 0x0, symName: '__ZN4pyo35impl_10trampoline7dealloc28_$u7b$$u7b$closure$u7d$$u7d$17h40d9e23e77bdeb1fE', symObjAddr: 0xC0C, symBinAddr: 0x8220, symSize: 0x40 }
  - { offset: 0x50653, size: 0x8, addend: 0x0, symName: __ZN4pyo35impl_10trampoline7newfunc17hb52a57df32b5742dE, symObjAddr: 0xC4C, symBinAddr: 0x8260, symSize: 0x4C }
  - { offset: 0x506A4, size: 0x8, addend: 0x0, symName: __ZN4pyo35impl_10trampoline8reprfunc17h1fce8658a7bc8145E, symObjAddr: 0xC98, symBinAddr: 0x82AC, symSize: 0x3C }
  - { offset: 0x5134C, size: 0x8, addend: 0x0, symName: '__ZN106_$LT$pyo3..impl_..extract_argument..NoVarargs$u20$as$u20$pyo3..impl_..extract_argument..VarargsHandler$GT$20handle_varargs_tuple17h0f88439645202c90E', symObjAddr: 0x0, symBinAddr: 0x82E8, symSize: 0xA0 }
  - { offset: 0x52BB0, size: 0x8, addend: 0x0, symName: '__ZN106_$LT$pyo3..impl_..extract_argument..NoVarargs$u20$as$u20$pyo3..impl_..extract_argument..VarargsHandler$GT$20handle_varargs_tuple17h0f88439645202c90E', symObjAddr: 0x0, symBinAddr: 0x82E8, symSize: 0xA0 }
  - { offset: 0x52C29, size: 0x8, addend: 0x0, symName: '__ZN106_$LT$pyo3..impl_..extract_argument..NoVarargs$u20$as$u20$pyo3..impl_..extract_argument..VarargsHandler$GT$23handle_varargs_fastcall17hda9f83767ddad371E', symObjAddr: 0xA0, symBinAddr: 0x8388, symSize: 0xB4 }
  - { offset: 0x52C9D, size: 0x8, addend: 0x0, symName: '__ZN114_$LT$pyo3..impl_..extract_argument..NoVarkeywords$u20$as$u20$pyo3..impl_..extract_argument..VarkeywordsHandler$GT$17handle_varkeyword17h8556cb40d8883065E', symObjAddr: 0x154, symBinAddr: 0x843C, symSize: 0x6C }
  - { offset: 0x52DDC, size: 0x8, addend: 0x0, symName: __ZN4pyo35impl_16extract_argument22cast_function_argument17hc1284212f71ace0fE, symObjAddr: 0x574, symBinAddr: 0x885C, symSize: 0x24 }
  - { offset: 0x52E25, size: 0x8, addend: 0x0, symName: __ZN4pyo35impl_16extract_argument24unwrap_required_argument17h566faeb43c38900aE, symObjAddr: 0x598, symBinAddr: 0x8880, symSize: 0x58 }
  - { offset: 0x5317C, size: 0x8, addend: 0x0, symName: __ZN4pyo35impl_16extract_argument19FunctionDescription36find_keyword_parameter_in_positional17h77f8601db97a9713E, symObjAddr: 0x1C0, symBinAddr: 0x84A8, symSize: 0x5C }
  - { offset: 0x531AE, size: 0x8, addend: 0x0, symName: __ZN4pyo35impl_16extract_argument19FunctionDescription38find_keyword_parameter_in_keyword_only17h0104b3b42b1942f2E, symObjAddr: 0x21C, symBinAddr: 0x8504, symSize: 0x5C }
  - { offset: 0x53884, size: 0x8, addend: 0x0, symName: __ZN4pyo35impl_16extract_argument19FunctionDescription44ensure_no_missing_required_keyword_arguments17hb531ee896f07cb62E, symObjAddr: 0x278, symBinAddr: 0x8560, symSize: 0x160 }
  - { offset: 0x53950, size: 0x8, addend: 0x0, symName: __ZN4pyo35impl_16extract_argument19FunctionDescription47ensure_no_missing_required_positional_arguments17h80dc9dbc3abfa53dE, symObjAddr: 0x3D8, symBinAddr: 0x86C0, symSize: 0x19C }
  - { offset: 0x53AD8, size: 0x8, addend: 0x0, symName: '__ZN73_$LT$pyo3..types..any..PyAny$u20$as$u20$pyo3..type_object..PyTypeInfo$GT$15type_object_raw17h8e45519db08f596aE', symObjAddr: 0x0, symBinAddr: 0x88D8, symSize: 0x24 }
  - { offset: 0x54BDD, size: 0x8, addend: 0x0, symName: '__ZN73_$LT$pyo3..types..any..PyAny$u20$as$u20$pyo3..type_object..PyTypeInfo$GT$15type_object_raw17h8e45519db08f596aE', symObjAddr: 0x0, symBinAddr: 0x88D8, symSize: 0x24 }
  - { offset: 0x55137, size: 0x8, addend: 0x0, symName: '__ZN153_$LT$core..result..Result$LT$T$C$F$GT$$u20$as$u20$core..ops..try_trait..FromResidual$LT$core..result..Result$LT$core..convert..Infallible$C$E$GT$$GT$$GT$13from_residual17h06226351ea2fe891E', symObjAddr: 0x0, symBinAddr: 0x88FC, symSize: 0x6C }
  - { offset: 0x56951, size: 0x8, addend: 0x0, symName: '__ZN153_$LT$core..result..Result$LT$T$C$F$GT$$u20$as$u20$core..ops..try_trait..FromResidual$LT$core..result..Result$LT$core..convert..Infallible$C$E$GT$$GT$$GT$13from_residual17h06226351ea2fe891E', symObjAddr: 0x0, symBinAddr: 0x88FC, symSize: 0x6C }
  - { offset: 0x569D7, size: 0x8, addend: 0x0, symName: '__ZN153_$LT$core..result..Result$LT$T$C$F$GT$$u20$as$u20$core..ops..try_trait..FromResidual$LT$core..result..Result$LT$core..convert..Infallible$C$E$GT$$GT$$GT$13from_residual17h1dceaa2064921793E', symObjAddr: 0x6C, symBinAddr: 0x8968, symSize: 0x6C }
  - { offset: 0x56A5D, size: 0x8, addend: 0x0, symName: '__ZN153_$LT$core..result..Result$LT$T$C$F$GT$$u20$as$u20$core..ops..try_trait..FromResidual$LT$core..result..Result$LT$core..convert..Infallible$C$E$GT$$GT$$GT$13from_residual17h1ede68d3f28f1b8dE', symObjAddr: 0xD8, symBinAddr: 0x89D4, symSize: 0x6C }
  - { offset: 0x56AC4, size: 0x8, addend: 0x0, symName: '__ZN153_$LT$core..result..Result$LT$T$C$F$GT$$u20$as$u20$core..ops..try_trait..FromResidual$LT$core..result..Result$LT$core..convert..Infallible$C$E$GT$$GT$$GT$13from_residual17h4b821507868b7f58E', symObjAddr: 0x144, symBinAddr: 0x8A40, symSize: 0x4C }
  - { offset: 0x56B2B, size: 0x8, addend: 0x0, symName: '__ZN153_$LT$core..result..Result$LT$T$C$F$GT$$u20$as$u20$core..ops..try_trait..FromResidual$LT$core..result..Result$LT$core..convert..Infallible$C$E$GT$$GT$$GT$13from_residual17h5cdbedc7f9d9e0dfE', symObjAddr: 0x190, symBinAddr: 0x8A8C, symSize: 0x4C }
  - { offset: 0x56B92, size: 0x8, addend: 0x0, symName: '__ZN153_$LT$core..result..Result$LT$T$C$F$GT$$u20$as$u20$core..ops..try_trait..FromResidual$LT$core..result..Result$LT$core..convert..Infallible$C$E$GT$$GT$$GT$13from_residual17h81c6bb13610105f7E', symObjAddr: 0x1DC, symBinAddr: 0x8AD8, symSize: 0x6C }
  - { offset: 0x56BF9, size: 0x8, addend: 0x0, symName: '__ZN153_$LT$core..result..Result$LT$T$C$F$GT$$u20$as$u20$core..ops..try_trait..FromResidual$LT$core..result..Result$LT$core..convert..Infallible$C$E$GT$$GT$$GT$13from_residual17hdf372c88d99b0907E', symObjAddr: 0x248, symBinAddr: 0x8B44, symSize: 0x44 }
  - { offset: 0x56C60, size: 0x8, addend: 0x0, symName: '__ZN153_$LT$core..result..Result$LT$T$C$F$GT$$u20$as$u20$core..ops..try_trait..FromResidual$LT$core..result..Result$LT$core..convert..Infallible$C$E$GT$$GT$$GT$13from_residual17hf8f5690d8b325f1dE', symObjAddr: 0x28C, symBinAddr: 0x8B88, symSize: 0x6C }
  - { offset: 0x57AD8, size: 0x8, addend: 0x0, symName: '__ZN79_$LT$core..result..Result$LT$T$C$E$GT$$u20$as$u20$core..ops..try_trait..Try$GT$6branch17h00d9175967d162a8E', symObjAddr: 0xCE8, symBinAddr: 0x95E4, symSize: 0x90 }
  - { offset: 0x57B55, size: 0x8, addend: 0x0, symName: '__ZN79_$LT$core..result..Result$LT$T$C$E$GT$$u20$as$u20$core..ops..try_trait..Try$GT$6branch17h022f15acf77c1e70E', symObjAddr: 0xD78, symBinAddr: 0x9674, symSize: 0x68 }
  - { offset: 0x57BD2, size: 0x8, addend: 0x0, symName: '__ZN79_$LT$core..result..Result$LT$T$C$E$GT$$u20$as$u20$core..ops..try_trait..Try$GT$6branch17h40702cae8bcf64c0E', symObjAddr: 0xDE0, symBinAddr: 0x96DC, symSize: 0xA0 }
  - { offset: 0x57C4F, size: 0x8, addend: 0x0, symName: '__ZN79_$LT$core..result..Result$LT$T$C$E$GT$$u20$as$u20$core..ops..try_trait..Try$GT$6branch17h4d83128a265ae31eE', symObjAddr: 0xE80, symBinAddr: 0x977C, symSize: 0xA0 }
  - { offset: 0x57CCC, size: 0x8, addend: 0x0, symName: '__ZN79_$LT$core..result..Result$LT$T$C$E$GT$$u20$as$u20$core..ops..try_trait..Try$GT$6branch17h5016e450122e7df1E', symObjAddr: 0xF20, symBinAddr: 0x981C, symSize: 0x44 }
  - { offset: 0x57D48, size: 0x8, addend: 0x0, symName: '__ZN79_$LT$core..result..Result$LT$T$C$E$GT$$u20$as$u20$core..ops..try_trait..Try$GT$6branch17h51f7c106b3f9b19cE', symObjAddr: 0xF64, symBinAddr: 0x9860, symSize: 0xA0 }
  - { offset: 0x57DC5, size: 0x8, addend: 0x0, symName: '__ZN79_$LT$core..result..Result$LT$T$C$E$GT$$u20$as$u20$core..ops..try_trait..Try$GT$6branch17h5565f754563dbda1E', symObjAddr: 0x1004, symBinAddr: 0x9900, symSize: 0x68 }
  - { offset: 0x57E42, size: 0x8, addend: 0x0, symName: '__ZN79_$LT$core..result..Result$LT$T$C$E$GT$$u20$as$u20$core..ops..try_trait..Try$GT$6branch17h8d6e9e6c5ed55dc9E', symObjAddr: 0x106C, symBinAddr: 0x9968, symSize: 0x68 }
  - { offset: 0x57EBF, size: 0x8, addend: 0x0, symName: '__ZN79_$LT$core..result..Result$LT$T$C$E$GT$$u20$as$u20$core..ops..try_trait..Try$GT$6branch17h97089c93e30a3df0E', symObjAddr: 0x10D4, symBinAddr: 0x99D0, symSize: 0xA0 }
  - { offset: 0x57F3C, size: 0x8, addend: 0x0, symName: '__ZN79_$LT$core..result..Result$LT$T$C$E$GT$$u20$as$u20$core..ops..try_trait..Try$GT$6branch17h9e3de0abc9c2db06E', symObjAddr: 0x1174, symBinAddr: 0x9A70, symSize: 0xC4 }
  - { offset: 0x57FBA, size: 0x8, addend: 0x0, symName: '__ZN79_$LT$core..result..Result$LT$T$C$E$GT$$u20$as$u20$core..ops..try_trait..Try$GT$6branch17hd399f06019579be9E', symObjAddr: 0x1238, symBinAddr: 0x9B34, symSize: 0x44 }
  - { offset: 0x58036, size: 0x8, addend: 0x0, symName: '__ZN79_$LT$core..result..Result$LT$T$C$E$GT$$u20$as$u20$core..ops..try_trait..Try$GT$6branch17hd3ee026d839b0dcfE', symObjAddr: 0x127C, symBinAddr: 0x9B78, symSize: 0xB4 }
  - { offset: 0x580B4, size: 0x8, addend: 0x0, symName: '__ZN79_$LT$core..result..Result$LT$T$C$E$GT$$u20$as$u20$core..ops..try_trait..Try$GT$6branch17hf0020774ef563075E', symObjAddr: 0x1330, symBinAddr: 0x9C2C, symSize: 0xA0 }
  - { offset: 0x5A4DA, size: 0x8, addend: 0x0, symName: '__ZN4core6result19Result$LT$T$C$E$GT$14unwrap_or_else17h3c64922fe3d08aaaE', symObjAddr: 0x2F8, symBinAddr: 0x8BF4, symSize: 0x8C }
  - { offset: 0x5A574, size: 0x8, addend: 0x0, symName: '__ZN4core6result19Result$LT$T$C$E$GT$14unwrap_or_else17h7c3608d13d72952bE', symObjAddr: 0x384, symBinAddr: 0x8C80, symSize: 0x70 }
  - { offset: 0x5AC28, size: 0x8, addend: 0x0, symName: '__ZN4core6result19Result$LT$T$C$E$GT$3map17h0700bc885ba26bceE', symObjAddr: 0x3F4, symBinAddr: 0x8CF0, symSize: 0x90 }
  - { offset: 0x5ACE2, size: 0x8, addend: 0x0, symName: '__ZN4core6result19Result$LT$T$C$E$GT$3map17h12b296727ca76edaE', symObjAddr: 0x484, symBinAddr: 0x8D80, symSize: 0x4C }
  - { offset: 0x5AD8C, size: 0x8, addend: 0x0, symName: '__ZN4core6result19Result$LT$T$C$E$GT$3map17h4884e42399f0ab7cE', symObjAddr: 0x4D0, symBinAddr: 0x8DCC, symSize: 0x38 }
  - { offset: 0x5AE00, size: 0x8, addend: 0x0, symName: '__ZN4core6result19Result$LT$T$C$E$GT$3map17h4b28a8cb958fd10bE', symObjAddr: 0x508, symBinAddr: 0x8E04, symSize: 0x90 }
  - { offset: 0x5AEAB, size: 0x8, addend: 0x0, symName: '__ZN4core6result19Result$LT$T$C$E$GT$3map17h8de6ebc61ef1e24bE', symObjAddr: 0x598, symBinAddr: 0x8E94, symSize: 0x90 }
  - { offset: 0x5AF3E, size: 0x8, addend: 0x0, symName: '__ZN4core6result19Result$LT$T$C$E$GT$3map17hc45e58cf8379c586E', symObjAddr: 0x628, symBinAddr: 0x8F24, symSize: 0x4C }
  - { offset: 0x5B002, size: 0x8, addend: 0x0, symName: '__ZN4core6result19Result$LT$T$C$E$GT$6is_err17hc8765260d4b764f4E', symObjAddr: 0x674, symBinAddr: 0x8F70, symSize: 0x20 }
  - { offset: 0x5B06D, size: 0x8, addend: 0x0, symName: '__ZN4core6result19Result$LT$T$C$E$GT$7map_err17h33eae842f603b799E', symObjAddr: 0x694, symBinAddr: 0x8F90, symSize: 0xD8 }
  - { offset: 0x5B11A, size: 0x8, addend: 0x0, symName: '__ZN4core6result19Result$LT$T$C$E$GT$7map_err17h5964829151145fbcE', symObjAddr: 0x76C, symBinAddr: 0x9068, symSize: 0x30 }
  - { offset: 0x5B190, size: 0x8, addend: 0x0, symName: '__ZN4core6result19Result$LT$T$C$E$GT$7map_err17h6709c8c47e2716a4E', symObjAddr: 0x79C, symBinAddr: 0x9098, symSize: 0xCC }
  - { offset: 0x5B224, size: 0x8, addend: 0x0, symName: '__ZN4core6result19Result$LT$T$C$E$GT$7map_err17h677a24ca069e3a75E', symObjAddr: 0x868, symBinAddr: 0x9164, symSize: 0xA0 }
  - { offset: 0x5B2B7, size: 0x8, addend: 0x0, symName: '__ZN4core6result19Result$LT$T$C$E$GT$7map_err17h68139204f487de0dE', symObjAddr: 0x908, symBinAddr: 0x9204, symSize: 0xCC }
  - { offset: 0x5B34B, size: 0x8, addend: 0x0, symName: '__ZN4core6result19Result$LT$T$C$E$GT$7map_err17hc2712df87a90e81fE', symObjAddr: 0x9D4, symBinAddr: 0x92D0, symSize: 0x98 }
  - { offset: 0x5B3DE, size: 0x8, addend: 0x0, symName: '__ZN4core6result19Result$LT$T$C$E$GT$7map_err17hc92a90012ad3f016E', symObjAddr: 0xA6C, symBinAddr: 0x9368, symSize: 0x48 }
  - { offset: 0x5B4C3, size: 0x8, addend: 0x0, symName: '__ZN4core6result19Result$LT$T$C$E$GT$7map_err17hfb895168f0942e82E', symObjAddr: 0xAB4, symBinAddr: 0x93B0, symSize: 0xB4 }
  - { offset: 0x5B556, size: 0x8, addend: 0x0, symName: '__ZN4core6result19Result$LT$T$C$E$GT$8and_then17hd3ee99cc533bacf6E', symObjAddr: 0xB68, symBinAddr: 0x9464, symSize: 0xB0 }
  - { offset: 0x5B5E9, size: 0x8, addend: 0x0, symName: '__ZN4core6result19Result$LT$T$C$E$GT$8and_then17hd595dda7f26fae56E', symObjAddr: 0xC18, symBinAddr: 0x9514, symSize: 0xD0 }
  - { offset: 0x5B715, size: 0x8, addend: 0x0, symName: '__ZN41_$LT$bool$u20$as$u20$core..fmt..Debug$GT$3fmt17h4cdd3843f5d432c8E', symObjAddr: 0x0, symBinAddr: 0x9CCC, symSize: 0x2C }
  - { offset: 0x5B731, size: 0x8, addend: 0x0, symName: '__ZN41_$LT$bool$u20$as$u20$core..fmt..Debug$GT$3fmt17h4cdd3843f5d432c8E', symObjAddr: 0x0, symBinAddr: 0x9CCC, symSize: 0x2C }
  - { offset: 0x5BAA4, size: 0x8, addend: 0x0, symName: __ZN4core3fmt9Arguments17from_str_nonconst17h6c3fb27923d24484E, symObjAddr: 0x2C, symBinAddr: 0x9CF8, symSize: 0x28 }
  - { offset: 0x5BAC7, size: 0x8, addend: 0x0, symName: __ZN4core3fmt9Arguments8from_str17hb57c0f7e4d03b57eE, symObjAddr: 0x54, symBinAddr: 0x9D20, symSize: 0x20 }
  - { offset: 0x5BB1C, size: 0x8, addend: 0x0, symName: '__ZN5alloc3vec12Vec$LT$T$GT$3new17h713b5f82c207c7ddE', symObjAddr: 0x0, symBinAddr: 0x9D40, symSize: 0x14 }
  - { offset: 0x5BEF5, size: 0x8, addend: 0x0, symName: '__ZN5alloc3vec12Vec$LT$T$GT$3new17h713b5f82c207c7ddE', symObjAddr: 0x0, symBinAddr: 0x9D40, symSize: 0x14 }
  - { offset: 0x5BF1F, size: 0x8, addend: 0x0, symName: '__ZN5alloc3vec16Vec$LT$T$C$A$GT$4push17h8ed92ae7d81914c7E', symObjAddr: 0x14, symBinAddr: 0x9D54, symSize: 0x30 }
  - { offset: 0x5C084, size: 0x8, addend: 0x0, symName: '__ZN5alloc3vec16Vec$LT$T$C$A$GT$8push_mut17h368ef91dacbef9a0E', symObjAddr: 0x44, symBinAddr: 0x9D84, symSize: 0xE0 }
  - { offset: 0x5C225, size: 0x8, addend: 0x0, symName: __ZN4pyo33err10cast_error9CastError3new17h046ea0801e3797a8E, symObjAddr: 0x0, symBinAddr: 0x9E64, symSize: 0x1C }
  - { offset: 0x5D9EF, size: 0x8, addend: 0x0, symName: __ZN4pyo33err10cast_error9CastError3new17h046ea0801e3797a8E, symObjAddr: 0x0, symBinAddr: 0x9E64, symSize: 0x1C }
  - { offset: 0x5DA3D, size: 0x8, addend: 0x0, symName: __ZN4core4hint16assert_unchecked18precondition_check17h29255bb266e4668bE, symObjAddr: 0x0, symBinAddr: 0x9E80, symSize: 0x58 }
  - { offset: 0x5DA59, size: 0x8, addend: 0x0, symName: __ZN4core4hint16assert_unchecked18precondition_check17h29255bb266e4668bE, symObjAddr: 0x0, symBinAddr: 0x9E80, symSize: 0x58 }
  - { offset: 0x5DAA4, size: 0x8, addend: 0x0, symName: __ZN4core4hint21unreachable_unchecked18precondition_check17had694c60ad657d7fE, symObjAddr: 0x58, symBinAddr: 0x9ED8, symSize: 0x3C }
  - { offset: 0x5DB38, size: 0x8, addend: 0x0, symName: __ZN4core5slice3raw14from_raw_parts17h20b67a553229a4cfE, symObjAddr: 0x0, symBinAddr: 0x9F14, symSize: 0x58 }
  - { offset: 0x5E32B, size: 0x8, addend: 0x0, symName: __ZN4core5slice3raw14from_raw_parts17h20b67a553229a4cfE, symObjAddr: 0x0, symBinAddr: 0x9F14, symSize: 0x58 }
  - { offset: 0x5E36E, size: 0x8, addend: 0x0, symName: __ZN4core5slice3raw14from_raw_parts17he42d93a67f06d247E, symObjAddr: 0x58, symBinAddr: 0x9F6C, symSize: 0x58 }
  - { offset: 0x5F3BC, size: 0x8, addend: 0x0, symName: '__ZN100_$LT$core..iter..adapters..take..Take$LT$I$GT$$u20$as$u20$core..iter..traits..iterator..Iterator$GT$4next17h7f2dcbccb28974dbE', symObjAddr: 0x0, symBinAddr: 0x9FC4, symSize: 0x58 }
  - { offset: 0x5FBB9, size: 0x8, addend: 0x0, symName: '__ZN100_$LT$core..iter..adapters..take..Take$LT$I$GT$$u20$as$u20$core..iter..traits..iterator..Iterator$GT$4next17h7f2dcbccb28974dbE', symObjAddr: 0x0, symBinAddr: 0x9FC4, symSize: 0x58 }
  - { offset: 0x5FC78, size: 0x8, addend: 0x0, symName: __ZN4core4iter6traits8iterator8Iterator9enumerate17h0e766499ee27a1a1E, symObjAddr: 0x58, symBinAddr: 0xA01C, symSize: 0x18 }
  - { offset: 0x5FCA9, size: 0x8, addend: 0x0, symName: __ZN4core4iter6traits8iterator8Iterator9enumerate17h0e766499ee27a1a1E, symObjAddr: 0x58, symBinAddr: 0xA01C, symSize: 0x18 }
  - { offset: 0x60D5F, size: 0x8, addend: 0x0, symName: '__ZN82_$LT$jpnorm_core..l4_extra..protect..ProtectConfig$u20$as$u20$core..fmt..Debug$GT$3fmt17h8eb7336f7f87c10cE', symObjAddr: 0x0, symBinAddr: 0xA034, symSize: 0xD8 }
  - { offset: 0x60D95, size: 0x8, addend: 0x0, symName: '__ZN82_$LT$jpnorm_core..l4_extra..protect..ProtectConfig$u20$as$u20$core..fmt..Debug$GT$3fmt17h8eb7336f7f87c10cE', symObjAddr: 0x0, symBinAddr: 0xA034, symSize: 0xD8 }
  - { offset: 0x60DD5, size: 0x8, addend: 0x0, symName: '__ZN84_$LT$jpnorm_core..l4_extra..protect..ProtectConfig$u20$as$u20$core..clone..Clone$GT$5clone17hcfa6ca537d432701E', symObjAddr: 0xD8, symBinAddr: 0xA10C, symSize: 0x20 }
  - { offset: 0x60FC2, size: 0x8, addend: 0x0, symName: '__ZN42_$LT$$RF$T$u20$as$u20$core..fmt..Debug$GT$3fmt17h374f87d0668b5c43E', symObjAddr: 0x0, symBinAddr: 0xA12C, symSize: 0x30 }
  - { offset: 0x61034, size: 0x8, addend: 0x0, symName: '__ZN42_$LT$$RF$T$u20$as$u20$core..fmt..Debug$GT$3fmt17h374f87d0668b5c43E', symObjAddr: 0x0, symBinAddr: 0xA12C, symSize: 0x30 }
  - { offset: 0x6107A, size: 0x8, addend: 0x0, symName: '__ZN42_$LT$$RF$T$u20$as$u20$core..fmt..Debug$GT$3fmt17hf9b6a3bf8b553312E', symObjAddr: 0x30, symBinAddr: 0xA15C, symSize: 0x30 }
  - { offset: 0x61201, size: 0x8, addend: 0x0, symName: '__ZN50_$LT$$LP$U$C$T$RP$$u20$as$u20$core..fmt..Debug$GT$3fmt17he71fda82e719ce16E', symObjAddr: 0x98, symBinAddr: 0xA1C4, symSize: 0x90 }
  - { offset: 0x614CB, size: 0x8, addend: 0x0, symName: __ZN4core3fmt9Arguments3new17h6c2489ab618b42a1E, symObjAddr: 0x60, symBinAddr: 0xA18C, symSize: 0x1C }
  - { offset: 0x61517, size: 0x8, addend: 0x0, symName: __ZN4core3fmt9Arguments3new17hc6ba886d46053e85E, symObjAddr: 0x7C, symBinAddr: 0xA1A8, symSize: 0x1C }
  - { offset: 0x615C0, size: 0x8, addend: 0x0, symName: '__ZN4pyo35impl_10trampoline32fastcall_cfunction_with_keywords5inner28_$u7b$$u7b$closure$u7d$$u7d$17h683be26399278f1cE', symObjAddr: 0x0, symBinAddr: 0xA254, symSize: 0x48 }
  - { offset: 0x629C9, size: 0x8, addend: 0x0, symName: '__ZN4pyo35impl_10trampoline32fastcall_cfunction_with_keywords5inner28_$u7b$$u7b$closure$u7d$$u7d$17h683be26399278f1cE', symObjAddr: 0x0, symBinAddr: 0xA254, symSize: 0x48 }
  - { offset: 0x632DD, size: 0x8, addend: 0x0, symName: '__ZN110_$LT$core..iter..adapters..enumerate..Enumerate$LT$I$GT$$u20$as$u20$core..iter..traits..iterator..Iterator$GT$4next17h74c672dc49989ebeE', symObjAddr: 0x0, symBinAddr: 0xA29C, symSize: 0xE0 }
  - { offset: 0x64678, size: 0x8, addend: 0x0, symName: '__ZN110_$LT$core..iter..adapters..enumerate..Enumerate$LT$I$GT$$u20$as$u20$core..iter..traits..iterator..Iterator$GT$4next17h74c672dc49989ebeE', symObjAddr: 0x0, symBinAddr: 0xA29C, symSize: 0xE0 }
  - { offset: 0x647CA, size: 0x8, addend: 0x0, symName: '__ZN63_$LT$I$u20$as$u20$core..iter..traits..collect..IntoIterator$GT$9into_iter17h59d5bbe55cf3b562E', symObjAddr: 0xE0, symBinAddr: 0xA37C, symSize: 0x30 }
  - { offset: 0x64EBB, size: 0x8, addend: 0x0, symName: '__ZN4pyo35impl_7pyclass16lazy_type_object23LazyTypeObject$LT$T$GT$15get_or_try_init17h159d7236fcc8549aE', symObjAddr: 0x0, symBinAddr: 0xA3AC, symSize: 0x70 }
  - { offset: 0x67E6C, size: 0x8, addend: 0x0, symName: '__ZN4pyo35impl_7pyclass16lazy_type_object23LazyTypeObject$LT$T$GT$15get_or_try_init17h159d7236fcc8549aE', symObjAddr: 0x0, symBinAddr: 0xA3AC, symSize: 0x70 }
  - { offset: 0x67ECD, size: 0x8, addend: 0x0, symName: '__ZN4pyo35impl_7pyclass16lazy_type_object23LazyTypeObject$LT$T$GT$8try_init17h97fa9bd6302b6ef5E', symObjAddr: 0x70, symBinAddr: 0xB9574, symSize: 0x58 }
  - { offset: 0x67F3C, size: 0x8, addend: 0x0, symName: __ZN5alloc3fmt6format17h701475445e98b179E, symObjAddr: 0x0, symBinAddr: 0xA41C, symSize: 0xD8 }
  - { offset: 0x68454, size: 0x8, addend: 0x0, symName: __ZN5alloc3fmt6format17h701475445e98b179E, symObjAddr: 0x0, symBinAddr: 0xA41C, symSize: 0xD8 }
  - { offset: 0x68604, size: 0x8, addend: 0x0, symName: __ZN4core3fmt2rt8Argument11new_display17h8ff2fe0b18b1ff03E, symObjAddr: 0x0, symBinAddr: 0xA4F4, symSize: 0x2C }
  - { offset: 0x68ED9, size: 0x8, addend: 0x0, symName: __ZN4core3fmt2rt8Argument11new_display17h8ff2fe0b18b1ff03E, symObjAddr: 0x0, symBinAddr: 0xA4F4, symSize: 0x2C }
  - { offset: 0x68F43, size: 0x8, addend: 0x0, symName: __ZN4core3fmt2rt8Argument9new_debug17hc1447a4fdd731aefE, symObjAddr: 0x2C, symBinAddr: 0xA520, symSize: 0x2C }
  - { offset: 0x68F8C, size: 0x8, addend: 0x0, symName: '__ZN4pyo35impl_4wrap82EmptyTupleConverter$LT$core..result..Result$LT$$LP$$RP$$C$pyo3..err..PyErr$GT$$GT$12map_into_ptr17ha6a752797c08ed36E', symObjAddr: 0x0, symBinAddr: 0xA54C, symSize: 0x44 }
  - { offset: 0x6AD02, size: 0x8, addend: 0x0, symName: '__ZN4pyo35impl_4wrap82EmptyTupleConverter$LT$core..result..Result$LT$$LP$$RP$$C$pyo3..err..PyErr$GT$$GT$12map_into_ptr17ha6a752797c08ed36E', symObjAddr: 0x0, symBinAddr: 0xA54C, symSize: 0x44 }
  - { offset: 0x6AD6A, size: 0x8, addend: 0x0, symName: '__ZN106_$LT$core..ops..range..Range$LT$usize$GT$$u20$as$u20$core..slice..index..SliceIndex$LT$$u5b$T$u5d$$GT$$GT$9index_mut17hd213653d588efc29E', symObjAddr: 0x0, symBinAddr: 0xA590, symSize: 0xBC }
  - { offset: 0x6BF53, size: 0x8, addend: 0x0, symName: '__ZN106_$LT$core..ops..range..Range$LT$usize$GT$$u20$as$u20$core..slice..index..SliceIndex$LT$$u5b$T$u5d$$GT$$GT$9index_mut17hd213653d588efc29E', symObjAddr: 0x0, symBinAddr: 0xA590, symSize: 0xBC }
  - { offset: 0x6C004, size: 0x8, addend: 0x0, symName: '__ZN108_$LT$core..ops..range..RangeTo$LT$usize$GT$$u20$as$u20$core..slice..index..SliceIndex$LT$$u5b$T$u5d$$GT$$GT$9index_mut17h587e83719f03febcE', symObjAddr: 0xBC, symBinAddr: 0xA64C, symSize: 0x54 }
  - { offset: 0x6C08B, size: 0x8, addend: 0x0, symName: '__ZN110_$LT$core..ops..range..RangeFrom$LT$usize$GT$$u20$as$u20$core..slice..index..SliceIndex$LT$$u5b$T$u5d$$GT$$GT$5index17hdb350a2a54c035ceE', symObjAddr: 0x110, symBinAddr: 0xA6A0, symSize: 0x70 }
  - { offset: 0x6C896, size: 0x8, addend: 0x0, symName: __ZN4pyo310conversion15IntoPyObjectExt17into_bound_py_any17hce51c88bfc3bdef1E, symObjAddr: 0x0, symBinAddr: 0xA710, symSize: 0xE4 }
  - { offset: 0x6D089, size: 0x8, addend: 0x0, symName: '__ZN50_$LT$T$u20$as$u20$core..convert..Into$LT$U$GT$$GT$4into17hd67cd95a46680715E', symObjAddr: 0x17C, symBinAddr: 0xA88C, symSize: 0x14 }
  - { offset: 0x6E96B, size: 0x8, addend: 0x0, symName: __ZN4pyo310conversion15IntoPyObjectExt17into_bound_py_any17hce51c88bfc3bdef1E, symObjAddr: 0x0, symBinAddr: 0xA710, symSize: 0xE4 }
  - { offset: 0x6EA04, size: 0x8, addend: 0x0, symName: __ZN4pyo311type_object10PyTypeInfo10is_type_of17h37190d25bf9e5d4bE, symObjAddr: 0xE4, symBinAddr: 0xA7F4, symSize: 0x50 }
  - { offset: 0x6EA39, size: 0x8, addend: 0x0, symName: __ZN4pyo311type_object10PyTypeInfo11type_object17hd238b0f69e4bdc74E, symObjAddr: 0x134, symBinAddr: 0xA844, symSize: 0x30 }
  - { offset: 0x6EA7F, size: 0x8, addend: 0x0, symName: '__ZN52_$LT$T$u20$as$u20$pyo3..type_object..PyTypeCheck$GT$10type_check17h32864415236567baE', symObjAddr: 0x190, symBinAddr: 0xA8A0, symSize: 0x24 }
  - { offset: 0x6EAB4, size: 0x8, addend: 0x0, symName: '__ZN52_$LT$T$u20$as$u20$pyo3..type_object..PyTypeCheck$GT$16classinfo_object17h908440a58e06c814E', symObjAddr: 0x1B4, symBinAddr: 0xA8C4, symSize: 0x20 }
  - { offset: 0x6EB05, size: 0x8, addend: 0x0, symName: __ZN4pyo35impl_7pyclass11PyClassImpl11dict_offset17h28cfe5a4f8487b73E, symObjAddr: 0x164, symBinAddr: 0xA874, symSize: 0xC }
  - { offset: 0x6EB2C, size: 0x8, addend: 0x0, symName: __ZN4pyo35impl_7pyclass11PyClassImpl15weaklist_offset17hea979c925b9712e8E, symObjAddr: 0x170, symBinAddr: 0xA880, symSize: 0xC }
  - { offset: 0x6EBBB, size: 0x8, addend: 0x0, symName: '__ZN73_$LT$T$u20$as$u20$pyo3..impl_..pyclass_init..PyClassInit$LT$_$C$_$GT$$GT$4init17hd9d8eb30554d89b1E', symObjAddr: 0x210, symBinAddr: 0xA920, symSize: 0x6C }
  - { offset: 0x6EF97, size: 0x8, addend: 0x0, symName: '__ZN71_$LT$_native..PyNormalizer$u20$as$u20$pyo3..type_object..PyTypeInfo$GT$15type_object_raw28_$u7b$$u7b$closure$u7d$$u7d$17h2c549109c8a5f129E', symObjAddr: 0x1D4, symBinAddr: 0xA8E4, symSize: 0x3C }
  - { offset: 0x6EFFC, size: 0x8, addend: 0x0, symName: '__ZN7_native12PyNormalizer16with_custom_dict28_$u7b$$u7b$closure$u7d$$u7d$17h1c8f2a6c61142c46E', symObjAddr: 0x27C, symBinAddr: 0xA98C, symSize: 0x64 }
  - { offset: 0x6F02F, size: 0x8, addend: 0x0, symName: '__ZN7_native12PyNormalizer16with_custom_dict28_$u7b$$u7b$closure$u7d$$u7d$17h55ede422cb69966aE', symObjAddr: 0x2E0, symBinAddr: 0xA9F0, symSize: 0x64 }
  - { offset: 0x6F062, size: 0x8, addend: 0x0, symName: '__ZN7_native12PyNormalizer16with_custom_dict28_$u7b$$u7b$closure$u7d$$u7d$17hc6f519fc1fc69b10E', symObjAddr: 0x344, symBinAddr: 0xAA54, symSize: 0x68 }
  - { offset: 0x6F0AF, size: 0x8, addend: 0x0, symName: '__ZN7_native12PyNormalizer21load_custom_dict_json28_$u7b$$u7b$closure$u7d$$u7d$17h4f79517444df78a8E', symObjAddr: 0x3AC, symBinAddr: 0xAABC, symSize: 0xCC }
  - { offset: 0x6FE60, size: 0x8, addend: 0x0, symName: '__ZN4core5slice29_$LT$impl$u20$$u5b$T$u5d$$GT$18split_at_unchecked18precondition_check17h7e8fd1653307bd35E', symObjAddr: 0x0, symBinAddr: 0xAB88, symSize: 0x60 }
  - { offset: 0x6FE81, size: 0x8, addend: 0x0, symName: '__ZN4core5slice29_$LT$impl$u20$$u5b$T$u5d$$GT$18split_at_unchecked18precondition_check17h7e8fd1653307bd35E', symObjAddr: 0x0, symBinAddr: 0xAB88, symSize: 0x60 }
  - { offset: 0x6FF2B, size: 0x8, addend: 0x0, symName: '__ZN42_$LT$$RF$T$u20$as$u20$core..fmt..Debug$GT$3fmt17hb335a479c3c435b8E', symObjAddr: 0x0, symBinAddr: 0xABE8, symSize: 0x30 }
  - { offset: 0x70792, size: 0x8, addend: 0x0, symName: '__ZN42_$LT$$RF$T$u20$as$u20$core..fmt..Debug$GT$3fmt17hb335a479c3c435b8E', symObjAddr: 0x0, symBinAddr: 0xABE8, symSize: 0x30 }
  - { offset: 0x70856, size: 0x8, addend: 0x0, symName: '__ZN4core3ptr9const_ptr33_$LT$impl$u20$$BP$const$u20$T$GT$7is_null17h2308c0caaf76a13aE', symObjAddr: 0x30, symBinAddr: 0xAC18, symSize: 0x18 }
  - { offset: 0x70970, size: 0x8, addend: 0x0, symName: '__ZN4core5slice29_$LT$impl$u20$$u5b$T$u5d$$GT$15copy_from_slice17h5fedc07a5402cd22E', symObjAddr: 0x48, symBinAddr: 0xAC30, symSize: 0x34 }
  - { offset: 0x709D9, size: 0x8, addend: 0x0, symName: '__ZN4core5slice29_$LT$impl$u20$$u5b$T$u5d$$GT$18split_at_unchecked17hecd95980b163c84eE', symObjAddr: 0x7C, symBinAddr: 0xAC64, symSize: 0xE8 }
  - { offset: 0x70B1E, size: 0x8, addend: 0x0, symName: '__ZN4core5slice29_$LT$impl$u20$$u5b$T$u5d$$GT$8split_at17h792dfabda7022124E', symObjAddr: 0x164, symBinAddr: 0xAD4C, symSize: 0xAC }
  - { offset: 0x71D1A, size: 0x8, addend: 0x0, symName: '__ZN66_$LT$core..option..Option$LT$T$GT$$u20$as$u20$core..fmt..Debug$GT$3fmt17h9b74185b9625a22fE', symObjAddr: 0x594, symBinAddr: 0xB17C, symSize: 0x98 }
  - { offset: 0x71D7E, size: 0x8, addend: 0x0, symName: '__ZN66_$LT$core..option..Option$LT$T$GT$$u20$as$u20$core..fmt..Debug$GT$3fmt17he2352d5d5def77d9E', symObjAddr: 0x62C, symBinAddr: 0xB214, symSize: 0x9C }
  - { offset: 0x71DE8, size: 0x8, addend: 0x0, symName: '__ZN68_$LT$core..option..Option$LT$T$GT$$u20$as$u20$core..clone..Clone$GT$5clone17h5526d048b5251d0dE', symObjAddr: 0x6C8, symBinAddr: 0xB2B0, symSize: 0x78 }
  - { offset: 0x71E3D, size: 0x8, addend: 0x0, symName: '__ZN68_$LT$core..option..Option$LT$T$GT$$u20$as$u20$core..clone..Clone$GT$5clone17h8a10ac3a5828619bE', symObjAddr: 0x740, symBinAddr: 0xB328, symSize: 0x5C }
  - { offset: 0x71EB0, size: 0x8, addend: 0x0, symName: '__ZN68_$LT$core..option..Option$LT$T$GT$$u20$as$u20$core..clone..Clone$GT$5clone17ha7cf46339f5cff8aE', symObjAddr: 0x79C, symBinAddr: 0xB384, symSize: 0x74 }
  - { offset: 0x72D24, size: 0x8, addend: 0x0, symName: '__ZN4core6option15Option$LT$T$GT$3map17h5816fcb93decaf98E', symObjAddr: 0x210, symBinAddr: 0xADF8, symSize: 0x50 }
  - { offset: 0x72D9C, size: 0x8, addend: 0x0, symName: '__ZN4core6option15Option$LT$T$GT$3map17h7269c2d92ef9f3e9E', symObjAddr: 0x260, symBinAddr: 0xAE48, symSize: 0x50 }
  - { offset: 0x72E14, size: 0x8, addend: 0x0, symName: '__ZN4core6option15Option$LT$T$GT$3map17hc8e84ea8457b1e1eE', symObjAddr: 0x2B0, symBinAddr: 0xAE98, symSize: 0x5C }
  - { offset: 0x7363D, size: 0x8, addend: 0x0, symName: '__ZN4core6option15Option$LT$T$GT$6insert17h11c88d317cab8dfdE', symObjAddr: 0x30C, symBinAddr: 0xAEF4, symSize: 0xA8 }
  - { offset: 0x73743, size: 0x8, addend: 0x0, symName: '__ZN4core6option15Option$LT$T$GT$6insert17haa75b93fa6d6f730E', symObjAddr: 0x3B4, symBinAddr: 0xAF9C, symSize: 0x7C }
  - { offset: 0x73849, size: 0x8, addend: 0x0, symName: '__ZN4core6option15Option$LT$T$GT$6insert17hfd6451cb144c2df8E', symObjAddr: 0x430, symBinAddr: 0xB018, symSize: 0xA8 }
  - { offset: 0x738EC, size: 0x8, addend: 0x0, symName: '__ZN4core6option15Option$LT$T$GT$7is_some17hbd7c5d336ce67d58E', symObjAddr: 0x4D8, symBinAddr: 0xB0C0, symSize: 0x28 }
  - { offset: 0x73925, size: 0x8, addend: 0x0, symName: '__ZN4core6option15Option$LT$T$GT$7replace17h332c8795a5b8758eE', symObjAddr: 0x500, symBinAddr: 0xB0E8, symSize: 0x28 }
  - { offset: 0x73A38, size: 0x8, addend: 0x0, symName: '__ZN4core6option15Option$LT$T$GT$8as_deref17hca9f21b88df9981dE', symObjAddr: 0x528, symBinAddr: 0xB110, symSize: 0x6C }
  - { offset: 0x73BBA, size: 0x8, addend: 0x0, symName: __ZN4core4iter6traits8iterator8Iterator3zip17h5780e4b5109607d1E, symObjAddr: 0x0, symBinAddr: 0xB3F8, symSize: 0xB4 }
  - { offset: 0x744B1, size: 0x8, addend: 0x0, symName: __ZN4core4iter6traits8iterator8Iterator3zip17h5780e4b5109607d1E, symObjAddr: 0x0, symBinAddr: 0xB3F8, symSize: 0xB4 }
  - { offset: 0x74527, size: 0x8, addend: 0x0, symName: __ZN4core4iter6traits8iterator8Iterator4take17hcff316797bab6a74E, symObjAddr: 0xB4, symBinAddr: 0xB4AC, symSize: 0x24 }
  - { offset: 0x7566A, size: 0x8, addend: 0x0, symName: '__ZN102_$LT$core..iter..adapters..zip..Zip$LT$A$C$B$GT$$u20$as$u20$core..iter..traits..iterator..Iterator$GT$4next17ha19e83d5f346cf94E', symObjAddr: 0x0, symBinAddr: 0xB4D0, symSize: 0x24 }
  - { offset: 0x75E67, size: 0x8, addend: 0x0, symName: '__ZN102_$LT$core..iter..adapters..zip..Zip$LT$A$C$B$GT$$u20$as$u20$core..iter..traits..iterator..Iterator$GT$4next17ha19e83d5f346cf94E', symObjAddr: 0x0, symBinAddr: 0xB4D0, symSize: 0x24 }
  - { offset: 0x75EAB, size: 0x8, addend: 0x0, symName: '__ZN111_$LT$core..iter..adapters..zip..Zip$LT$A$C$B$GT$$u20$as$u20$core..iter..adapters..zip..ZipImpl$LT$A$C$B$GT$$GT$3new17h42e07c748f6ec16eE', symObjAddr: 0x24, symBinAddr: 0xB4F4, symSize: 0x3C }
  - { offset: 0x75EF7, size: 0x8, addend: 0x0, symName: '__ZN111_$LT$core..iter..adapters..zip..Zip$LT$A$C$B$GT$$u20$as$u20$core..iter..adapters..zip..ZipImpl$LT$A$C$B$GT$$GT$4next17hf7681e2019ae52e6E', symObjAddr: 0x60, symBinAddr: 0xB530, symSize: 0xE0 }
  - { offset: 0x76124, size: 0x8, addend: 0x0, symName: '__ZN63_$LT$I$u20$as$u20$core..iter..traits..collect..IntoIterator$GT$9into_iter17h11556c3fee128de0E', symObjAddr: 0x140, symBinAddr: 0xB610, symSize: 0x30 }
  - { offset: 0x7615C, size: 0x8, addend: 0x0, symName: '__ZN63_$LT$I$u20$as$u20$core..iter..traits..collect..IntoIterator$GT$9into_iter17h9d422332b79dfdb0E', symObjAddr: 0x170, symBinAddr: 0xB640, symSize: 0x30 }
  - { offset: 0x775E1, size: 0x8, addend: 0x0, symName: '__ZN119_$LT$pyo3..pyclass_init..PyClassInitializer$LT$T$GT$$u20$as$u20$pyo3..impl_..pyclass_init..PyClassInit$LT$_$C$_$GT$$GT$4init17hb368833065b55b83E', symObjAddr: 0x0, symBinAddr: 0xB670, symSize: 0xEC }
  - { offset: 0x796F0, size: 0x8, addend: 0x0, symName: '__ZN119_$LT$pyo3..pyclass_init..PyClassInitializer$LT$T$GT$$u20$as$u20$pyo3..impl_..pyclass_init..PyClassInit$LT$_$C$_$GT$$GT$4init17hb368833065b55b83E', symObjAddr: 0x0, symBinAddr: 0xB670, symSize: 0xEC }
  - { offset: 0x79831, size: 0x8, addend: 0x0, symName: '__ZN96_$LT$pyo3..pyclass_init..PyClassInitializer$LT$T$GT$$u20$as$u20$core..convert..From$LT$T$GT$$GT$4from17ha7eae1c648fcb7ecE', symObjAddr: 0x3E0, symBinAddr: 0xBA50, symSize: 0x50 }
  - { offset: 0x7A504, size: 0x8, addend: 0x0, symName: '__ZN4pyo312pyclass_init27PyClassInitializer$LT$T$GT$19create_class_object17h5871497ea9680156E', symObjAddr: 0xEC, symBinAddr: 0xB75C, symSize: 0xA0 }
  - { offset: 0x7A5C7, size: 0x8, addend: 0x0, symName: '__ZN4pyo312pyclass_init27PyClassInitializer$LT$T$GT$27create_class_object_of_type17h23fbeb2cfd814fadE', symObjAddr: 0x18C, symBinAddr: 0xB7FC, symSize: 0x224 }
  - { offset: 0x7A711, size: 0x8, addend: 0x0, symName: '__ZN4pyo312pyclass_init27PyClassInitializer$LT$T$GT$3new17h574744dcc24ae101E', symObjAddr: 0x3B0, symBinAddr: 0xBA20, symSize: 0x30 }
  - { offset: 0x7A783, size: 0x8, addend: 0x0, symName: '__ZN64_$LT$jpnorm_core..config..Config$u20$as$u20$core..fmt..Debug$GT$3fmt17h36ae336c62ca3d62E', symObjAddr: 0x0, symBinAddr: 0xBAA0, symSize: 0x250 }
  - { offset: 0x7AA1C, size: 0x8, addend: 0x0, symName: '__ZN64_$LT$jpnorm_core..config..Config$u20$as$u20$core..fmt..Debug$GT$3fmt17h36ae336c62ca3d62E', symObjAddr: 0x0, symBinAddr: 0xBAA0, symSize: 0x250 }
  - { offset: 0x7AA96, size: 0x8, addend: 0x0, symName: '__ZN66_$LT$jpnorm_core..config..Config$u20$as$u20$core..clone..Clone$GT$5clone17h2724cf13f6b1048dE', symObjAddr: 0x250, symBinAddr: 0xBCF0, symSize: 0x220 }
  - { offset: 0x7AD4C, size: 0x8, addend: 0x0, symName: '__ZN103_$LT$pyo3..instance..Bound$LT$pyo3..types..any..PyAny$GT$$u20$as$u20$pyo3..types..any..PyAnyMethods$GT$7extract17h619fd7e107a63b67E', symObjAddr: 0x0, symBinAddr: 0xBF10, symSize: 0x30 }
  - { offset: 0x7B53F, size: 0x8, addend: 0x0, symName: '__ZN4core5slice29_$LT$impl$u20$$u5b$T$u5d$$GT$4iter17hcc928eea41850277E', symObjAddr: 0x674, symBinAddr: 0xC584, symSize: 0x28 }
  - { offset: 0x7CF3C, size: 0x8, addend: 0x0, symName: '__ZN103_$LT$pyo3..instance..Bound$LT$pyo3..types..any..PyAny$GT$$u20$as$u20$pyo3..types..any..PyAnyMethods$GT$7extract17h619fd7e107a63b67E', symObjAddr: 0x0, symBinAddr: 0xBF10, symSize: 0x30 }
  - { offset: 0x7CF94, size: 0x8, addend: 0x0, symName: '__ZN115_$LT$pyo3..instance..Bound$LT$pyo3..types..module..PyModule$GT$$u20$as$u20$pyo3..types..module..PyModuleMethods$GT$3add17h24ef423f519b1cfbE', symObjAddr: 0xD0, symBinAddr: 0xBFE0, symSize: 0x278 }
  - { offset: 0x7D061, size: 0x8, addend: 0x0, symName: '__ZN115_$LT$pyo3..instance..Bound$LT$pyo3..types..module..PyModule$GT$$u20$as$u20$pyo3..types..module..PyModuleMethods$GT$3add17he5dcb6b1977d1969E', symObjAddr: 0x348, symBinAddr: 0xC258, symSize: 0x25C }
  - { offset: 0x7D12E, size: 0x8, addend: 0x0, symName: '__ZN115_$LT$pyo3..instance..Bound$LT$pyo3..types..module..PyModule$GT$$u20$as$u20$pyo3..types..module..PyModuleMethods$GT$9add_class17h534ed5b9a46af213E', symObjAddr: 0x5A4, symBinAddr: 0xC4B4, symSize: 0xD0 }
  - { offset: 0x7D252, size: 0x8, addend: 0x0, symName: '__ZN113_$LT$$RF$pyo3..instance..Bound$LT$T$GT$$u20$as$u20$pyo3..impl_..extract_argument..PyFunctionArgument$LT$_$GT$$GT$7extract17h656148252848800cE', symObjAddr: 0x30, symBinAddr: 0xBF40, symSize: 0xA0 }
  - { offset: 0x7D2BE, size: 0x8, addend: 0x0, symName: '__ZN4pyo35impl_9pymethods133_$LT$impl$u20$core..convert..From$LT$pyo3..impl_..pymethods..BoundRef$LT$T$GT$$GT$$u20$for$u20$$RF$pyo3..instance..Bound$LT$T$GT$$GT$4from17h72cdd080ad3b0de3E', symObjAddr: 0x6E4, symBinAddr: 0xC5F4, symSize: 0x14 }
  - { offset: 0x7D336, size: 0x8, addend: 0x0, symName: __ZN4pyo310conversion15IntoPyObjectExt22into_pyobject_or_pyerr17hac416b66b935b35dE, symObjAddr: 0x69C, symBinAddr: 0xC5AC, symSize: 0x48 }
  - { offset: 0x7D8DB, size: 0x8, addend: 0x0, symName: '__ZN4pyo38instance17Borrowed$LT$T$GT$4cast5inner17h21828ad295a2333dE', symObjAddr: 0xA20, symBinAddr: 0xC930, symSize: 0x7C }
  - { offset: 0x7D912, size: 0x8, addend: 0x0, symName: '__ZN4pyo38instance17Borrowed$LT$T$GT$4cast5inner17h597c1a3ddecf604dE', symObjAddr: 0xA9C, symBinAddr: 0xC9AC, symSize: 0x7C }
  - { offset: 0x7D949, size: 0x8, addend: 0x0, symName: '__ZN4pyo38instance17Borrowed$LT$T$GT$4cast5inner17h9f9abfae91b9cc28E', symObjAddr: 0xB18, symBinAddr: 0xCA28, symSize: 0x7C }
  - { offset: 0x7DA0B, size: 0x8, addend: 0x0, symName: '__ZN4pyo38instance39Borrowed$LT$pyo3..types..any..PyAny$GT$15from_ptr_or_opt28_$u7b$$u7b$closure$u7d$$u7d$17h8d1708d1f235a586E', symObjAddr: 0xBCC, symBinAddr: 0xCADC, symSize: 0x30 }
  - { offset: 0x7DA6E, size: 0x8, addend: 0x0, symName: '__ZN74_$LT$pyo3..instance..Bound$LT$T$GT$$u20$as$u20$core..ops..deref..Deref$GT$5deref17h840bc28f6b7787eaE', symObjAddr: 0xBFC, symBinAddr: 0xCB0C, symSize: 0x24 }
  - { offset: 0x7DAAB, size: 0x8, addend: 0x0, symName: '__ZN87_$LT$pyo3..instance..Bound$LT$T$GT$$u20$as$u20$pyo3..instance..BoundObject$LT$T$GT$$GT$8into_any17he4c8cf201c2108fbE', symObjAddr: 0xC20, symBinAddr: 0xCB30, symSize: 0x24 }
  - { offset: 0x7DAE2, size: 0x8, addend: 0x0, symName: '__ZN87_$LT$pyo3..instance..Bound$LT$T$GT$$u20$as$u20$pyo3..instance..BoundObject$LT$T$GT$$GT$8into_ptr17hc2cebe322183b9d4E', symObjAddr: 0xC44, symBinAddr: 0xCB54, symSize: 0x24 }
  - { offset: 0x7E26D, size: 0x8, addend: 0x0, symName: '__ZN4pyo38instance11Py$LT$T$GT$6as_ptr17hec0ec6ac153a7b89E', symObjAddr: 0x6F8, symBinAddr: 0xC608, symSize: 0x1C }
  - { offset: 0x7EAEC, size: 0x8, addend: 0x0, symName: '__ZN4pyo38instance11Py$LT$T$GT$8into_any17h3237568f538b4063E', symObjAddr: 0x714, symBinAddr: 0xC624, symSize: 0x30 }
  - { offset: 0x7EB32, size: 0x8, addend: 0x0, symName: '__ZN4pyo38instance14Bound$LT$T$GT$19cast_into_unchecked17h34e56aeac3ee7f57E', symObjAddr: 0x744, symBinAddr: 0xC654, symSize: 0x14 }
  - { offset: 0x7EC1B, size: 0x8, addend: 0x0, symName: '__ZN4pyo38instance14Bound$LT$T$GT$3new17h84eba89829ac5ceeE', symObjAddr: 0x758, symBinAddr: 0xC668, symSize: 0x60 }
  - { offset: 0x7ECBB, size: 0x8, addend: 0x0, symName: '__ZN4pyo38instance14Bound$LT$T$GT$6as_any17hda61ae71d2cc067aE', symObjAddr: 0x7B8, symBinAddr: 0xC6C8, symSize: 0x38 }
  - { offset: 0x7ED30, size: 0x8, addend: 0x0, symName: '__ZN4pyo38instance14Bound$LT$T$GT$6as_ptr17he2c3b7f67308e2baE', symObjAddr: 0x7F0, symBinAddr: 0xC700, symSize: 0x2C }
  - { offset: 0x7ED5C, size: 0x8, addend: 0x0, symName: '__ZN4pyo38instance14Bound$LT$T$GT$6unbind17h3ba4ea2062c0b738E', symObjAddr: 0x81C, symBinAddr: 0xC72C, symSize: 0x3C }
  - { offset: 0x7ED88, size: 0x8, addend: 0x0, symName: '__ZN4pyo38instance14Bound$LT$T$GT$8into_any17h0540dc94c52cdd79E', symObjAddr: 0x858, symBinAddr: 0xC768, symSize: 0x30 }
  - { offset: 0x7EDB4, size: 0x8, addend: 0x0, symName: '__ZN4pyo38instance14Bound$LT$T$GT$8into_ptr17h0adff00095bb3471E', symObjAddr: 0x888, symBinAddr: 0xC798, symSize: 0x40 }
  - { offset: 0x7EDE0, size: 0x8, addend: 0x0, symName: '__ZN4pyo38instance14Bound$LT$T$GT$8into_ptr17h6292d5ce95d03f0fE', symObjAddr: 0x8C8, symBinAddr: 0xC7D8, symSize: 0x40 }
  - { offset: 0x7EE26, size: 0x8, addend: 0x0, symName: '__ZN4pyo38instance17Borrowed$LT$T$GT$14cast_unchecked17h05a06ce925b0ad29E', symObjAddr: 0x908, symBinAddr: 0xC818, symSize: 0x14 }
  - { offset: 0x7EE68, size: 0x8, addend: 0x0, symName: '__ZN4pyo38instance17Borrowed$LT$T$GT$16get_class_object17he42cda23f206f708E', symObjAddr: 0x91C, symBinAddr: 0xC82C, symSize: 0x74 }
  - { offset: 0x7EEA1, size: 0x8, addend: 0x0, symName: '__ZN4pyo38instance17Borrowed$LT$T$GT$4cast17h06a3e2c6e6b7e86aE', symObjAddr: 0x990, symBinAddr: 0xC8A0, symSize: 0x30 }
  - { offset: 0x7EEE3, size: 0x8, addend: 0x0, symName: '__ZN4pyo38instance17Borrowed$LT$T$GT$4cast17h14757540a2dd3805E', symObjAddr: 0x9C0, symBinAddr: 0xC8D0, symSize: 0x30 }
  - { offset: 0x7EF18, size: 0x8, addend: 0x0, symName: '__ZN4pyo38instance17Borrowed$LT$T$GT$4cast17h82e38c226a3f8a0cE', symObjAddr: 0x9F0, symBinAddr: 0xC900, symSize: 0x30 }
  - { offset: 0x7EF4D, size: 0x8, addend: 0x0, symName: '__ZN4pyo38instance17Borrowed$LT$T$GT$6as_ptr17h72e19c4c56e1c8d2E', symObjAddr: 0xB94, symBinAddr: 0xCAA4, symSize: 0x1C }
  - { offset: 0x7EF86, size: 0x8, addend: 0x0, symName: '__ZN4pyo38instance17Borrowed$LT$T$GT$6as_ptr17h919352e6fac71f69E', symObjAddr: 0xBB0, symBinAddr: 0xCAC0, symSize: 0x1C }
  - { offset: 0x7F052, size: 0x8, addend: 0x0, symName: '__ZN100_$LT$pyo3..pycell..impl_..MutableClass$u20$as$u20$pyo3..pycell..impl_..GetBorrowChecker$LT$T$GT$$GT$14borrow_checker17h711de7d98e022480E', symObjAddr: 0x0, symBinAddr: 0xCB78, symSize: 0x28 }
  - { offset: 0x80805, size: 0x8, addend: 0x0, symName: '__ZN100_$LT$pyo3..pycell..impl_..MutableClass$u20$as$u20$pyo3..pycell..impl_..GetBorrowChecker$LT$T$GT$$GT$14borrow_checker17h711de7d98e022480E', symObjAddr: 0x0, symBinAddr: 0xCB78, symSize: 0x28 }
  - { offset: 0x80840, size: 0x8, addend: 0x0, symName: '__ZN119_$LT$pyo3..pycell..impl_..PyStaticClassObject$LT$T$GT$$u20$as$u20$pyo3..pycell..impl_..PyClassObjectLayout$LT$T$GT$$GT$12contents_mut17h898ba0911baccbdfE', symObjAddr: 0x28, symBinAddr: 0xCBA0, symSize: 0x14 }
  - { offset: 0x80877, size: 0x8, addend: 0x0, symName: '__ZN119_$LT$pyo3..pycell..impl_..PyStaticClassObject$LT$T$GT$$u20$as$u20$pyo3..pycell..impl_..PyClassObjectLayout$LT$T$GT$$GT$14borrow_checker17h745da3b5553c015cE', symObjAddr: 0x3C, symBinAddr: 0xCBB4, symSize: 0x24 }
  - { offset: 0x808AE, size: 0x8, addend: 0x0, symName: '__ZN119_$LT$pyo3..pycell..impl_..PyStaticClassObject$LT$T$GT$$u20$as$u20$pyo3..pycell..impl_..PyClassObjectLayout$LT$T$GT$$GT$15contents_uninit17hb67d8219022c236dE', symObjAddr: 0x60, symBinAddr: 0xCBD8, symSize: 0x1C }
  - { offset: 0x80903, size: 0x8, addend: 0x0, symName: '__ZN119_$LT$pyo3..pycell..impl_..PyStaticClassObject$LT$T$GT$$u20$as$u20$pyo3..pycell..impl_..PyClassObjectLayout$LT$T$GT$$GT$7get_ptr17he6636c6efcf47e66E', symObjAddr: 0x7C, symBinAddr: 0xCBF4, symSize: 0x24 }
  - { offset: 0x8093A, size: 0x8, addend: 0x0, symName: '__ZN119_$LT$pyo3..pycell..impl_..PyStaticClassObject$LT$T$GT$$u20$as$u20$pyo3..pycell..impl_..PyClassObjectLayout$LT$T$GT$$GT$8contents17hf08fca3c1905c16bE', symObjAddr: 0xA0, symBinAddr: 0xCC18, symSize: 0x14 }
  - { offset: 0x809A8, size: 0x8, addend: 0x0, symName: '__ZN121_$LT$pyo3..pycell..impl_..PyClassObjectBase$LT$U$GT$$u20$as$u20$pyo3..pycell..impl_..PyClassObjectBaseLayout$LT$T$GT$$GT$10tp_dealloc17h750df25c771a3442E', symObjAddr: 0xB4, symBinAddr: 0xCC2C, symSize: 0x6C }
  - { offset: 0x809FB, size: 0x8, addend: 0x0, symName: '__ZN121_$LT$pyo3..pycell..impl_..PyClassObjectBase$LT$U$GT$$u20$as$u20$pyo3..pycell..impl_..PyClassObjectBaseLayout$LT$T$GT$$GT$17ensure_threadsafe17ha2db3df0874ff1bcE', symObjAddr: 0x120, symBinAddr: 0xCC98, symSize: 0x10 }
  - { offset: 0x80A3B, size: 0x8, addend: 0x0, symName: '__ZN123_$LT$pyo3..pycell..impl_..PyStaticClassObject$LT$T$GT$$u20$as$u20$pyo3..pycell..impl_..PyClassObjectBaseLayout$LT$T$GT$$GT$10tp_dealloc17h7a6e677391ab62adE', symObjAddr: 0x130, symBinAddr: 0xCCA8, symSize: 0x84 }
  - { offset: 0x80AA7, size: 0x8, addend: 0x0, symName: '__ZN123_$LT$pyo3..pycell..impl_..PyStaticClassObject$LT$T$GT$$u20$as$u20$pyo3..pycell..impl_..PyClassObjectBaseLayout$LT$T$GT$$GT$17ensure_threadsafe17hab77837c18894c5bE', symObjAddr: 0x1B4, symBinAddr: 0xCD2C, symSize: 0x30 }
  - { offset: 0x81479, size: 0x8, addend: 0x0, symName: '__ZN4pyo36pycell5impl_30PyClassObjectContents$LT$T$GT$3new17h33a1abd618156934E', symObjAddr: 0x1E4, symBinAddr: 0xCD5C, symSize: 0xCC }
  - { offset: 0x81962, size: 0x8, addend: 0x0, symName: '__ZN4pyo36pycell5impl_30PyClassObjectContents$LT$T$GT$7dealloc17hd56ac86de85c6309E', symObjAddr: 0x2B0, symBinAddr: 0xCE28, symSize: 0x60 }
  - { offset: 0x81A3E, size: 0x8, addend: 0x0, symName: __ZN4core4iter6traits8iterator8Iterator6copied17h95a7dea48c9e59d9E, symObjAddr: 0x0, symBinAddr: 0xCE88, symSize: 0x1C }
  - { offset: 0x8223B, size: 0x8, addend: 0x0, symName: __ZN4core4iter6traits8iterator8Iterator6copied17h95a7dea48c9e59d9E, symObjAddr: 0x0, symBinAddr: 0xCE88, symSize: 0x1C }
  - { offset: 0x83137, size: 0x8, addend: 0x0, symName: '__ZN91_$LT$core..slice..iter..Iter$LT$T$GT$$u20$as$u20$core..iter..traits..iterator..Iterator$GT$4next17h75198316443a0105E', symObjAddr: 0x6C, symBinAddr: 0xCEF4, symSize: 0x84 }
  - { offset: 0x8323C, size: 0x8, addend: 0x0, symName: '__ZN91_$LT$core..slice..iter..Iter$LT$T$GT$$u20$as$u20$core..iter..traits..iterator..Iterator$GT$8position17hace4763ee8945823E', symObjAddr: 0xF0, symBinAddr: 0xCF78, symSize: 0x1D0 }
  - { offset: 0x83499, size: 0x8, addend: 0x0, symName: '__ZN91_$LT$core..slice..iter..Iter$LT$T$GT$$u20$as$u20$core..iter..traits..iterator..Iterator$GT$8position17hfda3bb3856c035ffE', symObjAddr: 0x2C0, symBinAddr: 0xD148, symSize: 0x1D0 }
  - { offset: 0x83EFA, size: 0x8, addend: 0x0, symName: '__ZN4core5slice4iter13Iter$LT$T$GT$3new17h6d56bc03b57a4e1aE', symObjAddr: 0x1C, symBinAddr: 0xCEA4, symSize: 0x50 }
  - { offset: 0x841BF, size: 0x8, addend: 0x0, symName: '__ZN4core3str6traits54_$LT$impl$u20$core..cmp..PartialEq$u20$for$u20$str$GT$2eq17h6143ca0c7a533427E', symObjAddr: 0x0, symBinAddr: 0xD318, symSize: 0x4C }
  - { offset: 0x84204, size: 0x8, addend: 0x0, symName: '__ZN4core3str6traits54_$LT$impl$u20$core..cmp..PartialEq$u20$for$u20$str$GT$2eq17h6143ca0c7a533427E', symObjAddr: 0x0, symBinAddr: 0xD318, symSize: 0x4C }
  - { offset: 0x843D5, size: 0x8, addend: 0x0, symName: '__ZN4core3mem13manually_drop21ManuallyDrop$LT$T$GT$4drop17h25867e71dd364231E', symObjAddr: 0x0, symBinAddr: 0xD364, symSize: 0x20 }
  - { offset: 0x8513D, size: 0x8, addend: 0x0, symName: '__ZN4core3mem13manually_drop21ManuallyDrop$LT$T$GT$4drop17h25867e71dd364231E', symObjAddr: 0x0, symBinAddr: 0xD364, symSize: 0x20 }
  - { offset: 0x85187, size: 0x8, addend: 0x0, symName: __ZN4pyo38internal5state11AttachGuard6python17hc3815a4b7d4af4ecE, symObjAddr: 0x0, symBinAddr: 0xD384, symSize: 0x20 }
  - { offset: 0x8523D, size: 0x8, addend: 0x0, symName: __ZN4pyo38internal5state11AttachGuard6python17hc3815a4b7d4af4ecE, symObjAddr: 0x0, symBinAddr: 0xD384, symSize: 0x20 }
  - { offset: 0x8527D, size: 0x8, addend: 0x0, symName: __ZN4pyo35impl_10trampoline32fastcall_cfunction_with_keywords5inner17h0e36c8681f982424E, symObjAddr: 0x0, symBinAddr: 0xD3A4, symSize: 0x5C }
  - { offset: 0x86681, size: 0x8, addend: 0x0, symName: __ZN4pyo35impl_10trampoline32fastcall_cfunction_with_keywords5inner17h0e36c8681f982424E, symObjAddr: 0x0, symBinAddr: 0xD3A4, symSize: 0x5C }
  - { offset: 0x86F71, size: 0x8, addend: 0x0, symName: '__ZN4pyo35impl_10trampoline8reprfunc5inner28_$u7b$$u7b$closure$u7d$$u7d$17hf96530462e63d4c2E', symObjAddr: 0x0, symBinAddr: 0xD400, symSize: 0x34 }
  - { offset: 0x8837A, size: 0x8, addend: 0x0, symName: '__ZN4pyo35impl_10trampoline8reprfunc5inner28_$u7b$$u7b$closure$u7d$$u7d$17hf96530462e63d4c2E', symObjAddr: 0x0, symBinAddr: 0xD400, symSize: 0x34 }
  - { offset: 0x88C51, size: 0x8, addend: 0x0, symName: '__ZN42_$LT$$RF$T$u20$as$u20$core..fmt..Debug$GT$3fmt17h94d9631413dc641eE', symObjAddr: 0x0, symBinAddr: 0xD434, symSize: 0x30 }
  - { offset: 0x88C6D, size: 0x8, addend: 0x0, symName: '__ZN42_$LT$$RF$T$u20$as$u20$core..fmt..Debug$GT$3fmt17h94d9631413dc641eE', symObjAddr: 0x0, symBinAddr: 0xD434, symSize: 0x30 }
  - { offset: 0x8913E, size: 0x8, addend: 0x0, symName: '__ZN111_$LT$T$u20$as$u20$pyo3..impl_..callback..IntoPyCallbackOutput$LT$$BP$mut$u20$pyo3_ffi..object..PyObject$GT$$GT$7convert17h716f43f519a2bcdfE', symObjAddr: 0x0, symBinAddr: 0xD464, symSize: 0x44 }
  - { offset: 0x8A5B7, size: 0x8, addend: 0x0, symName: '__ZN111_$LT$T$u20$as$u20$pyo3..impl_..callback..IntoPyCallbackOutput$LT$$BP$mut$u20$pyo3_ffi..object..PyObject$GT$$GT$7convert17h716f43f519a2bcdfE', symObjAddr: 0x0, symBinAddr: 0xD464, symSize: 0x44 }
  - { offset: 0x8C969, size: 0x8, addend: 0x0, symName: '__ZN44_$LT$$RF$T$u20$as$u20$core..fmt..Display$GT$3fmt17h32a2a9c3f1fc31ddE', symObjAddr: 0x6B98, symBinAddr: 0xF008, symSize: 0x30 }
  - { offset: 0x8C9AF, size: 0x8, addend: 0x0, symName: '__ZN44_$LT$$RF$T$u20$as$u20$core..fmt..Display$GT$3fmt17h6bf0d9c3b9fbc875E', symObjAddr: 0x6BC8, symBinAddr: 0xF038, symSize: 0x30 }
  - { offset: 0x8CB3D, size: 0x8, addend: 0x0, symName: '__ZN4core5array4iter94_$LT$impl$u20$core..iter..traits..collect..IntoIterator$u20$for$u20$$u5b$T$u3b$$u20$N$u5d$$GT$9into_iter17hd6939c891994276cE', symObjAddr: 0x6CA0, symBinAddr: 0xF0C8, symSize: 0x68 }
  - { offset: 0x8F4E9, size: 0x8, addend: 0x0, symName: '__ZN50_$LT$T$u20$as$u20$core..convert..Into$LT$U$GT$$GT$4into17h067486f0c120e008E', symObjAddr: 0xE390, symBinAddr: 0x11AFC, symSize: 0x24 }
  - { offset: 0x8F529, size: 0x8, addend: 0x0, symName: '__ZN50_$LT$T$u20$as$u20$core..convert..Into$LT$U$GT$$GT$4into17h9142943a52942acbE', symObjAddr: 0xE3D8, symBinAddr: 0x11B20, symSize: 0x24 }
  - { offset: 0x8F569, size: 0x8, addend: 0x0, symName: '__ZN50_$LT$T$u20$as$u20$core..convert..Into$LT$U$GT$$GT$4into17hd8fb99652eebe642E', symObjAddr: 0xE420, symBinAddr: 0x11B44, symSize: 0x24 }
  - { offset: 0x8F5D1, size: 0x8, addend: 0x0, symName: '__ZN103_$LT$pyo3..instance..Bound$LT$pyo3..types..any..PyAny$GT$$u20$as$u20$pyo3..types..any..PyAnyMethods$GT$2is17hdaa91d0f251fa6ddE', symObjAddr: 0x1A8, symBinAddr: 0xD4BC, symSize: 0xA4 }
  - { offset: 0x8F63D, size: 0x8, addend: 0x0, symName: '__ZN103_$LT$pyo3..instance..Bound$LT$pyo3..types..any..PyAny$GT$$u20$as$u20$pyo3..types..any..PyAnyMethods$GT$3str17h589190e5ffb86aa0E', symObjAddr: 0xBCC, symBinAddr: 0xD560, symSize: 0x5C }
  - { offset: 0x8F66B, size: 0x8, addend: 0x0, symName: '__ZN103_$LT$pyo3..instance..Bound$LT$pyo3..types..any..PyAny$GT$$u20$as$u20$pyo3..types..any..PyAnyMethods$GT$4repr17h7c2a3180fe0c26e2E', symObjAddr: 0x10A8, symBinAddr: 0xD5BC, symSize: 0x5C }
  - { offset: 0x8F699, size: 0x8, addend: 0x0, symName: '__ZN103_$LT$pyo3..instance..Bound$LT$pyo3..types..any..PyAny$GT$$u20$as$u20$pyo3..types..any..PyAnyMethods$GT$5call017hc6e8045bda6161feE', symObjAddr: 0x1104, symBinAddr: 0xD618, symSize: 0x4C }
  - { offset: 0x8F6C7, size: 0x8, addend: 0x0, symName: '__ZN103_$LT$pyo3..instance..Bound$LT$pyo3..types..any..PyAny$GT$$u20$as$u20$pyo3..types..any..PyAnyMethods$GT$7getattr17h50e42225a9e02606E', symObjAddr: 0x1538, symBinAddr: 0xD664, symSize: 0x148 }
  - { offset: 0x8F74D, size: 0x8, addend: 0x0, symName: '__ZN103_$LT$pyo3..instance..Bound$LT$pyo3..types..any..PyAny$GT$$u20$as$u20$pyo3..types..any..PyAnyMethods$GT$7is_none17hf1b9753ad4cb89ceE', symObjAddr: 0x1930, symBinAddr: 0xD7AC, symSize: 0x4C }
  - { offset: 0x8F7A1, size: 0x8, addend: 0x0, symName: '__ZN103_$LT$pyo3..instance..Bound$LT$pyo3..types..any..PyAny$GT$$u20$as$u20$pyo3..types..any..PyAnyMethods$GT$7setattr17h947aa6bcb9088ee1E', symObjAddr: 0x197C, symBinAddr: 0xD7F8, symSize: 0x234 }
  - { offset: 0x8F86E, size: 0x8, addend: 0x0, symName: '__ZN103_$LT$pyo3..instance..Bound$LT$pyo3..types..any..PyAny$GT$$u20$as$u20$pyo3..types..any..PyAnyMethods$GT$7setattr17ha07209908a245edcE', symObjAddr: 0x1BB0, symBinAddr: 0xDA2C, symSize: 0x234 }
  - { offset: 0x8F93B, size: 0x8, addend: 0x0, symName: '__ZN103_$LT$pyo3..instance..Bound$LT$pyo3..types..any..PyAny$GT$$u20$as$u20$pyo3..types..any..PyAnyMethods$GT$8get_type17he409c76b7e6ae4b8E', symObjAddr: 0x2090, symBinAddr: 0xDC60, symSize: 0x38 }
  - { offset: 0x8F9C0, size: 0x8, addend: 0x0, symName: '__ZN107_$LT$pyo3..instance..Bound$LT$pyo3..types..dict..PyDict$GT$$u20$as$u20$pyo3..types..dict..PyDictMethods$GT$4iter17h120be82608b6760cE', symObjAddr: 0x2958, symBinAddr: 0xDCE0, symSize: 0x30 }
  - { offset: 0x8FAA8, size: 0x8, addend: 0x0, symName: '__ZN107_$LT$pyo3..instance..Bound$LT$pyo3..types..list..PyList$GT$$u20$as$u20$pyo3..types..list..PyListMethods$GT$18get_item_unchecked17h1493aec9fe254953E', symObjAddr: 0x2E20, symBinAddr: 0xDD10, symSize: 0x54 }
  - { offset: 0x8FAE5, size: 0x8, addend: 0x0, symName: '__ZN107_$LT$pyo3..instance..Bound$LT$pyo3..types..list..PyList$GT$$u20$as$u20$pyo3..types..list..PyListMethods$GT$3len17he137f9cc8d30a190E', symObjAddr: 0x2E74, symBinAddr: 0xDD64, symSize: 0x2C }
  - { offset: 0x8FB11, size: 0x8, addend: 0x0, symName: '__ZN107_$LT$pyo3..instance..Bound$LT$pyo3..types..list..PyList$GT$$u20$as$u20$pyo3..types..list..PyListMethods$GT$4iter17h83a6335b29918c47E', symObjAddr: 0x2EA0, symBinAddr: 0xDD90, symSize: 0x30 }
  - { offset: 0x8FB3F, size: 0x8, addend: 0x0, symName: '__ZN107_$LT$pyo3..instance..Bound$LT$pyo3..types..list..PyList$GT$$u20$as$u20$pyo3..types..list..PyListMethods$GT$6append17h087eb6844727cf41E', symObjAddr: 0x2F10, symBinAddr: 0xDDC0, symSize: 0x14C }
  - { offset: 0x8FC2D, size: 0x8, addend: 0x0, symName: '__ZN111_$LT$pyo3..instance..Bound$LT$pyo3..types..bytes..PyBytes$GT$$u20$as$u20$pyo3..types..bytes..PyBytesMethods$GT$8as_bytes17hdc882a2e5d16b8b6E', symObjAddr: 0x31FC, symBinAddr: 0xDF0C, symSize: 0x28 }
  - { offset: 0x8FCCB, size: 0x8, addend: 0x0, symName: '__ZN111_$LT$pyo3..instance..Bound$LT$pyo3..types..tuple..PyTuple$GT$$u20$as$u20$pyo3..types..tuple..PyTupleMethods$GT$3len17hbd0bd4d874be330dE', symObjAddr: 0x37B0, symBinAddr: 0xDF34, symSize: 0x2C }
  - { offset: 0x8FCF7, size: 0x8, addend: 0x0, symName: '__ZN111_$LT$pyo3..instance..Bound$LT$pyo3..types..tuple..PyTuple$GT$$u20$as$u20$pyo3..types..tuple..PyTupleMethods$GT$4iter17he29c3ca7970536ddE', symObjAddr: 0x37DC, symBinAddr: 0xDF60, symSize: 0x30 }
  - { offset: 0x8FE0F, size: 0x8, addend: 0x0, symName: '__ZN115_$LT$pyo3..instance..Bound$LT$pyo3..types..module..PyModule$GT$$u20$as$u20$pyo3..types..module..PyModuleMethods$GT$12add_function17h60d9b323996bf1f9E', symObjAddr: 0x3B54, symBinAddr: 0xDF90, symSize: 0x1F8 }
  - { offset: 0x8FEC2, size: 0x8, addend: 0x0, symName: '__ZN115_$LT$pyo3..instance..Bound$LT$pyo3..types..module..PyModule$GT$$u20$as$u20$pyo3..types..module..PyModuleMethods$GT$3add17h15379631452581d4E', symObjAddr: 0x4240, symBinAddr: 0xE188, symSize: 0x280 }
  - { offset: 0x8FF8F, size: 0x8, addend: 0x0, symName: '__ZN115_$LT$pyo3..instance..Bound$LT$pyo3..types..module..PyModule$GT$$u20$as$u20$pyo3..types..module..PyModuleMethods$GT$4name17h95c65377a703fffaE', symObjAddr: 0x4794, symBinAddr: 0xE408, symSize: 0x5C }
  - { offset: 0x8FFBD, size: 0x8, addend: 0x0, symName: '__ZN115_$LT$pyo3..instance..Bound$LT$pyo3..types..module..PyModule$GT$$u20$as$u20$pyo3..types..module..PyModuleMethods$GT$5index17hde6e2728d927a6e8E', symObjAddr: 0x47F0, symBinAddr: 0xE464, symSize: 0x25C }
  - { offset: 0x90090, size: 0x8, addend: 0x0, symName: '__ZN115_$LT$pyo3..instance..Bound$LT$pyo3..types..string..PyString$GT$$u20$as$u20$pyo3..types..string..PyStringMethods$GT$15to_string_lossy17h3ad317547c48de13E', symObjAddr: 0x4B1C, symBinAddr: 0xE6C0, symSize: 0x30 }
  - { offset: 0x900BE, size: 0x8, addend: 0x0, symName: '__ZN115_$LT$pyo3..instance..Bound$LT$pyo3..types..string..PyString$GT$$u20$as$u20$pyo3..types..string..PyStringMethods$GT$6to_cow17hcbcd46ea975975e6E', symObjAddr: 0x4B7C, symBinAddr: 0xE6F0, symSize: 0x30 }
  - { offset: 0x901DD, size: 0x8, addend: 0x0, symName: '__ZN119_$LT$pyo3..instance..Bound$LT$pyo3..types..typeobject..PyType$GT$$u20$as$u20$pyo3..types..typeobject..PyTypeMethods$GT$11as_type_ptr17h9f2dd4827f7950faE', symObjAddr: 0x53C8, symBinAddr: 0xE720, symSize: 0x24 }
  - { offset: 0x90209, size: 0x8, addend: 0x0, symName: '__ZN119_$LT$pyo3..instance..Bound$LT$pyo3..types..typeobject..PyType$GT$$u20$as$u20$pyo3..types..typeobject..PyTypeMethods$GT$4name17h3a261072cbb04a84E', symObjAddr: 0x5A68, symBinAddr: 0xE744, symSize: 0xE0 }
  - { offset: 0x90272, size: 0x8, addend: 0x0, symName: '__ZN119_$LT$pyo3..instance..Bound$LT$pyo3..types..typeobject..PyType$GT$$u20$as$u20$pyo3..types..typeobject..PyTypeMethods$GT$8qualname17h684769643e3820bbE', symObjAddr: 0x5D34, symBinAddr: 0xE824, symSize: 0xE0 }
  - { offset: 0x9034D, size: 0x8, addend: 0x0, symName: '__ZN127_$LT$pyo3..instance..Bound$LT$pyo3..types..traceback..PyTraceback$GT$$u20$as$u20$pyo3..types..traceback..PyTracebackMethods$GT$6format17h77143ef753d4c492E', symObjAddr: 0x60BC, symBinAddr: 0xE904, symSize: 0x670 }
  - { offset: 0x90681, size: 0x8, addend: 0x0, symName: '__ZN105_$LT$pyo3..instance..Py$LT$T$GT$$u20$as$u20$core..convert..From$LT$pyo3..instance..Bound$LT$T$GT$$GT$$GT$4from17h5b05403c1f7d4ca2E', symObjAddr: 0x2358, symBinAddr: 0xDC98, symSize: 0x24 }
  - { offset: 0x906B8, size: 0x8, addend: 0x0, symName: '__ZN105_$LT$pyo3..instance..Py$LT$T$GT$$u20$as$u20$core..convert..From$LT$pyo3..instance..Bound$LT$T$GT$$GT$$GT$4from17ha3cf6bcd501be13fE', symObjAddr: 0x237C, symBinAddr: 0xDCBC, symSize: 0x24 }
  - { offset: 0x906F5, size: 0x8, addend: 0x0, symName: '__ZN127_$LT$pyo3..instance..Py$LT$pyo3..types..any..PyAny$GT$$u20$as$u20$core..convert..From$LT$pyo3..instance..Bound$LT$T$GT$$GT$$GT$4from17hb2939f965068280bE', symObjAddr: 0x672C, symBinAddr: 0xEF74, symSize: 0x28 }
  - { offset: 0x90732, size: 0x8, addend: 0x0, symName: '__ZN128_$LT$pyo3..instance..Bound$LT$T$GT$$u20$as$u20$core..convert..AsRef$LT$pyo3..instance..Py$LT$pyo3..types..any..PyAny$GT$$GT$$GT$6as_ref17h7b2bcdcb28758a08E', symObjAddr: 0x6754, symBinAddr: 0xEF9C, symSize: 0x28 }
  - { offset: 0x93144, size: 0x8, addend: 0x0, symName: __ZN4pyo38instance13panic_on_null17hc2fe20cd3ea2c216E, symObjAddr: 0xA6D4, symBinAddr: 0xB95CC, symSize: 0x84 }
  - { offset: 0x93199, size: 0x8, addend: 0x0, symName: __ZN4pyo38instance13python_format17hac59419898e0dd95E, symObjAddr: 0xA758, symBinAddr: 0x10138, symSize: 0x2F8 }
  - { offset: 0x94489, size: 0x8, addend: 0x0, symName: '__ZN4pyo38instance14Bound$LT$T$GT$4cast5inner17h50cea3abc46b15d1E', symObjAddr: 0xB6C0, symBinAddr: 0x10928, symSize: 0x84 }
  - { offset: 0x944BE, size: 0x8, addend: 0x0, symName: '__ZN4pyo38instance14Bound$LT$T$GT$4cast5inner17h85d5de1c437af443E', symObjAddr: 0xB7C8, symBinAddr: 0x109AC, symSize: 0x84 }
  - { offset: 0x944F3, size: 0x8, addend: 0x0, symName: '__ZN4pyo38instance14Bound$LT$T$GT$4cast5inner17ha015b86543746564E', symObjAddr: 0xB84C, symBinAddr: 0x10A30, symSize: 0x84 }
  - { offset: 0x9452E, size: 0x8, addend: 0x0, symName: '__ZN4pyo38instance14Bound$LT$T$GT$9cast_into5inner17h51fc6c8c3a28510eE', symObjAddr: 0xCC70, symBinAddr: 0x111B4, symSize: 0xFC }
  - { offset: 0x94580, size: 0x8, addend: 0x0, symName: '__ZN4pyo38instance14Bound$LT$T$GT$9cast_into5inner17h5f5642f2effc9c59E', symObjAddr: 0xCD6C, symBinAddr: 0x112B0, symSize: 0xFC }
  - { offset: 0x945D2, size: 0x8, addend: 0x0, symName: '__ZN4pyo38instance14Bound$LT$T$GT$9cast_into5inner17h777fb8da7aa6f946E', symObjAddr: 0xCF64, symBinAddr: 0x113AC, symSize: 0xFC }
  - { offset: 0x94666, size: 0x8, addend: 0x0, symName: '__ZN4pyo38instance17Borrowed$LT$T$GT$4cast5inner17ha708981f00f62ee2E', symObjAddr: 0xD878, symBinAddr: 0x1158C, symSize: 0x7C }
  - { offset: 0x947F5, size: 0x8, addend: 0x0, symName: '__ZN4pyo38instance36Bound$LT$pyo3..types..any..PyAny$GT$14from_owned_ptr28_$u7b$$u7b$closure$u7d$$u7d$17h72a11a9b8fd7df7dE', symObjAddr: 0xDF8C, symBinAddr: 0x117E0, symSize: 0x1C }
  - { offset: 0x94848, size: 0x8, addend: 0x0, symName: '__ZN4pyo38instance36Bound$LT$pyo3..types..any..PyAny$GT$21from_owned_ptr_or_opt28_$u7b$$u7b$closure$u7d$$u7d$17hdd7da5c7e45f4eebE', symObjAddr: 0xE0E0, symBinAddr: 0x118FC, symSize: 0x38 }
  - { offset: 0x948B0, size: 0x8, addend: 0x0, symName: '__ZN4pyo38instance39Borrowed$LT$pyo3..types..any..PyAny$GT$15from_ptr_or_err28_$u7b$$u7b$closure$u7d$$u7d$17h1fc37d84555d0eadE', symObjAddr: 0xE19C, symBinAddr: 0x11948, symSize: 0x40 }
  - { offset: 0x948F9, size: 0x8, addend: 0x0, symName: '__ZN4pyo38instance39Borrowed$LT$pyo3..types..any..PyAny$GT$15from_ptr_or_err28_$u7b$$u7b$closure$u7d$$u7d$17hb236fd2dc07ed80bE', symObjAddr: 0xE1DC, symBinAddr: 0x11988, symSize: 0x58 }
  - { offset: 0x9495F, size: 0x8, addend: 0x0, symName: '__ZN4pyo38instance39Borrowed$LT$pyo3..types..any..PyAny$GT$8from_ptr28_$u7b$$u7b$closure$u7d$$u7d$17h4bd062a997cf5574E', symObjAddr: 0xE2A4, symBinAddr: 0x11A10, symSize: 0x1C }
  - { offset: 0x949B3, size: 0x8, addend: 0x0, symName: '__ZN67_$LT$pyo3..instance..Bound$LT$T$GT$$u20$as$u20$core..fmt..Debug$GT$3fmt17h332c14586c2ca695E', symObjAddr: 0xE4D0, symBinAddr: 0x11B68, symSize: 0x54 }
  - { offset: 0x94A17, size: 0x8, addend: 0x0, symName: '__ZN67_$LT$pyo3..instance..Bound$LT$T$GT$$u20$as$u20$core..fmt..Debug$GT$3fmt17h7f2145fd70644ff2E', symObjAddr: 0xE524, symBinAddr: 0x11BBC, symSize: 0x54 }
  - { offset: 0x94A7B, size: 0x8, addend: 0x0, symName: '__ZN67_$LT$pyo3..instance..Bound$LT$T$GT$$u20$as$u20$core..fmt..Debug$GT$3fmt17h8e48d7d0b1e36924E', symObjAddr: 0xE578, symBinAddr: 0x11C10, symSize: 0x54 }
  - { offset: 0x94AE5, size: 0x8, addend: 0x0, symName: '__ZN69_$LT$pyo3..instance..Bound$LT$T$GT$$u20$as$u20$core..clone..Clone$GT$5clone17h0d59d869449a225eE', symObjAddr: 0xE600, symBinAddr: 0x11C64, symSize: 0x34 }
  - { offset: 0x94B1C, size: 0x8, addend: 0x0, symName: '__ZN69_$LT$pyo3..instance..Bound$LT$T$GT$$u20$as$u20$core..clone..Clone$GT$5clone17h94308644e55eea1dE', symObjAddr: 0xE668, symBinAddr: 0x11C98, symSize: 0x34 }
  - { offset: 0x94B53, size: 0x8, addend: 0x0, symName: '__ZN69_$LT$pyo3..instance..Bound$LT$T$GT$$u20$as$u20$core..clone..Clone$GT$5clone17h9d016cbb77e79f54E', symObjAddr: 0xE69C, symBinAddr: 0x11CCC, symSize: 0x34 }
  - { offset: 0x94B8A, size: 0x8, addend: 0x0, symName: '__ZN69_$LT$pyo3..instance..Bound$LT$T$GT$$u20$as$u20$core..clone..Clone$GT$5clone17hb85814cb0b772d62E', symObjAddr: 0xE704, symBinAddr: 0x11D00, symSize: 0x34 }
  - { offset: 0x94BC1, size: 0x8, addend: 0x0, symName: '__ZN69_$LT$pyo3..instance..Bound$LT$T$GT$$u20$as$u20$core..clone..Clone$GT$5clone17hc800873e5a998b73E', symObjAddr: 0xE738, symBinAddr: 0x11D34, symSize: 0x34 }
  - { offset: 0x94BF8, size: 0x8, addend: 0x0, symName: '__ZN69_$LT$pyo3..instance..Bound$LT$T$GT$$u20$as$u20$core..clone..Clone$GT$5clone17hd60d6ef5622b28f6E', symObjAddr: 0xE7D4, symBinAddr: 0x11D68, symSize: 0x34 }
  - { offset: 0x94C35, size: 0x8, addend: 0x0, symName: '__ZN69_$LT$pyo3..instance..Bound$LT$T$GT$$u20$as$u20$core..fmt..Display$GT$3fmt17h31cb580be84d7315E', symObjAddr: 0xE83C, symBinAddr: 0x11D9C, symSize: 0x54 }
  - { offset: 0x94C99, size: 0x8, addend: 0x0, symName: '__ZN69_$LT$pyo3..instance..Bound$LT$T$GT$$u20$as$u20$core..fmt..Display$GT$3fmt17h4f1d9ba6ac262c48E', symObjAddr: 0xE890, symBinAddr: 0x11DF0, symSize: 0x54 }
  - { offset: 0x94CFD, size: 0x8, addend: 0x0, symName: '__ZN69_$LT$pyo3..instance..Bound$LT$T$GT$$u20$as$u20$core..fmt..Display$GT$3fmt17hce60a4aa93dbfb88E', symObjAddr: 0xE938, symBinAddr: 0x11E44, symSize: 0x54 }
  - { offset: 0x94D67, size: 0x8, addend: 0x0, symName: '__ZN69_$LT$pyo3..instance..Py$LT$T$GT$$u20$as$u20$core..ops..drop..Drop$GT$4drop17h28c7f71b9f04c678E', symObjAddr: 0xE9B4, symBinAddr: 0x11E98, symSize: 0x28 }
  - { offset: 0x94D9A, size: 0x8, addend: 0x0, symName: '__ZN69_$LT$pyo3..instance..Py$LT$T$GT$$u20$as$u20$core..ops..drop..Drop$GT$4drop17h9b81fdceb209d4a9E', symObjAddr: 0xE9DC, symBinAddr: 0x11EC0, symSize: 0x28 }
  - { offset: 0x94DCD, size: 0x8, addend: 0x0, symName: '__ZN69_$LT$pyo3..instance..Py$LT$T$GT$$u20$as$u20$core..ops..drop..Drop$GT$4drop17hbc619b9ba3439efaE', symObjAddr: 0xEA2C, symBinAddr: 0x11EE8, symSize: 0x28 }
  - { offset: 0x94E00, size: 0x8, addend: 0x0, symName: '__ZN69_$LT$pyo3..instance..Py$LT$T$GT$$u20$as$u20$core..ops..drop..Drop$GT$4drop17he6edd782bd08ea8cE', symObjAddr: 0xEA54, symBinAddr: 0x11F10, symSize: 0x28 }
  - { offset: 0x94E38, size: 0x8, addend: 0x0, symName: '__ZN69_$LT$pyo3..instance..Py$LT$T$GT$$u20$as$u20$core..ops..drop..Drop$GT$4drop5inner17hb4f874a1349b2254E', symObjAddr: 0xEA7C, symBinAddr: 0x11F38, symSize: 0x1D4 }
  - { offset: 0x94EB3, size: 0x8, addend: 0x0, symName: '__ZN69_$LT$pyo3..instance..Py$LT$T$GT$$u20$as$u20$core..ops..drop..Drop$GT$4drop9drop_slow17h6b86b0ab7b88bd16E', symObjAddr: 0xEC50, symBinAddr: 0xB9650, symSize: 0x24 }
  - { offset: 0x94EE4, size: 0x8, addend: 0x0, symName: '__ZN72_$LT$pyo3..instance..Bound$LT$T$GT$$u20$as$u20$core..ops..drop..Drop$GT$4drop17h27becef3deb4e95bE', symObjAddr: 0xEFE8, symBinAddr: 0x1210C, symSize: 0x1A0 }
  - { offset: 0x94F53, size: 0x8, addend: 0x0, symName: '__ZN72_$LT$pyo3..instance..Bound$LT$T$GT$$u20$as$u20$core..ops..drop..Drop$GT$4drop17h44b7aa157adca861E', symObjAddr: 0xF188, symBinAddr: 0x122AC, symSize: 0x1A0 }
  - { offset: 0x94FC2, size: 0x8, addend: 0x0, symName: '__ZN72_$LT$pyo3..instance..Bound$LT$T$GT$$u20$as$u20$core..ops..drop..Drop$GT$4drop17h5f180c42c037e6e0E', symObjAddr: 0xF328, symBinAddr: 0x1244C, symSize: 0x1A0 }
  - { offset: 0x95031, size: 0x8, addend: 0x0, symName: '__ZN72_$LT$pyo3..instance..Bound$LT$T$GT$$u20$as$u20$core..ops..drop..Drop$GT$4drop17h77423a7be880bf1dE', symObjAddr: 0xF4C8, symBinAddr: 0x125EC, symSize: 0x1A0 }
  - { offset: 0x950A0, size: 0x8, addend: 0x0, symName: '__ZN72_$LT$pyo3..instance..Bound$LT$T$GT$$u20$as$u20$core..ops..drop..Drop$GT$4drop17h7a6b525110b90486E', symObjAddr: 0xF668, symBinAddr: 0x1278C, symSize: 0x1A0 }
  - { offset: 0x9510F, size: 0x8, addend: 0x0, symName: '__ZN72_$LT$pyo3..instance..Bound$LT$T$GT$$u20$as$u20$core..ops..drop..Drop$GT$4drop17h88d0f96e1189928bE', symObjAddr: 0xF9A8, symBinAddr: 0x1292C, symSize: 0x1A0 }
  - { offset: 0x9517E, size: 0x8, addend: 0x0, symName: '__ZN72_$LT$pyo3..instance..Bound$LT$T$GT$$u20$as$u20$core..ops..drop..Drop$GT$4drop17ha694661e6b1db38dE', symObjAddr: 0xFE88, symBinAddr: 0x12ACC, symSize: 0x1A0 }
  - { offset: 0x951ED, size: 0x8, addend: 0x0, symName: '__ZN72_$LT$pyo3..instance..Bound$LT$T$GT$$u20$as$u20$core..ops..drop..Drop$GT$4drop17hd0422d3a3105df69E', symObjAddr: 0x10028, symBinAddr: 0x12C6C, symSize: 0x1A0 }
  - { offset: 0x9525C, size: 0x8, addend: 0x0, symName: '__ZN72_$LT$pyo3..instance..Bound$LT$T$GT$$u20$as$u20$core..ops..drop..Drop$GT$4drop17he3d37cc079a1cb9fE', symObjAddr: 0x10508, symBinAddr: 0x12E0C, symSize: 0x1A0 }
  - { offset: 0x952CB, size: 0x8, addend: 0x0, symName: '__ZN72_$LT$pyo3..instance..Bound$LT$T$GT$$u20$as$u20$core..ops..drop..Drop$GT$4drop17he4d176e7b064a0f3E', symObjAddr: 0x106A8, symBinAddr: 0x12FAC, symSize: 0x1A0 }
  - { offset: 0x9533A, size: 0x8, addend: 0x0, symName: '__ZN72_$LT$pyo3..instance..Bound$LT$T$GT$$u20$as$u20$core..ops..drop..Drop$GT$4drop17hef836cb476ee1417E', symObjAddr: 0x109E8, symBinAddr: 0x1314C, symSize: 0x1A0 }
  - { offset: 0x953AF, size: 0x8, addend: 0x0, symName: '__ZN74_$LT$pyo3..instance..Bound$LT$T$GT$$u20$as$u20$core..ops..deref..Deref$GT$5deref17h27c7bb618985e063E', symObjAddr: 0x10D70, symBinAddr: 0x132EC, symSize: 0x24 }
  - { offset: 0x953E6, size: 0x8, addend: 0x0, symName: '__ZN74_$LT$pyo3..instance..Bound$LT$T$GT$$u20$as$u20$core..ops..deref..Deref$GT$5deref17h9856c9e6ca1ce397E', symObjAddr: 0x10DB8, symBinAddr: 0x13310, symSize: 0x24 }
  - { offset: 0x9541D, size: 0x8, addend: 0x0, symName: '__ZN74_$LT$pyo3..instance..Bound$LT$T$GT$$u20$as$u20$core..ops..deref..Deref$GT$5deref17ha7440f9d215a6e3fE', symObjAddr: 0x10E48, symBinAddr: 0x13334, symSize: 0x24 }
  - { offset: 0x95454, size: 0x8, addend: 0x0, symName: '__ZN74_$LT$pyo3..instance..Bound$LT$T$GT$$u20$as$u20$core..ops..deref..Deref$GT$5deref17hbdd48b3b51a3b858E', symObjAddr: 0x10E6C, symBinAddr: 0x13358, symSize: 0x24 }
  - { offset: 0x9548B, size: 0x8, addend: 0x0, symName: '__ZN74_$LT$pyo3..instance..Bound$LT$T$GT$$u20$as$u20$core..ops..deref..Deref$GT$5deref17hf2d5409f04b00547E', symObjAddr: 0x10EFC, symBinAddr: 0x1337C, symSize: 0x24 }
  - { offset: 0x954C8, size: 0x8, addend: 0x0, symName: '__ZN77_$LT$pyo3..instance..Borrowed$LT$T$GT$$u20$as$u20$core..ops..deref..Deref$GT$5deref17h018efb0393b83ac6E', symObjAddr: 0x10F20, symBinAddr: 0x133A0, symSize: 0x28 }
  - { offset: 0x954FF, size: 0x8, addend: 0x0, symName: '__ZN77_$LT$pyo3..instance..Borrowed$LT$T$GT$$u20$as$u20$core..ops..deref..Deref$GT$5deref17h232fd4bdc27ac353E', symObjAddr: 0x10F48, symBinAddr: 0x133C8, symSize: 0x28 }
  - { offset: 0x95536, size: 0x8, addend: 0x0, symName: '__ZN77_$LT$pyo3..instance..Borrowed$LT$T$GT$$u20$as$u20$core..ops..deref..Deref$GT$5deref17h3216c789f6674a0dE', symObjAddr: 0x10F70, symBinAddr: 0x133F0, symSize: 0x28 }
  - { offset: 0x9556D, size: 0x8, addend: 0x0, symName: '__ZN77_$LT$pyo3..instance..Borrowed$LT$T$GT$$u20$as$u20$core..ops..deref..Deref$GT$5deref17h47647890b7f7b79eE', symObjAddr: 0x10F98, symBinAddr: 0x13418, symSize: 0x28 }
  - { offset: 0x955A4, size: 0x8, addend: 0x0, symName: '__ZN77_$LT$pyo3..instance..Borrowed$LT$T$GT$$u20$as$u20$core..ops..deref..Deref$GT$5deref17h98042aa6604feef1E', symObjAddr: 0x11010, symBinAddr: 0x13440, symSize: 0x28 }
  - { offset: 0x955DB, size: 0x8, addend: 0x0, symName: '__ZN77_$LT$pyo3..instance..Borrowed$LT$T$GT$$u20$as$u20$core..ops..deref..Deref$GT$5deref17hf5ddc4b1b983f4d4E', symObjAddr: 0x11150, symBinAddr: 0x13468, symSize: 0x28 }
  - { offset: 0x95612, size: 0x8, addend: 0x0, symName: '__ZN77_$LT$pyo3..instance..Borrowed$LT$T$GT$$u20$as$u20$core..ops..deref..Deref$GT$5deref17hfb1b33d94e7e922eE', symObjAddr: 0x11178, symBinAddr: 0x13490, symSize: 0x28 }
  - { offset: 0x9564F, size: 0x8, addend: 0x0, symName: '__ZN87_$LT$pyo3..instance..Bound$LT$T$GT$$u20$as$u20$pyo3..instance..BoundObject$LT$T$GT$$GT$10into_bound17h9d29d80d44a0c731E', symObjAddr: 0x11374, symBinAddr: 0x13598, symSize: 0x14 }
  - { offset: 0x95686, size: 0x8, addend: 0x0, symName: '__ZN87_$LT$pyo3..instance..Bound$LT$T$GT$$u20$as$u20$pyo3..instance..BoundObject$LT$T$GT$$GT$11as_borrowed17h74cbf49bf833d326E', symObjAddr: 0x11388, symBinAddr: 0x135AC, symSize: 0x24 }
  - { offset: 0x956BD, size: 0x8, addend: 0x0, symName: '__ZN87_$LT$pyo3..instance..Bound$LT$T$GT$$u20$as$u20$pyo3..instance..BoundObject$LT$T$GT$$GT$11as_borrowed17hf87a29e920c1854aE', symObjAddr: 0x113AC, symBinAddr: 0x135D0, symSize: 0x24 }
  - { offset: 0x956F4, size: 0x8, addend: 0x0, symName: '__ZN87_$LT$pyo3..instance..Bound$LT$T$GT$$u20$as$u20$pyo3..instance..BoundObject$LT$T$GT$$GT$6unbind17hcaf897b9b726da14E', symObjAddr: 0x113F4, symBinAddr: 0x135F4, symSize: 0x24 }
  - { offset: 0x9572B, size: 0x8, addend: 0x0, symName: '__ZN87_$LT$pyo3..instance..Bound$LT$T$GT$$u20$as$u20$pyo3..instance..BoundObject$LT$T$GT$$GT$8into_any17h13e6f9e8aa97246eE', symObjAddr: 0x11418, symBinAddr: 0x13618, symSize: 0x24 }
  - { offset: 0x95762, size: 0x8, addend: 0x0, symName: '__ZN87_$LT$pyo3..instance..Bound$LT$T$GT$$u20$as$u20$pyo3..instance..BoundObject$LT$T$GT$$GT$8into_any17h29f741debbd67254E', symObjAddr: 0x1143C, symBinAddr: 0x1363C, symSize: 0x24 }
  - { offset: 0x95799, size: 0x8, addend: 0x0, symName: '__ZN87_$LT$pyo3..instance..Bound$LT$T$GT$$u20$as$u20$pyo3..instance..BoundObject$LT$T$GT$$GT$8into_any17h71fcb61d875bd42dE', symObjAddr: 0x114CC, symBinAddr: 0x13660, symSize: 0x24 }
  - { offset: 0x957D0, size: 0x8, addend: 0x0, symName: '__ZN87_$LT$pyo3..instance..Bound$LT$T$GT$$u20$as$u20$pyo3..instance..BoundObject$LT$T$GT$$GT$8into_any17he6417791a0c17a3cE', symObjAddr: 0x114F0, symBinAddr: 0x13684, symSize: 0x24 }
  - { offset: 0x9580D, size: 0x8, addend: 0x0, symName: '__ZN90_$LT$pyo3..instance..Borrowed$LT$T$GT$$u20$as$u20$pyo3..instance..BoundObject$LT$T$GT$$GT$11as_borrowed17h71a66bfb662afa2bE', symObjAddr: 0x11564, symBinAddr: 0x136A8, symSize: 0x18 }
  - { offset: 0x95844, size: 0x8, addend: 0x0, symName: '__ZN90_$LT$pyo3..instance..Borrowed$LT$T$GT$$u20$as$u20$pyo3..instance..BoundObject$LT$T$GT$$GT$11as_borrowed17h83cd5b9b2aa2facbE', symObjAddr: 0x1157C, symBinAddr: 0x136C0, symSize: 0x18 }
  - { offset: 0x9587B, size: 0x8, addend: 0x0, symName: '__ZN90_$LT$pyo3..instance..Borrowed$LT$T$GT$$u20$as$u20$pyo3..instance..BoundObject$LT$T$GT$$GT$6as_ptr17hf2d98438c3a76eadE', symObjAddr: 0x11594, symBinAddr: 0x136D8, symSize: 0x28 }
  - { offset: 0x958B2, size: 0x8, addend: 0x0, symName: '__ZN90_$LT$pyo3..instance..Borrowed$LT$T$GT$$u20$as$u20$pyo3..instance..BoundObject$LT$T$GT$$GT$8into_any17h36a067aba35d3f5aE', symObjAddr: 0x11604, symBinAddr: 0x13700, symSize: 0x24 }
  - { offset: 0x958E9, size: 0x8, addend: 0x0, symName: '__ZN90_$LT$pyo3..instance..Borrowed$LT$T$GT$$u20$as$u20$pyo3..instance..BoundObject$LT$T$GT$$GT$8into_any17h59b4b890959340cbE', symObjAddr: 0x11628, symBinAddr: 0x13724, symSize: 0x24 }
  - { offset: 0x95920, size: 0x8, addend: 0x0, symName: '__ZN90_$LT$pyo3..instance..Borrowed$LT$T$GT$$u20$as$u20$pyo3..instance..BoundObject$LT$T$GT$$GT$8into_any17h80889133a859a40bE', symObjAddr: 0x1164C, symBinAddr: 0x13748, symSize: 0x24 }
  - { offset: 0x95957, size: 0x8, addend: 0x0, symName: '__ZN90_$LT$pyo3..instance..Borrowed$LT$T$GT$$u20$as$u20$pyo3..instance..BoundObject$LT$T$GT$$GT$8into_any17hdc5067d5deba23afE', symObjAddr: 0x11694, symBinAddr: 0x1376C, symSize: 0x24 }
  - { offset: 0x9599F, size: 0x8, addend: 0x0, symName: '__ZN196_$LT$$RF$pyo3..instance..Bound$LT$pyo3..types..module..PyModule$GT$$u20$as$u20$pyo3..impl_..pyfunction..WrapPyFunctionArg$LT$pyo3..instance..Bound$LT$pyo3..types..function..PyCFunction$GT$$GT$$GT$15wrap_pyfunction17h8c22f3a93a683383E', symObjAddr: 0x6AD4, symBinAddr: 0xEFC4, symSize: 0x44 }
  - { offset: 0x959FB, size: 0x8, addend: 0x0, symName: '__ZN47_$LT$T$u20$as$u20$pyo3..err..PyErrArguments$GT$9arguments17h640f693057e4f9a8E', symObjAddr: 0x6C64, symBinAddr: 0xF08C, symSize: 0x3C }
  - { offset: 0x95C46, size: 0x8, addend: 0x0, symName: __ZN4pyo310conversion15IntoPyObjectExt22into_pyobject_or_pyerr17h0025b8df573a4ee3E, symObjAddr: 0x6EF8, symBinAddr: 0xF130, symSize: 0x48 }
  - { offset: 0x95CB6, size: 0x8, addend: 0x0, symName: __ZN4pyo310conversion15IntoPyObjectExt22into_pyobject_or_pyerr17h590988bdb7ad4276E, symObjAddr: 0x7018, symBinAddr: 0xF178, symSize: 0x48 }
  - { offset: 0x95D26, size: 0x8, addend: 0x0, symName: __ZN4pyo310conversion15IntoPyObjectExt22into_pyobject_or_pyerr17h7add3b70a0b73909E, symObjAddr: 0x70A8, symBinAddr: 0xF1C0, symSize: 0x48 }
  - { offset: 0x95D96, size: 0x8, addend: 0x0, symName: __ZN4pyo310conversion15IntoPyObjectExt22into_pyobject_or_pyerr17h8f5ed9631c03a146E, symObjAddr: 0x7138, symBinAddr: 0xF208, symSize: 0x48 }
  - { offset: 0x95E06, size: 0x8, addend: 0x0, symName: __ZN4pyo310conversion15IntoPyObjectExt22into_pyobject_or_pyerr17hadf6e4bc7c34f783E, symObjAddr: 0x71C8, symBinAddr: 0xF250, symSize: 0x48 }
  - { offset: 0x95E76, size: 0x8, addend: 0x0, symName: __ZN4pyo310conversion15IntoPyObjectExt22into_pyobject_or_pyerr17hcbe657f49a775428E, symObjAddr: 0x7210, symBinAddr: 0xF298, symSize: 0x48 }
  - { offset: 0x95EEC, size: 0x8, addend: 0x0, symName: '__ZN78_$LT$pyo3..instance..Py$LT$T$GT$$u20$as$u20$pyo3..conversion..IntoPyObject$GT$13into_pyobject17hc5b9cc64f252f0ffE', symObjAddr: 0x111A0, symBinAddr: 0x134B8, symSize: 0x24 }
  - { offset: 0x95F40, size: 0x8, addend: 0x0, symName: '__ZN81_$LT$pyo3..instance..Bound$LT$T$GT$$u20$as$u20$pyo3..conversion..IntoPyObject$GT$13into_pyobject17h14e3dfdc2192387dE', symObjAddr: 0x111D8, symBinAddr: 0x134DC, symSize: 0x14 }
  - { offset: 0x95F8E, size: 0x8, addend: 0x0, symName: '__ZN81_$LT$pyo3..instance..Bound$LT$T$GT$$u20$as$u20$pyo3..conversion..IntoPyObject$GT$13into_pyobject17h1c79c524302a99acE', symObjAddr: 0x111EC, symBinAddr: 0x134F0, symSize: 0x14 }
  - { offset: 0x95FE2, size: 0x8, addend: 0x0, symName: '__ZN84_$LT$pyo3..instance..Borrowed$LT$T$GT$$u20$as$u20$pyo3..conversion..IntoPyObject$GT$13into_pyobject17h44b822b6ad37be0cE', symObjAddr: 0x11228, symBinAddr: 0x13504, symSize: 0x14 }
  - { offset: 0x96030, size: 0x8, addend: 0x0, symName: '__ZN84_$LT$pyo3..instance..Borrowed$LT$T$GT$$u20$as$u20$pyo3..conversion..IntoPyObject$GT$13into_pyobject17hb5ef1f02da888717E', symObjAddr: 0x1123C, symBinAddr: 0x13518, symSize: 0x14 }
  - { offset: 0x96084, size: 0x8, addend: 0x0, symName: '__ZN85_$LT$$RF$pyo3..instance..Bound$LT$T$GT$$u20$as$u20$pyo3..conversion..IntoPyObject$GT$13into_pyobject17h3d5e13b063b7753dE', symObjAddr: 0x1129C, symBinAddr: 0x1352C, symSize: 0x24 }
  - { offset: 0x960D2, size: 0x8, addend: 0x0, symName: '__ZN85_$LT$$RF$pyo3..instance..Bound$LT$T$GT$$u20$as$u20$pyo3..conversion..IntoPyObject$GT$13into_pyobject17h94d51748623cc7e0E', symObjAddr: 0x11308, symBinAddr: 0x13550, symSize: 0x24 }
  - { offset: 0x96120, size: 0x8, addend: 0x0, symName: '__ZN85_$LT$$RF$pyo3..instance..Bound$LT$T$GT$$u20$as$u20$pyo3..conversion..IntoPyObject$GT$13into_pyobject17hf34482185faa9cbaE', symObjAddr: 0x1132C, symBinAddr: 0x13574, symSize: 0x24 }
  - { offset: 0x966E6, size: 0x8, addend: 0x0, symName: '__ZN44_$LT$T$u20$as$u20$alloc..borrow..ToOwned$GT$8to_owned17hadc032f4e8c9a31cE', symObjAddr: 0x6C1C, symBinAddr: 0xF068, symSize: 0x24 }
  - { offset: 0x9680A, size: 0x8, addend: 0x0, symName: '__ZN4pyo35types4dict75_$LT$impl$u20$pyo3..instance..Borrowed$LT$pyo3..types..dict..PyDict$GT$$GT$13iter_borrowed17heced541a907dbf0eE', symObjAddr: 0x7354, symBinAddr: 0xF2E0, symSize: 0x24 }
  - { offset: 0x96861, size: 0x8, addend: 0x0, symName: '__ZN4pyo35types5bytes77_$LT$impl$u20$pyo3..instance..Borrowed$LT$pyo3..types..bytes..PyBytes$GT$$GT$8as_bytes17ha96091440cda5ba6E', symObjAddr: 0x73E8, symBinAddr: 0xF304, symSize: 0x90 }
  - { offset: 0x968BA, size: 0x8, addend: 0x0, symName: '__ZN4pyo35types5tuple77_$LT$impl$u20$pyo3..instance..Borrowed$LT$pyo3..types..tuple..PyTuple$GT$$GT$13iter_borrowed17h5026f3148468eb46E', symObjAddr: 0x79DC, symBinAddr: 0xF394, symSize: 0x24 }
  - { offset: 0x96B46, size: 0x8, addend: 0x0, symName: '__ZN4pyo35types5tuple77_$LT$impl$u20$pyo3..instance..Borrowed$LT$pyo3..types..tuple..PyTuple$GT$$GT$27get_borrowed_item_unchecked17h7d41a63bc453b5e7E', symObjAddr: 0x7A60, symBinAddr: 0xF3B8, symSize: 0x58 }
  - { offset: 0x96BA3, size: 0x8, addend: 0x0, symName: '__ZN4pyo35types6string79_$LT$impl$u20$pyo3..instance..Borrowed$LT$pyo3..types..string..PyString$GT$$GT$15to_string_lossy17hd004bac019c47d15E', symObjAddr: 0x7BDC, symBinAddr: 0xF410, symSize: 0x16C }
  - { offset: 0x96C74, size: 0x8, addend: 0x0, symName: '__ZN4pyo35types6string79_$LT$impl$u20$pyo3..instance..Borrowed$LT$pyo3..types..string..PyString$GT$$GT$6to_cow17ha14f3ee1c6736e96E', symObjAddr: 0x7EB4, symBinAddr: 0xF57C, symSize: 0x3C }
  - { offset: 0x96C97, size: 0x8, addend: 0x0, symName: '__ZN4pyo35types6string79_$LT$impl$u20$pyo3..instance..Borrowed$LT$pyo3..types..string..PyString$GT$$GT$6to_str17hda2b91d4a5d57c58E', symObjAddr: 0x7EF0, symBinAddr: 0xF5B8, symSize: 0xD0 }
  - { offset: 0x96D3B, size: 0x8, addend: 0x0, symName: '__ZN4pyo38instance11Py$LT$T$GT$10into_bound17h6f155ec7e957fe42E', symObjAddr: 0x9064, symBinAddr: 0xF688, symSize: 0x1C }
  - { offset: 0x96DDF, size: 0x8, addend: 0x0, symName: '__ZN4pyo38instance11Py$LT$T$GT$4bind17h08845d52ffbc8c07E', symObjAddr: 0x9170, symBinAddr: 0xF6A4, symSize: 0x38 }
  - { offset: 0x96E94, size: 0x8, addend: 0x0, symName: '__ZN4pyo38instance11Py$LT$T$GT$4bind17h4b3f0ccd36b067a9E', symObjAddr: 0x91A8, symBinAddr: 0xF6DC, symSize: 0x38 }
  - { offset: 0x96F49, size: 0x8, addend: 0x0, symName: '__ZN4pyo38instance11Py$LT$T$GT$4bind17h610d5cc4a37aa43eE', symObjAddr: 0x91E0, symBinAddr: 0xF714, symSize: 0x38 }
  - { offset: 0x9704E, size: 0x8, addend: 0x0, symName: '__ZN4pyo38instance11Py$LT$T$GT$6as_ptr17h1466ec8529f450a3E', symObjAddr: 0x92A4, symBinAddr: 0xF74C, symSize: 0x1C }
  - { offset: 0x970AE, size: 0x8, addend: 0x0, symName: '__ZN4pyo38instance11Py$LT$T$GT$6as_ptr17h1f9981654c4bd2adE', symObjAddr: 0x9314, symBinAddr: 0xF768, symSize: 0x1C }
  - { offset: 0x970E7, size: 0x8, addend: 0x0, symName: '__ZN4pyo38instance11Py$LT$T$GT$6as_ptr17h2ab80c21daa36ebcE', symObjAddr: 0x934C, symBinAddr: 0xF784, symSize: 0x1C }
  - { offset: 0x97113, size: 0x8, addend: 0x0, symName: '__ZN4pyo38instance11Py$LT$T$GT$6as_ptr17h3368a7bd72cabea4E', symObjAddr: 0x9368, symBinAddr: 0xF7A0, symSize: 0x1C }
  - { offset: 0x9713F, size: 0x8, addend: 0x0, symName: '__ZN4pyo38instance11Py$LT$T$GT$6as_ptr17h3446b97dae9f510fE', symObjAddr: 0x9384, symBinAddr: 0xF7BC, symSize: 0x1C }
  - { offset: 0x9716B, size: 0x8, addend: 0x0, symName: '__ZN4pyo38instance11Py$LT$T$GT$6as_ptr17h3d9527e83be2d409E', symObjAddr: 0x93A0, symBinAddr: 0xF7D8, symSize: 0x1C }
  - { offset: 0x97197, size: 0x8, addend: 0x0, symName: '__ZN4pyo38instance11Py$LT$T$GT$6as_ptr17h53bdc99e4ee2e375E', symObjAddr: 0x93BC, symBinAddr: 0xF7F4, symSize: 0x1C }
  - { offset: 0x971EA, size: 0x8, addend: 0x0, symName: '__ZN4pyo38instance11Py$LT$T$GT$6as_ptr17h64c0acc10dd191aaE', symObjAddr: 0x9410, symBinAddr: 0xF810, symSize: 0x1C }
  - { offset: 0x97216, size: 0x8, addend: 0x0, symName: '__ZN4pyo38instance11Py$LT$T$GT$6as_ptr17h64ef27dd7f2ce5bfE', symObjAddr: 0x942C, symBinAddr: 0xF82C, symSize: 0x1C }
  - { offset: 0x972AA, size: 0x8, addend: 0x0, symName: '__ZN4pyo38instance11Py$LT$T$GT$6as_ptr17hb3ede06577e8a55fE', symObjAddr: 0x9544, symBinAddr: 0xF848, symSize: 0x1C }
  - { offset: 0x97317, size: 0x8, addend: 0x0, symName: '__ZN4pyo38instance11Py$LT$T$GT$6as_ptr17hf631308b22e8d5cbE', symObjAddr: 0x9608, symBinAddr: 0xF864, symSize: 0x1C }
  - { offset: 0x97343, size: 0x8, addend: 0x0, symName: '__ZN4pyo38instance11Py$LT$T$GT$8into_any17h3deee589386ded23E', symObjAddr: 0x9624, symBinAddr: 0xF880, symSize: 0x30 }
  - { offset: 0x9736F, size: 0x8, addend: 0x0, symName: '__ZN4pyo38instance11Py$LT$T$GT$8into_any17h4aa4b5946e89e9f4E', symObjAddr: 0x9654, symBinAddr: 0xF8B0, symSize: 0x30 }
  - { offset: 0x9739B, size: 0x8, addend: 0x0, symName: '__ZN4pyo38instance11Py$LT$T$GT$8into_any17h5f713d6ebf50597bE', symObjAddr: 0x9714, symBinAddr: 0xF8E0, symSize: 0x30 }
  - { offset: 0x973C7, size: 0x8, addend: 0x0, symName: '__ZN4pyo38instance11Py$LT$T$GT$8into_any17h75083eadc1e1c193E', symObjAddr: 0x9744, symBinAddr: 0xF910, symSize: 0x30 }
  - { offset: 0x973F3, size: 0x8, addend: 0x0, symName: '__ZN4pyo38instance11Py$LT$T$GT$8into_any17ha80c50dfe4dd7c07E', symObjAddr: 0x9774, symBinAddr: 0xF940, symSize: 0x30 }
  - { offset: 0x9741F, size: 0x8, addend: 0x0, symName: '__ZN4pyo38instance11Py$LT$T$GT$8into_any17hee5a770565077230E', symObjAddr: 0x97D4, symBinAddr: 0xF970, symSize: 0x30 }
  - { offset: 0x9744B, size: 0x8, addend: 0x0, symName: '__ZN4pyo38instance11Py$LT$T$GT$8into_ptr17h3fb76a73eb1e1d0aE', symObjAddr: 0x9804, symBinAddr: 0xF9A0, symSize: 0x30 }
  - { offset: 0x97477, size: 0x8, addend: 0x0, symName: '__ZN4pyo38instance11Py$LT$T$GT$8into_ptr17h80f899b8105be7edE', symObjAddr: 0x9834, symBinAddr: 0xF9D0, symSize: 0x30 }
  - { offset: 0x974A3, size: 0x8, addend: 0x0, symName: '__ZN4pyo38instance11Py$LT$T$GT$9clone_ref17h2d42a841d607dee1E', symObjAddr: 0x9B7C, symBinAddr: 0xFA00, symSize: 0x108 }
  - { offset: 0x9755E, size: 0x8, addend: 0x0, symName: '__ZN4pyo38instance11Py$LT$T$GT$9clone_ref17h3906d03c167f0879E', symObjAddr: 0x9D8C, symBinAddr: 0xFB08, symSize: 0x108 }
  - { offset: 0x9760C, size: 0x8, addend: 0x0, symName: '__ZN4pyo38instance11Py$LT$T$GT$9clone_ref17h7090fb628e2351e7E', symObjAddr: 0xA0A4, symBinAddr: 0xFC10, symSize: 0x108 }
  - { offset: 0x976BA, size: 0x8, addend: 0x0, symName: '__ZN4pyo38instance11Py$LT$T$GT$9clone_ref17hc989ad582f87d876E', symObjAddr: 0xA2B4, symBinAddr: 0xFD18, symSize: 0x108 }
  - { offset: 0x97768, size: 0x8, addend: 0x0, symName: '__ZN4pyo38instance11Py$LT$T$GT$9clone_ref17hd7ffc0f2879b06a5E', symObjAddr: 0xA3BC, symBinAddr: 0xFE20, symSize: 0x108 }
  - { offset: 0x97816, size: 0x8, addend: 0x0, symName: '__ZN4pyo38instance11Py$LT$T$GT$9clone_ref17hd82bb08c554993d4E', symObjAddr: 0xA4C4, symBinAddr: 0xFF28, symSize: 0x108 }
  - { offset: 0x978C4, size: 0x8, addend: 0x0, symName: '__ZN4pyo38instance11Py$LT$T$GT$9clone_ref17hf6e0cf076edbdcf5E', symObjAddr: 0xA5CC, symBinAddr: 0x10030, symSize: 0x108 }
  - { offset: 0x97972, size: 0x8, addend: 0x0, symName: '__ZN4pyo38instance14Bound$LT$T$GT$10as_unbound17h46b5964387ccd5d8E', symObjAddr: 0xAA50, symBinAddr: 0x10430, symSize: 0x1C }
  - { offset: 0x979B8, size: 0x8, addend: 0x0, symName: '__ZN4pyo38instance14Bound$LT$T$GT$11as_borrowed17h1c360b9c9acb38b2E', symObjAddr: 0xAAAC, symBinAddr: 0x1044C, symSize: 0x40 }
  - { offset: 0x979F1, size: 0x8, addend: 0x0, symName: '__ZN4pyo38instance14Bound$LT$T$GT$11as_borrowed17h28d0206c6403d28dE', symObjAddr: 0xAB2C, symBinAddr: 0x1048C, symSize: 0x40 }
  - { offset: 0x97A2A, size: 0x8, addend: 0x0, symName: '__ZN4pyo38instance14Bound$LT$T$GT$11as_borrowed17h473834220838d626E', symObjAddr: 0xAB6C, symBinAddr: 0x104CC, symSize: 0x40 }
  - { offset: 0x97A56, size: 0x8, addend: 0x0, symName: '__ZN4pyo38instance14Bound$LT$T$GT$11as_borrowed17h528c8f1b061b5fd4E', symObjAddr: 0xABAC, symBinAddr: 0x1050C, symSize: 0x40 }
  - { offset: 0x97A9C, size: 0x8, addend: 0x0, symName: '__ZN4pyo38instance14Bound$LT$T$GT$11as_borrowed17hc05b59b6b674ca62E', symObjAddr: 0xACAC, symBinAddr: 0x1054C, symSize: 0x40 }
  - { offset: 0x97AC8, size: 0x8, addend: 0x0, symName: '__ZN4pyo38instance14Bound$LT$T$GT$11as_borrowed17hce9ba7881ce84f95E', symObjAddr: 0xACEC, symBinAddr: 0x1058C, symSize: 0x40 }
  - { offset: 0x97AF4, size: 0x8, addend: 0x0, symName: '__ZN4pyo38instance14Bound$LT$T$GT$14cast_unchecked17h01d1012dc346e610E', symObjAddr: 0xAD2C, symBinAddr: 0x105CC, symSize: 0x38 }
  - { offset: 0x97B8A, size: 0x8, addend: 0x0, symName: '__ZN4pyo38instance14Bound$LT$T$GT$14cast_unchecked17h13c623a90b518dcbE', symObjAddr: 0xAD9C, symBinAddr: 0x10604, symSize: 0x38 }
  - { offset: 0x97C13, size: 0x8, addend: 0x0, symName: '__ZN4pyo38instance14Bound$LT$T$GT$14cast_unchecked17h2a169960d4859dd3E', symObjAddr: 0xAE0C, symBinAddr: 0x1063C, symSize: 0x38 }
  - { offset: 0x97C73, size: 0x8, addend: 0x0, symName: '__ZN4pyo38instance14Bound$LT$T$GT$14cast_unchecked17h3e989956d8cf972fE', symObjAddr: 0xAE7C, symBinAddr: 0x10674, symSize: 0x38 }
  - { offset: 0x97CC6, size: 0x8, addend: 0x0, symName: '__ZN4pyo38instance14Bound$LT$T$GT$14cast_unchecked17h74aeaa8a75b7e2f4E', symObjAddr: 0xAEEC, symBinAddr: 0x106AC, symSize: 0x38 }
  - { offset: 0x97D40, size: 0x8, addend: 0x0, symName: '__ZN4pyo38instance14Bound$LT$T$GT$14cast_unchecked17hb5304e45b0aa67c6E', symObjAddr: 0xAFCC, symBinAddr: 0x106E4, symSize: 0x38 }
  - { offset: 0x97DF0, size: 0x8, addend: 0x0, symName: '__ZN4pyo38instance14Bound$LT$T$GT$14cast_unchecked17hee19c0e6d3ff45c5E', symObjAddr: 0xB0E4, symBinAddr: 0x1071C, symSize: 0x38 }
  - { offset: 0x97E43, size: 0x8, addend: 0x0, symName: '__ZN4pyo38instance14Bound$LT$T$GT$19cast_into_unchecked17h1681ad3a127e7434E', symObjAddr: 0xB18C, symBinAddr: 0x10754, symSize: 0x14 }
  - { offset: 0x97E78, size: 0x8, addend: 0x0, symName: '__ZN4pyo38instance14Bound$LT$T$GT$19cast_into_unchecked17h373dfa98d7a76cdcE', symObjAddr: 0xB204, symBinAddr: 0x10768, symSize: 0x14 }
  - { offset: 0x97EAD, size: 0x8, addend: 0x0, symName: '__ZN4pyo38instance14Bound$LT$T$GT$19cast_into_unchecked17h62fce56020c61aaeE', symObjAddr: 0xB290, symBinAddr: 0x1077C, symSize: 0x14 }
  - { offset: 0x97EE2, size: 0x8, addend: 0x0, symName: '__ZN4pyo38instance14Bound$LT$T$GT$19cast_into_unchecked17h8001274983fb617fE', symObjAddr: 0xB2B8, symBinAddr: 0x10790, symSize: 0x14 }
  - { offset: 0x97F17, size: 0x8, addend: 0x0, symName: '__ZN4pyo38instance14Bound$LT$T$GT$19cast_into_unchecked17h9221daf7c96a4873E', symObjAddr: 0xB330, symBinAddr: 0x107A4, symSize: 0x14 }
  - { offset: 0x97F4C, size: 0x8, addend: 0x0, symName: '__ZN4pyo38instance14Bound$LT$T$GT$19cast_into_unchecked17h9ce78344d696990eE', symObjAddr: 0xB344, symBinAddr: 0x107B8, symSize: 0x14 }
  - { offset: 0x97F81, size: 0x8, addend: 0x0, symName: '__ZN4pyo38instance14Bound$LT$T$GT$19cast_into_unchecked17hce0ab7e01e085acbE', symObjAddr: 0xB3BC, symBinAddr: 0x107CC, symSize: 0x14 }
  - { offset: 0x97FB6, size: 0x8, addend: 0x0, symName: '__ZN4pyo38instance14Bound$LT$T$GT$19cast_into_unchecked17hdd660fb947b55015E', symObjAddr: 0xB3F8, symBinAddr: 0x107E0, symSize: 0x14 }
  - { offset: 0x97FEB, size: 0x8, addend: 0x0, symName: '__ZN4pyo38instance14Bound$LT$T$GT$19cast_into_unchecked17hfb360d68fdbb138bE', symObjAddr: 0xB45C, symBinAddr: 0x107F4, symSize: 0x14 }
  - { offset: 0x98020, size: 0x8, addend: 0x0, symName: '__ZN4pyo38instance14Bound$LT$T$GT$2py17h0dc9510cae35e619E', symObjAddr: 0xB470, symBinAddr: 0x10808, symSize: 0x10 }
  - { offset: 0x9804C, size: 0x8, addend: 0x0, symName: '__ZN4pyo38instance14Bound$LT$T$GT$2py17h140801734090580aE', symObjAddr: 0xB480, symBinAddr: 0x10818, symSize: 0x10 }
  - { offset: 0x98078, size: 0x8, addend: 0x0, symName: '__ZN4pyo38instance14Bound$LT$T$GT$2py17h14640b83cd6b1a92E', symObjAddr: 0xB490, symBinAddr: 0x10828, symSize: 0x10 }
  - { offset: 0x980B1, size: 0x8, addend: 0x0, symName: '__ZN4pyo38instance14Bound$LT$T$GT$2py17h3b8c7c463be29c6fE', symObjAddr: 0xB4D0, symBinAddr: 0x10838, symSize: 0x10 }
  - { offset: 0x980EA, size: 0x8, addend: 0x0, symName: '__ZN4pyo38instance14Bound$LT$T$GT$2py17h408d5d10956eae5aE', symObjAddr: 0xB4F0, symBinAddr: 0x10848, symSize: 0x10 }
  - { offset: 0x98123, size: 0x8, addend: 0x0, symName: '__ZN4pyo38instance14Bound$LT$T$GT$2py17h67b8b9461463c19bE', symObjAddr: 0xB520, symBinAddr: 0x10858, symSize: 0x10 }
  - { offset: 0x98169, size: 0x8, addend: 0x0, symName: '__ZN4pyo38instance14Bound$LT$T$GT$2py17h83f3bb871a23a552E', symObjAddr: 0xB540, symBinAddr: 0x10868, symSize: 0x10 }
  - { offset: 0x981AF, size: 0x8, addend: 0x0, symName: '__ZN4pyo38instance14Bound$LT$T$GT$2py17h96d10b1336b5dd69E', symObjAddr: 0xB570, symBinAddr: 0x10878, symSize: 0x10 }
  - { offset: 0x9820F, size: 0x8, addend: 0x0, symName: '__ZN4pyo38instance14Bound$LT$T$GT$2py17hdd7db5e128f083bcE', symObjAddr: 0xB5E0, symBinAddr: 0x10888, symSize: 0x10 }
  - { offset: 0x9823B, size: 0x8, addend: 0x0, symName: '__ZN4pyo38instance14Bound$LT$T$GT$4cast17h2006eb808142bf97E', symObjAddr: 0xB630, symBinAddr: 0x10898, symSize: 0x30 }
  - { offset: 0x9826F, size: 0x8, addend: 0x0, symName: '__ZN4pyo38instance14Bound$LT$T$GT$4cast17h640dd730286744e7E', symObjAddr: 0xB660, symBinAddr: 0x108C8, symSize: 0x30 }
  - { offset: 0x982A3, size: 0x8, addend: 0x0, symName: '__ZN4pyo38instance14Bound$LT$T$GT$4cast17h9a52540da4d76324E', symObjAddr: 0xB690, symBinAddr: 0x108F8, symSize: 0x30 }
  - { offset: 0x982D7, size: 0x8, addend: 0x0, symName: '__ZN4pyo38instance14Bound$LT$T$GT$6as_any17h2f2d60fae0b90ef7E', symObjAddr: 0xB978, symBinAddr: 0x10AB4, symSize: 0x38 }
  - { offset: 0x9833F, size: 0x8, addend: 0x0, symName: '__ZN4pyo38instance14Bound$LT$T$GT$6as_any17h44b107793f890ae1E', symObjAddr: 0xB9E8, symBinAddr: 0x10AEC, symSize: 0x38 }
  - { offset: 0x983A7, size: 0x8, addend: 0x0, symName: '__ZN4pyo38instance14Bound$LT$T$GT$6as_any17h5ece2426c0b7983cE', symObjAddr: 0xBA58, symBinAddr: 0x10B24, symSize: 0x38 }
  - { offset: 0x9840F, size: 0x8, addend: 0x0, symName: '__ZN4pyo38instance14Bound$LT$T$GT$6as_any17h65bda36edde5f13dE', symObjAddr: 0xBA90, symBinAddr: 0x10B5C, symSize: 0x38 }
  - { offset: 0x98477, size: 0x8, addend: 0x0, symName: '__ZN4pyo38instance14Bound$LT$T$GT$6as_any17h67ac07f0c6d7264cE', symObjAddr: 0xBAC8, symBinAddr: 0x10B94, symSize: 0x38 }
  - { offset: 0x984DF, size: 0x8, addend: 0x0, symName: '__ZN4pyo38instance14Bound$LT$T$GT$6as_any17h71be13c349ab4d8eE', symObjAddr: 0xBB38, symBinAddr: 0x10BCC, symSize: 0x38 }
  - { offset: 0x98554, size: 0x8, addend: 0x0, symName: '__ZN4pyo38instance14Bound$LT$T$GT$6as_any17hc03b6a3243606810E', symObjAddr: 0xBC18, symBinAddr: 0x10C04, symSize: 0x38 }
  - { offset: 0x985BC, size: 0x8, addend: 0x0, symName: '__ZN4pyo38instance14Bound$LT$T$GT$6as_ptr17h03dee490ab47f045E', symObjAddr: 0xBCE0, symBinAddr: 0x10C3C, symSize: 0x2C }
  - { offset: 0x985E8, size: 0x8, addend: 0x0, symName: '__ZN4pyo38instance14Bound$LT$T$GT$6as_ptr17h4480856715dbfa41E', symObjAddr: 0xBDBC, symBinAddr: 0x10C68, symSize: 0x2C }
  - { offset: 0x98614, size: 0x8, addend: 0x0, symName: '__ZN4pyo38instance14Bound$LT$T$GT$6as_ptr17h4c388942f7055c0dE', symObjAddr: 0xBDE8, symBinAddr: 0x10C94, symSize: 0x2C }
  - { offset: 0x98640, size: 0x8, addend: 0x0, symName: '__ZN4pyo38instance14Bound$LT$T$GT$6as_ptr17h5a08240318a9a86cE', symObjAddr: 0xBE40, symBinAddr: 0x10CC0, symSize: 0x2C }
  - { offset: 0x98679, size: 0x8, addend: 0x0, symName: '__ZN4pyo38instance14Bound$LT$T$GT$6as_ptr17h6b9cf828f8b9a866E', symObjAddr: 0xBEC4, symBinAddr: 0x10CEC, symSize: 0x2C }
  - { offset: 0x986B2, size: 0x8, addend: 0x0, symName: '__ZN4pyo38instance14Bound$LT$T$GT$6as_ptr17h7b0f1209729abcd7E', symObjAddr: 0xBFF8, symBinAddr: 0x10D18, symSize: 0x2C }
  - { offset: 0x986DE, size: 0x8, addend: 0x0, symName: '__ZN4pyo38instance14Bound$LT$T$GT$6as_ptr17h89b2da30e71b1eb5E', symObjAddr: 0xC024, symBinAddr: 0x10D44, symSize: 0x2C }
  - { offset: 0x9870A, size: 0x8, addend: 0x0, symName: '__ZN4pyo38instance14Bound$LT$T$GT$6as_ptr17h91c915d0b2a02467E', symObjAddr: 0xC07C, symBinAddr: 0x10D70, symSize: 0x2C }
  - { offset: 0x98736, size: 0x8, addend: 0x0, symName: '__ZN4pyo38instance14Bound$LT$T$GT$6as_ptr17hc1e81fd16993b828E', symObjAddr: 0xC0A8, symBinAddr: 0x10D9C, symSize: 0x2C }
  - { offset: 0x98762, size: 0x8, addend: 0x0, symName: '__ZN4pyo38instance14Bound$LT$T$GT$6as_ptr17hc97197a864722b4cE', symObjAddr: 0xC0D4, symBinAddr: 0x10DC8, symSize: 0x2C }
  - { offset: 0x9878E, size: 0x8, addend: 0x0, symName: '__ZN4pyo38instance14Bound$LT$T$GT$6as_ptr17hfac68a496bb6184fE', symObjAddr: 0xC208, symBinAddr: 0x10DF4, symSize: 0x2C }
  - { offset: 0x987BA, size: 0x8, addend: 0x0, symName: '__ZN4pyo38instance14Bound$LT$T$GT$6unbind17h1350167d96fecd27E', symObjAddr: 0xC234, symBinAddr: 0x10E20, symSize: 0x3C }
  - { offset: 0x987E6, size: 0x8, addend: 0x0, symName: '__ZN4pyo38instance14Bound$LT$T$GT$6unbind17h145299bec1f466ebE', symObjAddr: 0xC270, symBinAddr: 0x10E5C, symSize: 0x3C }
  - { offset: 0x98812, size: 0x8, addend: 0x0, symName: '__ZN4pyo38instance14Bound$LT$T$GT$6unbind17h3f9f8b2cde77174cE', symObjAddr: 0xC2AC, symBinAddr: 0x10E98, symSize: 0x3C }
  - { offset: 0x9883E, size: 0x8, addend: 0x0, symName: '__ZN4pyo38instance14Bound$LT$T$GT$6unbind17h6b7376899001fd2aE', symObjAddr: 0xC39C, symBinAddr: 0x10ED4, symSize: 0x3C }
  - { offset: 0x9886A, size: 0x8, addend: 0x0, symName: '__ZN4pyo38instance14Bound$LT$T$GT$6unbind17h8aaeec7b56c2976bE', symObjAddr: 0xC3D8, symBinAddr: 0x10F10, symSize: 0x3C }
  - { offset: 0x98896, size: 0x8, addend: 0x0, symName: '__ZN4pyo38instance14Bound$LT$T$GT$6unbind17hb3d1385f346db21aE', symObjAddr: 0xC48C, symBinAddr: 0x10F4C, symSize: 0x3C }
  - { offset: 0x988C2, size: 0x8, addend: 0x0, symName: '__ZN4pyo38instance14Bound$LT$T$GT$6unbind17hc4c8172b99f3a398E', symObjAddr: 0xC4C8, symBinAddr: 0x10F88, symSize: 0x3C }
  - { offset: 0x988EE, size: 0x8, addend: 0x0, symName: '__ZN4pyo38instance14Bound$LT$T$GT$8into_any17h122431e512a69198E', symObjAddr: 0xC5AC, symBinAddr: 0x10FC4, symSize: 0x30 }
  - { offset: 0x9891A, size: 0x8, addend: 0x0, symName: '__ZN4pyo38instance14Bound$LT$T$GT$8into_any17h514e4fdb9dd52b97E', symObjAddr: 0xC5DC, symBinAddr: 0x10FF4, symSize: 0x30 }
  - { offset: 0x98946, size: 0x8, addend: 0x0, symName: '__ZN4pyo38instance14Bound$LT$T$GT$8into_any17h5dcfb7de5d7db60eE', symObjAddr: 0xC60C, symBinAddr: 0x11024, symSize: 0x30 }
  - { offset: 0x98972, size: 0x8, addend: 0x0, symName: '__ZN4pyo38instance14Bound$LT$T$GT$8into_any17h821666628a670972E', symObjAddr: 0xC63C, symBinAddr: 0x11054, symSize: 0x30 }
  - { offset: 0x9899E, size: 0x8, addend: 0x0, symName: '__ZN4pyo38instance14Bound$LT$T$GT$8into_any17hb80744d82760d599E', symObjAddr: 0xC69C, symBinAddr: 0x11084, symSize: 0x30 }
  - { offset: 0x989CA, size: 0x8, addend: 0x0, symName: '__ZN4pyo38instance14Bound$LT$T$GT$8into_any17hf643928f5a2f9d77E', symObjAddr: 0xC72C, symBinAddr: 0x110B4, symSize: 0x30 }
  - { offset: 0x989F6, size: 0x8, addend: 0x0, symName: '__ZN4pyo38instance14Bound$LT$T$GT$8into_ptr17hd3579e1fcf1f9bf6E', symObjAddr: 0xC75C, symBinAddr: 0x110E4, symSize: 0x40 }
  - { offset: 0x98A22, size: 0x8, addend: 0x0, symName: '__ZN4pyo38instance14Bound$LT$T$GT$9cast_into17h09d2c57a92909d03E', symObjAddr: 0xC79C, symBinAddr: 0x11124, symSize: 0x30 }
  - { offset: 0x98A56, size: 0x8, addend: 0x0, symName: '__ZN4pyo38instance14Bound$LT$T$GT$9cast_into17h214b62a61c0e16c9E', symObjAddr: 0xC7FC, symBinAddr: 0x11154, symSize: 0x30 }
  - { offset: 0x98A8A, size: 0x8, addend: 0x0, symName: '__ZN4pyo38instance14Bound$LT$T$GT$9cast_into17ha8693a808dc46dd7E', symObjAddr: 0xC91C, symBinAddr: 0x11184, symSize: 0x30 }
  - { offset: 0x98ABE, size: 0x8, addend: 0x0, symName: '__ZN4pyo38instance17Borrowed$LT$T$GT$14cast_unchecked17h0433c5c439915506E', symObjAddr: 0xD400, symBinAddr: 0x114A8, symSize: 0x14 }
  - { offset: 0x98AF3, size: 0x8, addend: 0x0, symName: '__ZN4pyo38instance17Borrowed$LT$T$GT$14cast_unchecked17h21b1024d8b2d86b6E', symObjAddr: 0xD428, symBinAddr: 0x114BC, symSize: 0x14 }
  - { offset: 0x98B28, size: 0x8, addend: 0x0, symName: '__ZN4pyo38instance17Borrowed$LT$T$GT$14cast_unchecked17h61e731ac60622a7dE', symObjAddr: 0xD450, symBinAddr: 0x114D0, symSize: 0x14 }
  - { offset: 0x98B5D, size: 0x8, addend: 0x0, symName: '__ZN4pyo38instance17Borrowed$LT$T$GT$14cast_unchecked17h835ab82a9613b971E', symObjAddr: 0xD48C, symBinAddr: 0x114E4, symSize: 0x14 }
  - { offset: 0x98B92, size: 0x8, addend: 0x0, symName: '__ZN4pyo38instance17Borrowed$LT$T$GT$14cast_unchecked17h912cfc35834b7966E', symObjAddr: 0xD4C8, symBinAddr: 0x114F8, symSize: 0x14 }
  - { offset: 0x98BC7, size: 0x8, addend: 0x0, symName: '__ZN4pyo38instance17Borrowed$LT$T$GT$14cast_unchecked17ha070d04110e152e6E', symObjAddr: 0xD504, symBinAddr: 0x1150C, symSize: 0x14 }
  - { offset: 0x98BFC, size: 0x8, addend: 0x0, symName: '__ZN4pyo38instance17Borrowed$LT$T$GT$14cast_unchecked17hb20e8d3f40c42fbaE', symObjAddr: 0xD52C, symBinAddr: 0x11520, symSize: 0x14 }
  - { offset: 0x98C31, size: 0x8, addend: 0x0, symName: '__ZN4pyo38instance17Borrowed$LT$T$GT$14cast_unchecked17hd17aa819376dea7aE', symObjAddr: 0xD540, symBinAddr: 0x11534, symSize: 0x14 }
  - { offset: 0x98C66, size: 0x8, addend: 0x0, symName: '__ZN4pyo38instance17Borrowed$LT$T$GT$14cast_unchecked17hd79f7dda52ab2986E', symObjAddr: 0xD554, symBinAddr: 0x11548, symSize: 0x14 }
  - { offset: 0x98C9B, size: 0x8, addend: 0x0, symName: '__ZN4pyo38instance17Borrowed$LT$T$GT$4cast17hbaaed9e602e3efeeE', symObjAddr: 0xD628, symBinAddr: 0x1155C, symSize: 0x30 }
  - { offset: 0x98CD0, size: 0x8, addend: 0x0, symName: '__ZN4pyo38instance17Borrowed$LT$T$GT$6as_ptr17h3adefd4cb5f41f00E', symObjAddr: 0xD98C, symBinAddr: 0x11608, symSize: 0x1C }
  - { offset: 0x98CFC, size: 0x8, addend: 0x0, symName: '__ZN4pyo38instance17Borrowed$LT$T$GT$6as_ptr17h4428691482917b59E', symObjAddr: 0xD9A8, symBinAddr: 0x11624, symSize: 0x1C }
  - { offset: 0x98D28, size: 0x8, addend: 0x0, symName: '__ZN4pyo38instance17Borrowed$LT$T$GT$6as_ptr17h531e8c75d393535cE', symObjAddr: 0xD9C4, symBinAddr: 0x11640, symSize: 0x1C }
  - { offset: 0x98D54, size: 0x8, addend: 0x0, symName: '__ZN4pyo38instance17Borrowed$LT$T$GT$6as_ptr17h763216be87d11c74E', symObjAddr: 0xD9FC, symBinAddr: 0x1165C, symSize: 0x1C }
  - { offset: 0x98D80, size: 0x8, addend: 0x0, symName: '__ZN4pyo38instance17Borrowed$LT$T$GT$6as_ptr17ha08a88346a964c47E', symObjAddr: 0xDA18, symBinAddr: 0x11678, symSize: 0x1C }
  - { offset: 0x98DAC, size: 0x8, addend: 0x0, symName: '__ZN4pyo38instance17Borrowed$LT$T$GT$6to_any17h19f384f9e70ec6a4E', symObjAddr: 0xDA34, symBinAddr: 0x11694, symSize: 0x14 }
  - { offset: 0x98DD8, size: 0x8, addend: 0x0, symName: '__ZN4pyo38instance17Borrowed$LT$T$GT$6to_any17h2edaba797df024edE', symObjAddr: 0xDA48, symBinAddr: 0x116A8, symSize: 0x14 }
  - { offset: 0x98E04, size: 0x8, addend: 0x0, symName: '__ZN4pyo38instance17Borrowed$LT$T$GT$6to_any17h30058e5a1af3707bE', symObjAddr: 0xDA5C, symBinAddr: 0x116BC, symSize: 0x14 }
  - { offset: 0x98E30, size: 0x8, addend: 0x0, symName: '__ZN4pyo38instance17Borrowed$LT$T$GT$6to_any17hce8739d3fcfc190aE', symObjAddr: 0xDAAC, symBinAddr: 0x116D0, symSize: 0x14 }
  - { offset: 0x98E98, size: 0x8, addend: 0x0, symName: '__ZN4pyo38instance17Borrowed$LT$T$GT$7extract17h667495682f866c14E', symObjAddr: 0xDC54, symBinAddr: 0x116E4, symSize: 0x30 }
  - { offset: 0x98ED4, size: 0x8, addend: 0x0, symName: '__ZN4pyo38instance17Borrowed$LT$T$GT$8to_owned17h5311e0d67f72e87eE', symObjAddr: 0xDE04, symBinAddr: 0x11714, symSize: 0x2C }
  - { offset: 0x98F00, size: 0x8, addend: 0x0, symName: '__ZN4pyo38instance17Borrowed$LT$T$GT$8to_owned17h988b6b3043be483dE', symObjAddr: 0xDE5C, symBinAddr: 0x11740, symSize: 0x2C }
  - { offset: 0x98F2C, size: 0x8, addend: 0x0, symName: '__ZN4pyo38instance17Borrowed$LT$T$GT$8to_owned17h9ee9e9fb7d680a4aE', symObjAddr: 0xDE88, symBinAddr: 0x1176C, symSize: 0x2C }
  - { offset: 0x98F90, size: 0x8, addend: 0x0, symName: '__ZN4pyo38instance36Bound$LT$pyo3..types..any..PyAny$GT$14from_owned_ptr17hd9de8988a2d21c07E', symObjAddr: 0xDF44, symBinAddr: 0x11798, symSize: 0x48 }
  - { offset: 0x98FF9, size: 0x8, addend: 0x0, symName: '__ZN4pyo38instance36Bound$LT$pyo3..types..any..PyAny$GT$17ref_from_non_null17ha473e0236650bf7eE', symObjAddr: 0xDFA8, symBinAddr: 0x117FC, symSize: 0x38 }
  - { offset: 0x99080, size: 0x8, addend: 0x0, symName: '__ZN4pyo38instance36Bound$LT$pyo3..types..any..PyAny$GT$21from_owned_ptr_or_err17h8416f83d91dfd033E', symObjAddr: 0xE018, symBinAddr: 0x11834, symSize: 0x9C }
  - { offset: 0x990DC, size: 0x8, addend: 0x0, symName: '__ZN4pyo38instance36Bound$LT$pyo3..types..any..PyAny$GT$21from_owned_ptr_or_opt17hec1beb7dc7c4b824E', symObjAddr: 0xE0B4, symBinAddr: 0x118D0, symSize: 0x2C }
  - { offset: 0x9911A, size: 0x8, addend: 0x0, symName: '__ZN4pyo38instance39Borrowed$LT$pyo3..types..any..PyAny$GT$13from_non_null17hbca550ebd1c66255E', symObjAddr: 0xE150, symBinAddr: 0x11934, symSize: 0x14 }
  - { offset: 0x99158, size: 0x8, addend: 0x0, symName: '__ZN4pyo38instance39Borrowed$LT$pyo3..types..any..PyAny$GT$18from_ptr_unchecked17ha29ae1f681c71235E', symObjAddr: 0xE234, symBinAddr: 0x119E0, symSize: 0x30 }
  - { offset: 0x99196, size: 0x8, addend: 0x0, symName: '__ZN4pyo38internal8get_slot78_$LT$impl$u20$pyo3..instance..Bound$LT$pyo3..types..typeobject..PyType$GT$$GT$8get_slot17h28290aaca1c40815E', symObjAddr: 0xE2C0, symBinAddr: 0x11A2C, symSize: 0x28 }
  - { offset: 0x991D1, size: 0x8, addend: 0x0, symName: '__ZN4pyo38internal8get_slot78_$LT$impl$u20$pyo3..instance..Bound$LT$pyo3..types..typeobject..PyType$GT$$GT$8get_slot17h9a4462752471a41cE', symObjAddr: 0xE2E8, symBinAddr: 0x11A54, symSize: 0x28 }
  - { offset: 0x9920C, size: 0x8, addend: 0x0, symName: '__ZN4pyo38internal8get_slot78_$LT$impl$u20$pyo3..instance..Bound$LT$pyo3..types..typeobject..PyType$GT$$GT$8get_slot17hd0c6283b21184c68E', symObjAddr: 0xE310, symBinAddr: 0x11A7C, symSize: 0x28 }
  - { offset: 0x99247, size: 0x8, addend: 0x0, symName: '__ZN4pyo38internal8get_slot78_$LT$impl$u20$pyo3..instance..Bound$LT$pyo3..types..typeobject..PyType$GT$$GT$8get_slot17hd271f0a6d50a8891E', symObjAddr: 0xE338, symBinAddr: 0x11AA4, symSize: 0x28 }
  - { offset: 0x99282, size: 0x8, addend: 0x0, symName: '__ZN4pyo38internal8get_slot81_$LT$impl$u20$pyo3..instance..Borrowed$LT$pyo3..types..typeobject..PyType$GT$$GT$8get_slot17h5c58a611767939adE', symObjAddr: 0xE360, symBinAddr: 0x11ACC, symSize: 0x30 }
  - { offset: 0x9A7AC, size: 0x8, addend: 0x0, symName: '__ZN153_$LT$core..result..Result$LT$T$C$F$GT$$u20$as$u20$core..ops..try_trait..FromResidual$LT$core..result..Result$LT$core..convert..Infallible$C$E$GT$$GT$$GT$13from_residual17h02f813f46254b0e6E', symObjAddr: 0x7C4, symBinAddr: 0x13890, symSize: 0x6C }
  - { offset: 0x9A832, size: 0x8, addend: 0x0, symName: '__ZN153_$LT$core..result..Result$LT$T$C$F$GT$$u20$as$u20$core..ops..try_trait..FromResidual$LT$core..result..Result$LT$core..convert..Infallible$C$E$GT$$GT$$GT$13from_residual17h0486551a23b912d2E', symObjAddr: 0x830, symBinAddr: 0x138FC, symSize: 0x64 }
  - { offset: 0x9A89A, size: 0x8, addend: 0x0, symName: '__ZN153_$LT$core..result..Result$LT$T$C$F$GT$$u20$as$u20$core..ops..try_trait..FromResidual$LT$core..result..Result$LT$core..convert..Infallible$C$E$GT$$GT$$GT$13from_residual17h05aab684b49c0e2eE', symObjAddr: 0x89C, symBinAddr: 0x13960, symSize: 0x6C }
  - { offset: 0x9A901, size: 0x8, addend: 0x0, symName: '__ZN153_$LT$core..result..Result$LT$T$C$F$GT$$u20$as$u20$core..ops..try_trait..FromResidual$LT$core..result..Result$LT$core..convert..Infallible$C$E$GT$$GT$$GT$13from_residual17h0c665cd8e75bfb13E', symObjAddr: 0x9E0, symBinAddr: 0x139CC, symSize: 0x6C }
  - { offset: 0x9A987, size: 0x8, addend: 0x0, symName: '__ZN153_$LT$core..result..Result$LT$T$C$F$GT$$u20$as$u20$core..ops..try_trait..FromResidual$LT$core..result..Result$LT$core..convert..Infallible$C$E$GT$$GT$$GT$13from_residual17h0e67fc6090cc11a8E', symObjAddr: 0xA4C, symBinAddr: 0x13A38, symSize: 0x6C }
  - { offset: 0x9AA0D, size: 0x8, addend: 0x0, symName: '__ZN153_$LT$core..result..Result$LT$T$C$F$GT$$u20$as$u20$core..ops..try_trait..FromResidual$LT$core..result..Result$LT$core..convert..Infallible$C$E$GT$$GT$$GT$13from_residual17h160b4419521c0f10E', symObjAddr: 0xAB8, symBinAddr: 0x13AA4, symSize: 0x6C }
  - { offset: 0x9AA93, size: 0x8, addend: 0x0, symName: '__ZN153_$LT$core..result..Result$LT$T$C$F$GT$$u20$as$u20$core..ops..try_trait..FromResidual$LT$core..result..Result$LT$core..convert..Infallible$C$E$GT$$GT$$GT$13from_residual17h2d5ed356725ccd4eE', symObjAddr: 0xCD4, symBinAddr: 0x13B10, symSize: 0x6C }
  - { offset: 0x9AAFA, size: 0x8, addend: 0x0, symName: '__ZN153_$LT$core..result..Result$LT$T$C$F$GT$$u20$as$u20$core..ops..try_trait..FromResidual$LT$core..result..Result$LT$core..convert..Infallible$C$E$GT$$GT$$GT$13from_residual17h34c8a9ee037dc6efE', symObjAddr: 0xDAC, symBinAddr: 0x13B7C, symSize: 0x6C }
  - { offset: 0x9AB80, size: 0x8, addend: 0x0, symName: '__ZN153_$LT$core..result..Result$LT$T$C$F$GT$$u20$as$u20$core..ops..try_trait..FromResidual$LT$core..result..Result$LT$core..convert..Infallible$C$E$GT$$GT$$GT$13from_residual17h396dea1dc66d9dd2E', symObjAddr: 0xEF0, symBinAddr: 0x13BE8, symSize: 0x6C }
  - { offset: 0x9AC06, size: 0x8, addend: 0x0, symName: '__ZN153_$LT$core..result..Result$LT$T$C$F$GT$$u20$as$u20$core..ops..try_trait..FromResidual$LT$core..result..Result$LT$core..convert..Infallible$C$E$GT$$GT$$GT$13from_residual17h3baf7243f6187be8E', symObjAddr: 0x10A0, symBinAddr: 0x13C54, symSize: 0x6C }
  - { offset: 0x9AC8C, size: 0x8, addend: 0x0, symName: '__ZN153_$LT$core..result..Result$LT$T$C$F$GT$$u20$as$u20$core..ops..try_trait..FromResidual$LT$core..result..Result$LT$core..convert..Infallible$C$E$GT$$GT$$GT$13from_residual17h4628a02dae9cb35eE', symObjAddr: 0x1178, symBinAddr: 0x13CC0, symSize: 0x6C }
  - { offset: 0x9AD12, size: 0x8, addend: 0x0, symName: '__ZN153_$LT$core..result..Result$LT$T$C$F$GT$$u20$as$u20$core..ops..try_trait..FromResidual$LT$core..result..Result$LT$core..convert..Infallible$C$E$GT$$GT$$GT$13from_residual17h6059d07c5e9fd6c8E', symObjAddr: 0x14F4, symBinAddr: 0x13D2C, symSize: 0x6C }
  - { offset: 0x9AD98, size: 0x8, addend: 0x0, symName: '__ZN153_$LT$core..result..Result$LT$T$C$F$GT$$u20$as$u20$core..ops..try_trait..FromResidual$LT$core..result..Result$LT$core..convert..Infallible$C$E$GT$$GT$$GT$13from_residual17h98afd8df0a2258f7E', symObjAddr: 0x1BF4, symBinAddr: 0x13D98, symSize: 0x6C }
  - { offset: 0x9AE1E, size: 0x8, addend: 0x0, symName: '__ZN153_$LT$core..result..Result$LT$T$C$F$GT$$u20$as$u20$core..ops..try_trait..FromResidual$LT$core..result..Result$LT$core..convert..Infallible$C$E$GT$$GT$$GT$13from_residual17ha592fda6be1c0675E', symObjAddr: 0x2004, symBinAddr: 0x13E04, symSize: 0x6C }
  - { offset: 0x9AEA4, size: 0x8, addend: 0x0, symName: '__ZN153_$LT$core..result..Result$LT$T$C$F$GT$$u20$as$u20$core..ops..try_trait..FromResidual$LT$core..result..Result$LT$core..convert..Infallible$C$E$GT$$GT$$GT$13from_residual17ha6ab4882313f1951E', symObjAddr: 0x2070, symBinAddr: 0x13E70, symSize: 0x6C }
  - { offset: 0x9AF2A, size: 0x8, addend: 0x0, symName: '__ZN153_$LT$core..result..Result$LT$T$C$F$GT$$u20$as$u20$core..ops..try_trait..FromResidual$LT$core..result..Result$LT$core..convert..Infallible$C$E$GT$$GT$$GT$13from_residual17hc47e2cfb49ee3a17E', symObjAddr: 0x243C, symBinAddr: 0x13EDC, symSize: 0x6C }
  - { offset: 0x9AFB0, size: 0x8, addend: 0x0, symName: '__ZN153_$LT$core..result..Result$LT$T$C$F$GT$$u20$as$u20$core..ops..try_trait..FromResidual$LT$core..result..Result$LT$core..convert..Infallible$C$E$GT$$GT$$GT$13from_residual17hc69b408cf8780bfaE', symObjAddr: 0x24A8, symBinAddr: 0x13F48, symSize: 0x14 }
  - { offset: 0x9AFF9, size: 0x8, addend: 0x0, symName: '__ZN153_$LT$core..result..Result$LT$T$C$F$GT$$u20$as$u20$core..ops..try_trait..FromResidual$LT$core..result..Result$LT$core..convert..Infallible$C$E$GT$$GT$$GT$13from_residual17hda01bc6d537679d9E', symObjAddr: 0x27D4, symBinAddr: 0x13F5C, symSize: 0x6C }
  - { offset: 0x9B060, size: 0x8, addend: 0x0, symName: '__ZN153_$LT$core..result..Result$LT$T$C$F$GT$$u20$as$u20$core..ops..try_trait..FromResidual$LT$core..result..Result$LT$core..convert..Infallible$C$E$GT$$GT$$GT$13from_residual17hddb484b9ec8f6fe2E', symObjAddr: 0x2918, symBinAddr: 0x13FC8, symSize: 0x6C }
  - { offset: 0x9B0E6, size: 0x8, addend: 0x0, symName: '__ZN153_$LT$core..result..Result$LT$T$C$F$GT$$u20$as$u20$core..ops..try_trait..FromResidual$LT$core..result..Result$LT$core..convert..Infallible$C$E$GT$$GT$$GT$13from_residual17he941727382e3404eE', symObjAddr: 0x2B34, symBinAddr: 0x14034, symSize: 0x6C }
  - { offset: 0x9D933, size: 0x8, addend: 0x0, symName: '__ZN79_$LT$core..result..Result$LT$T$C$E$GT$$u20$as$u20$core..ops..try_trait..Try$GT$6branch17h26e1cac90b0001a8E', symObjAddr: 0x7044, symBinAddr: 0x14DE0, symSize: 0x68 }
  - { offset: 0x9D9B0, size: 0x8, addend: 0x0, symName: '__ZN79_$LT$core..result..Result$LT$T$C$E$GT$$u20$as$u20$core..ops..try_trait..Try$GT$6branch17h26e72c65bbec2f2aE', symObjAddr: 0x70AC, symBinAddr: 0x14E48, symSize: 0x68 }
  - { offset: 0x9DA2D, size: 0x8, addend: 0x0, symName: '__ZN79_$LT$core..result..Result$LT$T$C$E$GT$$u20$as$u20$core..ops..try_trait..Try$GT$6branch17h449a5e59bba50f31E', symObjAddr: 0x7364, symBinAddr: 0x14EB0, symSize: 0xAC }
  - { offset: 0x9DAAA, size: 0x8, addend: 0x0, symName: '__ZN79_$LT$core..result..Result$LT$T$C$E$GT$$u20$as$u20$core..ops..try_trait..Try$GT$6branch17h48463df363bd4168E', symObjAddr: 0x74B0, symBinAddr: 0x14F5C, symSize: 0x94 }
  - { offset: 0x9DB28, size: 0x8, addend: 0x0, symName: '__ZN79_$LT$core..result..Result$LT$T$C$E$GT$$u20$as$u20$core..ops..try_trait..Try$GT$6branch17h4915dfe7718d24f7E', symObjAddr: 0x7544, symBinAddr: 0x14FF0, symSize: 0xA0 }
  - { offset: 0x9DBA5, size: 0x8, addend: 0x0, symName: '__ZN79_$LT$core..result..Result$LT$T$C$E$GT$$u20$as$u20$core..ops..try_trait..Try$GT$6branch17h58e47e67b2f136cbE', symObjAddr: 0x77C4, symBinAddr: 0x15090, symSize: 0xA0 }
  - { offset: 0x9DC22, size: 0x8, addend: 0x0, symName: '__ZN79_$LT$core..result..Result$LT$T$C$E$GT$$u20$as$u20$core..ops..try_trait..Try$GT$6branch17h5e66e8e2c2280401E', symObjAddr: 0x7864, symBinAddr: 0x15130, symSize: 0xA0 }
  - { offset: 0x9DC9F, size: 0x8, addend: 0x0, symName: '__ZN79_$LT$core..result..Result$LT$T$C$E$GT$$u20$as$u20$core..ops..try_trait..Try$GT$6branch17h6fe758343bbf037aE', symObjAddr: 0x7B4C, symBinAddr: 0x151D0, symSize: 0xA0 }
  - { offset: 0x9DD1C, size: 0x8, addend: 0x0, symName: '__ZN79_$LT$core..result..Result$LT$T$C$E$GT$$u20$as$u20$core..ops..try_trait..Try$GT$6branch17h70113a1188591040E', symObjAddr: 0x7BEC, symBinAddr: 0x15270, symSize: 0xA0 }
  - { offset: 0x9DD99, size: 0x8, addend: 0x0, symName: '__ZN79_$LT$core..result..Result$LT$T$C$E$GT$$u20$as$u20$core..ops..try_trait..Try$GT$6branch17h71fc9ae1ebec40f3E', symObjAddr: 0x7C8C, symBinAddr: 0x15310, symSize: 0xAC }
  - { offset: 0x9DE16, size: 0x8, addend: 0x0, symName: '__ZN79_$LT$core..result..Result$LT$T$C$E$GT$$u20$as$u20$core..ops..try_trait..Try$GT$6branch17h975cd524580a8bc7E', symObjAddr: 0x8014, symBinAddr: 0x153BC, symSize: 0xA0 }
  - { offset: 0x9DE93, size: 0x8, addend: 0x0, symName: '__ZN79_$LT$core..result..Result$LT$T$C$E$GT$$u20$as$u20$core..ops..try_trait..Try$GT$6branch17h9ad99f56d7b34af1E', symObjAddr: 0x8154, symBinAddr: 0x1545C, symSize: 0xA0 }
  - { offset: 0x9DF10, size: 0x8, addend: 0x0, symName: '__ZN79_$LT$core..result..Result$LT$T$C$E$GT$$u20$as$u20$core..ops..try_trait..Try$GT$6branch17ha0b2cb175728ae7bE', symObjAddr: 0x829C, symBinAddr: 0x154FC, symSize: 0x38 }
  - { offset: 0x9DF8C, size: 0x8, addend: 0x0, symName: '__ZN79_$LT$core..result..Result$LT$T$C$E$GT$$u20$as$u20$core..ops..try_trait..Try$GT$6branch17ha9f503f390d21e52E', symObjAddr: 0x8488, symBinAddr: 0x15534, symSize: 0xB4 }
  - { offset: 0x9E00A, size: 0x8, addend: 0x0, symName: '__ZN79_$LT$core..result..Result$LT$T$C$E$GT$$u20$as$u20$core..ops..try_trait..Try$GT$6branch17hac717b7f1e811726E', symObjAddr: 0x85DC, symBinAddr: 0x155E8, symSize: 0xA0 }
  - { offset: 0x9E087, size: 0x8, addend: 0x0, symName: '__ZN79_$LT$core..result..Result$LT$T$C$E$GT$$u20$as$u20$core..ops..try_trait..Try$GT$6branch17hada368fe40c97af6E', symObjAddr: 0x867C, symBinAddr: 0x15688, symSize: 0xA0 }
  - { offset: 0x9E104, size: 0x8, addend: 0x0, symName: '__ZN79_$LT$core..result..Result$LT$T$C$E$GT$$u20$as$u20$core..ops..try_trait..Try$GT$6branch17hbb7a27859ffefda8E', symObjAddr: 0x89CC, symBinAddr: 0x15728, symSize: 0x68 }
  - { offset: 0x9E181, size: 0x8, addend: 0x0, symName: '__ZN79_$LT$core..result..Result$LT$T$C$E$GT$$u20$as$u20$core..ops..try_trait..Try$GT$6branch17hbffe6b4805b65a51E', symObjAddr: 0x8A34, symBinAddr: 0x15790, symSize: 0xC4 }
  - { offset: 0x9E1FF, size: 0x8, addend: 0x0, symName: '__ZN79_$LT$core..result..Result$LT$T$C$E$GT$$u20$as$u20$core..ops..try_trait..Try$GT$6branch17hc41d330a283c9ac6E', symObjAddr: 0x8C38, symBinAddr: 0x15854, symSize: 0xA0 }
  - { offset: 0x9E27C, size: 0x8, addend: 0x0, symName: '__ZN79_$LT$core..result..Result$LT$T$C$E$GT$$u20$as$u20$core..ops..try_trait..Try$GT$6branch17hc8bcbd277818bb61E', symObjAddr: 0x8CD8, symBinAddr: 0x158F4, symSize: 0xA0 }
  - { offset: 0x9E2F9, size: 0x8, addend: 0x0, symName: '__ZN79_$LT$core..result..Result$LT$T$C$E$GT$$u20$as$u20$core..ops..try_trait..Try$GT$6branch17hcfd8248b795caf6aE', symObjAddr: 0x8E24, symBinAddr: 0x15994, symSize: 0x44 }
  - { offset: 0x9E375, size: 0x8, addend: 0x0, symName: '__ZN79_$LT$core..result..Result$LT$T$C$E$GT$$u20$as$u20$core..ops..try_trait..Try$GT$6branch17hda0f1f554fe320e5E', symObjAddr: 0x9060, symBinAddr: 0x159D8, symSize: 0x90 }
  - { offset: 0x9E3F2, size: 0x8, addend: 0x0, symName: '__ZN79_$LT$core..result..Result$LT$T$C$E$GT$$u20$as$u20$core..ops..try_trait..Try$GT$6branch17he0e6e1f450e27af5E', symObjAddr: 0x90F0, symBinAddr: 0x15A68, symSize: 0x14 }
  - { offset: 0x9E42E, size: 0x8, addend: 0x0, symName: '__ZN79_$LT$core..result..Result$LT$T$C$E$GT$$u20$as$u20$core..ops..try_trait..Try$GT$6branch17hf6dbb36cb52d5abcE', symObjAddr: 0x92F8, symBinAddr: 0x15A7C, symSize: 0xA0 }
  - { offset: 0x9E4AB, size: 0x8, addend: 0x0, symName: '__ZN79_$LT$core..result..Result$LT$T$C$E$GT$$u20$as$u20$core..ops..try_trait..Try$GT$6branch17hf70ea18b07da3c12E', symObjAddr: 0x9398, symBinAddr: 0x15B1C, symSize: 0xA0 }
  - { offset: 0x9E528, size: 0x8, addend: 0x0, symName: '__ZN79_$LT$core..result..Result$LT$T$C$E$GT$$u20$as$u20$core..ops..try_trait..Try$GT$6branch17hfda0c062ed1eeb55E', symObjAddr: 0x9438, symBinAddr: 0x15BBC, symSize: 0xA0 }
  - { offset: 0xA10B0, size: 0x8, addend: 0x0, symName: '__ZN152_$LT$core..result..Result$LT$pyo3..instance..Bound$LT$pyo3..types..any..PyAny$GT$$C$pyo3..err..PyErr$GT$$u20$as$u20$pyo3..py_result_ext..PyResultExt$GT$19cast_into_unchecked17h455fee924dce630eE', symObjAddr: 0x100, symBinAddr: 0x13790, symSize: 0x40 }
  - { offset: 0xA10E6, size: 0x8, addend: 0x0, symName: '__ZN152_$LT$core..result..Result$LT$pyo3..instance..Bound$LT$pyo3..types..any..PyAny$GT$$C$pyo3..err..PyErr$GT$$u20$as$u20$pyo3..py_result_ext..PyResultExt$GT$19cast_into_unchecked17h8f0c9674287a9f86E', symObjAddr: 0x200, symBinAddr: 0x137D0, symSize: 0x40 }
  - { offset: 0xA111C, size: 0x8, addend: 0x0, symName: '__ZN152_$LT$core..result..Result$LT$pyo3..instance..Bound$LT$pyo3..types..any..PyAny$GT$$C$pyo3..err..PyErr$GT$$u20$as$u20$pyo3..py_result_ext..PyResultExt$GT$19cast_into_unchecked17hceb1d2536177c89aE', symObjAddr: 0x380, symBinAddr: 0x13810, symSize: 0x40 }
  - { offset: 0xA1152, size: 0x8, addend: 0x0, symName: '__ZN152_$LT$core..result..Result$LT$pyo3..instance..Bound$LT$pyo3..types..any..PyAny$GT$$C$pyo3..err..PyErr$GT$$u20$as$u20$pyo3..py_result_ext..PyResultExt$GT$19cast_into_unchecked17hd654d8142ac6e416E', symObjAddr: 0x400, symBinAddr: 0x13850, symSize: 0x40 }
  - { offset: 0xA2742, size: 0x8, addend: 0x0, symName: '__ZN4core6result19Result$LT$T$C$E$GT$14unwrap_or_else17hf36d743d6a943e71E', symObjAddr: 0x2F28, symBinAddr: 0x140A0, symSize: 0x8C }
  - { offset: 0xA27C6, size: 0x8, addend: 0x0, symName: '__ZN4core6result19Result$LT$T$C$E$GT$3map17h01a1490f9024443cE', symObjAddr: 0x3080, symBinAddr: 0x1412C, symSize: 0x90 }
  - { offset: 0xA2898, size: 0x8, addend: 0x0, symName: '__ZN4core6result19Result$LT$T$C$E$GT$3map17h61d46ded0a4da6a4E', symObjAddr: 0x37D8, symBinAddr: 0x141BC, symSize: 0xA0 }
  - { offset: 0xA292B, size: 0x8, addend: 0x0, symName: '__ZN4core6result19Result$LT$T$C$E$GT$3map17h65ef405aeeaed9d9E', symObjAddr: 0x38B0, symBinAddr: 0x1425C, symSize: 0x90 }
  - { offset: 0xA29D8, size: 0x8, addend: 0x0, symName: '__ZN4core6result19Result$LT$T$C$E$GT$3map17h867a4d2ec649fcdfE', symObjAddr: 0x39D0, symBinAddr: 0x142EC, symSize: 0x74 }
  - { offset: 0xA2A82, size: 0x8, addend: 0x0, symName: '__ZN4core6result19Result$LT$T$C$E$GT$3map17h953e5841a9d79cbcE', symObjAddr: 0x3AE0, symBinAddr: 0x14360, symSize: 0xA8 }
  - { offset: 0xA2B35, size: 0x8, addend: 0x0, symName: '__ZN4core6result19Result$LT$T$C$E$GT$3map17ha4f2b2d04745ce9eE', symObjAddr: 0x3C18, symBinAddr: 0x14408, symSize: 0xBC }
  - { offset: 0xA2BC8, size: 0x8, addend: 0x0, symName: '__ZN4core6result19Result$LT$T$C$E$GT$3map17hbb85a55fb6d32af7E', symObjAddr: 0x3E84, symBinAddr: 0x144C4, symSize: 0x90 }
  - { offset: 0xA2C5B, size: 0x8, addend: 0x0, symName: '__ZN4core6result19Result$LT$T$C$E$GT$3map17hd13e6a9e3a0ed3a3E', symObjAddr: 0x4098, symBinAddr: 0x14554, symSize: 0x90 }
  - { offset: 0xA2CEE, size: 0x8, addend: 0x0, symName: '__ZN4core6result19Result$LT$T$C$E$GT$3map17hfdc56450bd4d8f4cE', symObjAddr: 0x4534, symBinAddr: 0x145E4, symSize: 0x90 }
  - { offset: 0xA2D8E, size: 0x8, addend: 0x0, symName: '__ZN4core6result19Result$LT$T$C$E$GT$6as_ref17h122d6ece186dde75E', symObjAddr: 0x45C4, symBinAddr: 0x14674, symSize: 0x68 }
  - { offset: 0xA2DFF, size: 0x8, addend: 0x0, symName: '__ZN4core6result19Result$LT$T$C$E$GT$6expect17h0c6fdb3ffa05e9d1E', symObjAddr: 0x462C, symBinAddr: 0x146DC, symSize: 0x78 }
  - { offset: 0xA2E68, size: 0x8, addend: 0x0, symName: '__ZN4core6result19Result$LT$T$C$E$GT$6expect17h4c7cf2f5d6ee80fcE', symObjAddr: 0x494C, symBinAddr: 0x14754, symSize: 0xB0 }
  - { offset: 0xA2ECB, size: 0x8, addend: 0x0, symName: '__ZN4core6result19Result$LT$T$C$E$GT$6expect17h7e23a75ba606ccf8E', symObjAddr: 0x4AAC, symBinAddr: 0x14804, symSize: 0xB0 }
  - { offset: 0xA2F2E, size: 0x8, addend: 0x0, symName: '__ZN4core6result19Result$LT$T$C$E$GT$6expect17haa36a6bbf9cb1c2eE', symObjAddr: 0x4BE0, symBinAddr: 0x148B4, symSize: 0x84 }
  - { offset: 0xA2F90, size: 0x8, addend: 0x0, symName: '__ZN4core6result19Result$LT$T$C$E$GT$6expect17hc9c30aae7c0870dbE', symObjAddr: 0x4D14, symBinAddr: 0x14938, symSize: 0xA4 }
  - { offset: 0xA2FF3, size: 0x8, addend: 0x0, symName: '__ZN4core6result19Result$LT$T$C$E$GT$7map_err17h11860d418020df44E', symObjAddr: 0x4E68, symBinAddr: 0x149DC, symSize: 0x84 }
  - { offset: 0xA30C3, size: 0x8, addend: 0x0, symName: '__ZN4core6result19Result$LT$T$C$E$GT$7map_err17h37b1be208949414aE', symObjAddr: 0x524C, symBinAddr: 0x14A60, symSize: 0x30 }
  - { offset: 0xA3140, size: 0x8, addend: 0x0, symName: '__ZN4core6result19Result$LT$T$C$E$GT$7map_err17hab7cbd2b93eb1534E', symObjAddr: 0x5BA0, symBinAddr: 0x14A90, symSize: 0x84 }
  - { offset: 0xA31E7, size: 0x8, addend: 0x0, symName: '__ZN4core6result19Result$LT$T$C$E$GT$7map_err17hdf5654ef5dea170bE', symObjAddr: 0x5F24, symBinAddr: 0x14B14, symSize: 0xD0 }
  - { offset: 0xA32A1, size: 0x8, addend: 0x0, symName: '__ZN4core6result19Result$LT$T$C$E$GT$7map_err17hfd45065d7e5667d4E', symObjAddr: 0x62FC, symBinAddr: 0x14BE4, symSize: 0x98 }
  - { offset: 0xA3334, size: 0x8, addend: 0x0, symName: '__ZN4core6result19Result$LT$T$C$E$GT$9unwrap_or17h5885303b35fb6e4cE', symObjAddr: 0x6A0C, symBinAddr: 0x14C7C, symSize: 0x70 }
  - { offset: 0xA3378, size: 0x8, addend: 0x0, symName: '__ZN4core6result19Result$LT$T$C$E$GT$9unwrap_or17hf832c76475601c63E', symObjAddr: 0x6AE8, symBinAddr: 0x14CEC, symSize: 0xF4 }
  - { offset: 0xA6233, size: 0x8, addend: 0x0, symName: '__ZN4core3cmp5impls54_$LT$impl$u20$core..cmp..PartialEq$u20$for$u20$i32$GT$2ne17h84ffdb165ded91d0E', symObjAddr: 0x258, symBinAddr: 0x15C5C, symSize: 0x2C }
  - { offset: 0xA6276, size: 0x8, addend: 0x0, symName: '__ZN4core3cmp5impls69_$LT$impl$u20$core..cmp..PartialEq$LT$$RF$B$GT$$u20$for$u20$$RF$A$GT$2eq17h1c203056cddc3e34E', symObjAddr: 0x39C, symBinAddr: 0x15C88, symSize: 0x44 }
  - { offset: 0xA6388, size: 0x8, addend: 0x0, symName: __ZN4core9panicking13assert_failed17hfd46026140c04406E, symObjAddr: 0x9AC, symBinAddr: 0xB9674, symSize: 0x54 }
  - { offset: 0xA63F1, size: 0x8, addend: 0x0, symName: __ZN4core9panicking13panic_display17hc9ca97ac70faed20E, symObjAddr: 0xA00, symBinAddr: 0x15D84, symSize: 0x5C }
  - { offset: 0xA64AD, size: 0x8, addend: 0x0, symName: '__ZN4core7convert3num67_$LT$impl$u20$core..convert..TryFrom$LT$u64$GT$$u20$for$u20$u32$GT$8try_from17h1321120919a3d6c2E', symObjAddr: 0x84C, symBinAddr: 0x15CCC, symSize: 0x5C }
  - { offset: 0xA64E1, size: 0x8, addend: 0x0, symName: '__ZN4core7convert3num71_$LT$impl$u20$core..convert..TryFrom$LT$usize$GT$$u20$for$u20$isize$GT$8try_from17h7cb255bb8d1b310bE', symObjAddr: 0x8A8, symBinAddr: 0x15D28, symSize: 0x5C }
  - { offset: 0xA67D2, size: 0x8, addend: 0x0, symName: __ZN4core9ub_checks23maybe_is_nonoverlapping7runtime17ha50a1110a63ec66cE, symObjAddr: 0xA5C, symBinAddr: 0x15DE0, symSize: 0xD8 }
  - { offset: 0xA774E, size: 0x8, addend: 0x0, symName: __ZN8pyo3_ffi11tupleobject13PyTuple_Check17h787301a00e7316d6E, symObjAddr: 0xD78, symBinAddr: 0x15F3C, symSize: 0x30 }
  - { offset: 0xA7BD4, size: 0x8, addend: 0x0, symName: '__ZN9hashbrown3raw21RawTable$LT$T$C$A$GT$14reserve_rehash28_$u7b$$u7b$closure$u7d$$u7d$17habc378b05c5d15a8E', symObjAddr: 0x2F90, symBinAddr: 0x179BC, symSize: 0xC0 }
  - { offset: 0xA7DB8, size: 0x8, addend: 0x0, symName: '__ZN9hashbrown3raw21RawTable$LT$T$C$A$GT$4find28_$u7b$$u7b$closure$u7d$$u7d$17h524b1960e15abe42E', symObjAddr: 0x3364, symBinAddr: 0x17D90, symSize: 0xC4 }
  - { offset: 0xA859A, size: 0x8, addend: 0x0, symName: '__ZN79_$LT$hashbrown..raw..RawTable$LT$T$C$A$GT$$u20$as$u20$core..ops..drop..Drop$GT$4drop17h815667363c09e2ecE', symObjAddr: 0xCBC, symBinAddr: 0x15F00, symSize: 0x3C }
  - { offset: 0xA87AF, size: 0x8, addend: 0x0, symName: '__ZN9hashbrown3raw13RawTableInner14prepare_resize28_$u7b$$u7b$closure$u7d$$u7d$17hddeb99e8c208e3dcE', symObjAddr: 0xFF8, symBinAddr: 0x161BC, symSize: 0xB0 }
  - { offset: 0xA8981, size: 0x8, addend: 0x0, symName: '__ZN9hashbrown3raw13RawTableInner15rehash_in_place28_$u7b$$u7b$closure$u7d$$u7d$17h7b4f99a785db5cf6E', symObjAddr: 0x14C4, symBinAddr: 0x16688, symSize: 0x1F8 }
  - { offset: 0xA8E22, size: 0x8, addend: 0x0, symName: __ZN9hashbrown3raw19capacity_to_buckets17h065a23c092f94013E, symObjAddr: 0x2158, symBinAddr: 0x1731C, symSize: 0x2C8 }
  - { offset: 0xA9E1B, size: 0x8, addend: 0x0, symName: __ZN4pyo35types4dict13borrowed_iter16BorrowedDictIter3new17h0e18486c7face569E, symObjAddr: 0xB90, symBinAddr: 0x15EB8, symSize: 0x48 }
  - { offset: 0xA9E7A, size: 0x8, addend: 0x0, symName: __ZN9hashbrown3raw11TableLayout20calculate_layout_for17h35cef4f226b7c8d6E, symObjAddr: 0xDA8, symBinAddr: 0x15F6C, symSize: 0x220 }
  - { offset: 0xAA21F, size: 0x8, addend: 0x0, symName: __ZN9hashbrown3raw13RawTableInner13drop_elements17hd7f143f41dfd6e07E, symObjAddr: 0xFC8, symBinAddr: 0x1618C, symSize: 0x30 }
  - { offset: 0xAA6D4, size: 0x8, addend: 0x0, symName: __ZN9hashbrown3raw13RawTableInner15rehash_in_place17h737c7d8d05023225E, symObjAddr: 0x10A8, symBinAddr: 0x1626C, symSize: 0x41C }
  - { offset: 0xAB04E, size: 0x8, addend: 0x0, symName: __ZN9hashbrown3raw13RawTableInner16drop_inner_table17h4cd43f589f162a77E, symObjAddr: 0x16BC, symBinAddr: 0x16880, symSize: 0xB0 }
  - { offset: 0xAB30F, size: 0x8, addend: 0x0, symName: __ZN9hashbrown3raw13RawTableInner16fix_insert_index17hfc16aece6cc7c102E, symObjAddr: 0x176C, symBinAddr: 0x16930, symSize: 0x100 }
  - { offset: 0xAB581, size: 0x8, addend: 0x0, symName: __ZN9hashbrown3raw13RawTableInner17find_insert_index17hb44afbbbf8c66726E, symObjAddr: 0x186C, symBinAddr: 0x16A30, symSize: 0xFC }
  - { offset: 0xAB75E, size: 0x8, addend: 0x0, symName: __ZN9hashbrown3raw13RawTableInner17new_uninitialized17hfbeba30e389f29d4E, symObjAddr: 0x1968, symBinAddr: 0x16B2C, symSize: 0x2AC }
  - { offset: 0xABA8B, size: 0x8, addend: 0x0, symName: __ZN9hashbrown3raw13RawTableInner22fallible_with_capacity17h24fcb06b71f3b054E, symObjAddr: 0x1C14, symBinAddr: 0x16DD8, symSize: 0x220 }
  - { offset: 0xABF24, size: 0x8, addend: 0x0, symName: __ZN9hashbrown3raw13RawTableInner23prepare_rehash_in_place17ha6391212c13fac39E, symObjAddr: 0x1E34, symBinAddr: 0x16FF8, symSize: 0x204 }
  - { offset: 0xAC51A, size: 0x8, addend: 0x0, symName: __ZN9hashbrown3raw13RawTableInner26find_insert_index_in_group17h2ccb3409cb1a6a7aE, symObjAddr: 0x2038, symBinAddr: 0x171FC, symSize: 0x120 }
  - { offset: 0xAC65E, size: 0x8, addend: 0x0, symName: '__ZN9hashbrown3raw21RawIterRange$LT$T$GT$3new17h7ea6a9151ee437f2E', symObjAddr: 0x2420, symBinAddr: 0x175E4, symSize: 0x98 }
  - { offset: 0xAC8F2, size: 0x8, addend: 0x0, symName: '__ZN9hashbrown3raw21RawIterRange$LT$T$GT$9next_impl17hcadfc7293fd1fab1E', symObjAddr: 0x24B8, symBinAddr: 0x1767C, symSize: 0x1B4 }
  - { offset: 0xACE0F, size: 0x8, addend: 0x0, symName: '__ZN9hashbrown3raw21RawTable$LT$T$C$A$GT$14insert_no_grow17hb410105260a5c904E', symObjAddr: 0x266C, symBinAddr: 0x17830, symSize: 0x18C }
  - { offset: 0xAD627, size: 0x8, addend: 0x0, symName: '__ZN9hashbrown3raw21RawTable$LT$T$C$A$GT$14reserve_rehash17hbec407579b24f96cE', symObjAddr: 0x27F8, symBinAddr: 0xB96C8, symSize: 0x798 }
  - { offset: 0xAE324, size: 0x8, addend: 0x0, symName: '__ZN9hashbrown3raw21RawTable$LT$T$C$A$GT$4find17h6fb01abe61fcbafcE', symObjAddr: 0x3050, symBinAddr: 0x17A7C, symSize: 0x314 }
  - { offset: 0xAE947, size: 0x8, addend: 0x0, symName: '__ZN9hashbrown3raw21RawTable$LT$T$C$A$GT$7reserve17h5dcc523917ba4a80E', symObjAddr: 0x3428, symBinAddr: 0x17E54, symSize: 0xB0 }
  - { offset: 0xAEA53, size: 0x8, addend: 0x0, symName: '__ZN104_$LT$core..ops..index_range..IndexRange$u20$as$u20$core..slice..index..SliceIndex$LT$$u5b$T$u5d$$GT$$GT$17get_unchecked_mut18precondition_check17h604adaef236ad7d6E', symObjAddr: 0x0, symBinAddr: 0x17F04, symSize: 0x60 }
  - { offset: 0xB110B, size: 0x8, addend: 0x0, symName: '__ZN4core3ptr101drop_in_place$LT$core..option..Option$LT$pyo3..pyclass..create_type_object..PyClassTypeObject$GT$$GT$17h8e7553920eeb5501E', symObjAddr: 0x23E4, symBinAddr: 0x191A8, symSize: 0x48 }
  - { offset: 0xB113A, size: 0x8, addend: 0x0, symName: '__ZN4core3ptr101drop_in_place$LT$core..result..Result$LT$alloc..borrow..Cow$LT$str$GT$$C$$RF$pyo3..err..PyErr$GT$$GT$17h9263f49201c1ec01E', symObjAddr: 0x242C, symBinAddr: 0x191F0, symSize: 0x4C }
  - { offset: 0xB1169, size: 0x8, addend: 0x0, symName: '__ZN4core3ptr101drop_in_place$LT$std..io..error..ErrorData$LT$alloc..boxed..Box$LT$std..io..error..Custom$GT$$GT$$GT$17h473a3bcbccae84d6E', symObjAddr: 0x249C, symBinAddr: 0x1923C, symSize: 0x48 }
  - { offset: 0xB1198, size: 0x8, addend: 0x0, symName: '__ZN4core3ptr101drop_in_place$LT$std..sys..sync..once_box..OnceBox$LT$std..sys..pal..unix..sync..mutex..Mutex$GT$$GT$17h09b0d8467e95341dE', symObjAddr: 0x24E4, symBinAddr: 0x19284, symSize: 0x24 }
  - { offset: 0xB11C7, size: 0x8, addend: 0x0, symName: '__ZN4core3ptr104drop_in_place$LT$alloc..boxed..Box$LT$pyo3..pyclass..create_type_object..GetSetDeleteCombination$GT$$GT$17h254c2e8a1424ccf9E', symObjAddr: 0x2574, symBinAddr: 0x192A8, symSize: 0x2C }
  - { offset: 0xB11F6, size: 0x8, addend: 0x0, symName: '__ZN4core3ptr104drop_in_place$LT$core..option..Option$LT$pyo3..instance..Py$LT$pyo3..types..string..PyString$GT$$GT$$GT$17h868c2ceefeafb902E', symObjAddr: 0x25E4, symBinAddr: 0x192D4, symSize: 0x44 }
  - { offset: 0xB1225, size: 0x8, addend: 0x0, symName: '__ZN4core3ptr106drop_in_place$LT$alloc..vec..Vec$LT$core..ptr..non_null..NonNull$LT$pyo3_ffi..object..PyObject$GT$$GT$$GT$17ha5e88c561b604879E', symObjAddr: 0x2628, symBinAddr: 0x19318, symSize: 0x5C }
  - { offset: 0xB1254, size: 0x8, addend: 0x0, symName: '__ZN4core3ptr106drop_in_place$LT$core..option..Option$LT$pyo3..instance..Py$LT$pyo3..types..typeobject..PyType$GT$$GT$$GT$17hf3b9b79ea065d50bE', symObjAddr: 0x2684, symBinAddr: 0x19374, symSize: 0x44 }
  - { offset: 0xB1283, size: 0x8, addend: 0x0, symName: '__ZN4core3ptr107drop_in_place$LT$$LP$$RF$core..ffi..c_str..CStr$C$pyo3..instance..Py$LT$pyo3..types..any..PyAny$GT$$RP$$GT$17h22eccda7cbaf1e6cE', symObjAddr: 0x26C8, symBinAddr: 0x193B8, symSize: 0x24 }
  - { offset: 0xB12B2, size: 0x8, addend: 0x0, symName: '__ZN4core3ptr107drop_in_place$LT$core..option..Option$LT$pyo3..instance..Bound$LT$pyo3..types..string..PyString$GT$$GT$$GT$17h3d3bfa00da8cb94cE', symObjAddr: 0x26EC, symBinAddr: 0x193DC, symSize: 0x44 }
  - { offset: 0xB12E1, size: 0x8, addend: 0x0, symName: '__ZN4core3ptr107drop_in_place$LT$core..pin..Pin$LT$alloc..boxed..Box$LT$std..sys..pal..unix..sync..mutex..Mutex$GT$$GT$$GT$17h48381a0c6d72bf25E', symObjAddr: 0x2730, symBinAddr: 0x19420, symSize: 0x24 }
  - { offset: 0xB1310, size: 0x8, addend: 0x0, symName: '__ZN4core3ptr108drop_in_place$LT$core..option..Option$LT$pyo3..instance..Py$LT$pyo3..exceptions..PyBaseException$GT$$GT$$GT$17h3996152cab852b15E', symObjAddr: 0x2794, symBinAddr: 0x19444, symSize: 0x44 }
  - { offset: 0xB133F, size: 0x8, addend: 0x0, symName: '__ZN4core3ptr109drop_in_place$LT$core..iter..adapters..enumerate..Enumerate$LT$pyo3..types..tuple..BoundTupleIterator$GT$$GT$17h7908612b4ad2aeb5E', symObjAddr: 0x2840, symBinAddr: 0x19488, symSize: 0x24 }
  - { offset: 0xB136E, size: 0x8, addend: 0x0, symName: '__ZN4core3ptr112drop_in_place$LT$core..result..Result$LT$$LP$$RP$$C$pyo3..pyclass..create_type_object..PyClassTypeObject$GT$$GT$17h05e59c33ba0b0561E', symObjAddr: 0x28F4, symBinAddr: 0x194AC, symSize: 0x48 }
  - { offset: 0xB139D, size: 0x8, addend: 0x0, symName: '__ZN4core3ptr113drop_in_place$LT$alloc..raw_vec..RawVec$LT$core..ptr..non_null..NonNull$LT$pyo3_ffi..object..PyObject$GT$$GT$$GT$17h9cccf9001505bed7E', symObjAddr: 0x298C, symBinAddr: 0x194F4, symSize: 0x24 }
  - { offset: 0xB13CC, size: 0x8, addend: 0x0, symName: '__ZN4core3ptr113drop_in_place$LT$std..sync..poison..mutex..Mutex$LT$core..option..Option$LT$std..thread..id..ThreadId$GT$$GT$$GT$17h6d64b06c486e65b4E', symObjAddr: 0x29D4, symBinAddr: 0x19518, symSize: 0x24 }
  - { offset: 0xB13FB, size: 0x8, addend: 0x0, symName: '__ZN4core3ptr113drop_in_place$LT$std..sync..poison..mutex..MutexGuard$LT$alloc..vec..Vec$LT$std..thread..id..ThreadId$GT$$GT$$GT$17hc6189acf9c9872f7E', symObjAddr: 0x29F8, symBinAddr: 0x1953C, symSize: 0x24 }
  - { offset: 0xB142A, size: 0x8, addend: 0x0, symName: '__ZN4core3ptr114drop_in_place$LT$pyo3..impl_..pyclass..lazy_type_object..LazyTypeObjectInner..ensure_init..InitializationGuard$GT$17hb6f0cba196c3e432E', symObjAddr: 0x2A1C, symBinAddr: 0x19560, symSize: 0x24 }
  - { offset: 0xB1459, size: 0x8, addend: 0x0, symName: '__ZN4core3ptr116drop_in_place$LT$core..cell..UnsafeCell$LT$core..option..Option$LT$pyo3..err..err_state..PyErrStateInner$GT$$GT$$GT$17h42ca9af54aa771e1E', symObjAddr: 0x2A40, symBinAddr: 0x19584, symSize: 0x24 }
  - { offset: 0xB1488, size: 0x8, addend: 0x0, symName: '__ZN4core3ptr117drop_in_place$LT$$u5b$$LP$$RF$core..ffi..c_str..CStr$C$pyo3..instance..Py$LT$pyo3..types..any..PyAny$GT$$RP$$u5d$$GT$17h0e1d16a812a1dc21E', symObjAddr: 0x2A64, symBinAddr: 0x195A8, symSize: 0xC4 }
  - { offset: 0xB14B7, size: 0x8, addend: 0x0, symName: '__ZN4core3ptr117drop_in_place$LT$core..result..Result$LT$$LP$$RP$$C$pyo3..instance..Py$LT$pyo3..types..typeobject..PyType$GT$$GT$$GT$17h30903cebf091a2e2E', symObjAddr: 0x2B28, symBinAddr: 0x1966C, symSize: 0x44 }
  - { offset: 0xB14E6, size: 0x8, addend: 0x0, symName: '__ZN4core3ptr118drop_in_place$LT$alloc..boxed..Box$LT$dyn$u20$core..error..Error$u2b$core..marker..Send$u2b$core..marker..Sync$GT$$GT$17h164001b53ca70fc0E', symObjAddr: 0x2B90, symBinAddr: 0x196B0, symSize: 0x80 }
  - { offset: 0xB1515, size: 0x8, addend: 0x0, symName: '__ZN4core3ptr118drop_in_place$LT$core..array..iter..IntoIter$LT$pyo3..instance..Bound$LT$pyo3..types..any..PyAny$GT$$C$1_usize$GT$$GT$17h78786c1135f45c5fE', symObjAddr: 0x2C10, symBinAddr: 0x19730, symSize: 0x24 }
  - { offset: 0xB1544, size: 0x8, addend: 0x0, symName: '__ZN4core3ptr118drop_in_place$LT$std..sync..poison..mutex..MutexGuard$LT$core..option..Option$LT$std..thread..id..ThreadId$GT$$GT$$GT$17h7e5f636c55d6e320E', symObjAddr: 0x2C58, symBinAddr: 0x19754, symSize: 0x24 }
  - { offset: 0xB1573, size: 0x8, addend: 0x0, symName: '__ZN4core3ptr122drop_in_place$LT$alloc..vec..into_iter..IntoIter$LT$core..ptr..non_null..NonNull$LT$pyo3_ffi..object..PyObject$GT$$GT$$GT$17h004213df99baf5acE', symObjAddr: 0x2D54, symBinAddr: 0x19778, symSize: 0x24 }
  - { offset: 0xB15A2, size: 0x8, addend: 0x0, symName: '__ZN4core3ptr122drop_in_place$LT$pyo3..impl_..pyclass..lazy_type_object..LazyTypeObjectInner..ensure_init..$u7b$$u7b$closure$u7d$$u7d$$GT$17hd854003b52e7b1d9E', symObjAddr: 0x2D78, symBinAddr: 0x1979C, symSize: 0x60 }
  - { offset: 0xB15D1, size: 0x8, addend: 0x0, symName: '__ZN4core3ptr126drop_in_place$LT$core..result..Result$LT$pyo3..instance..Bound$LT$pyo3..types..string..PyString$GT$$C$pyo3..err..PyErr$GT$$GT$17h2dc1143d8f011a46E', symObjAddr: 0x2DFC, symBinAddr: 0x197FC, symSize: 0x50 }
  - { offset: 0xB1600, size: 0x8, addend: 0x0, symName: '__ZN4core3ptr129drop_in_place$LT$alloc..vec..Vec$LT$T$C$A$GT$..retain_mut..PanicGuard$LT$std..thread..id..ThreadId$C$alloc..alloc..Global$GT$$GT$17h646ddd0c6f19c411E', symObjAddr: 0x2E70, symBinAddr: 0x1984C, symSize: 0x24 }
  - { offset: 0xB162F, size: 0x8, addend: 0x0, symName: '__ZN4core3ptr130drop_in_place$LT$alloc..vec..Vec$LT$$LP$$RF$core..ffi..c_str..CStr$C$pyo3..instance..Py$LT$pyo3..types..any..PyAny$GT$$RP$$GT$$GT$17hbd46ea5fd1c0296fE', symObjAddr: 0x2E94, symBinAddr: 0x19870, symSize: 0x5C }
  - { offset: 0xB165E, size: 0x8, addend: 0x0, symName: '__ZN4core3ptr132drop_in_place$LT$pyo3..err..PyErr..new$LT$pyo3..exceptions..PyTypeError$C$alloc..string..String$GT$..$u7b$$u7b$closure$u7d$$u7d$$GT$17hfc7b77d78d55dc75E', symObjAddr: 0x2F14, symBinAddr: 0x198CC, symSize: 0x24 }
  - { offset: 0xB168D, size: 0x8, addend: 0x0, symName: '__ZN4core3ptr133drop_in_place$LT$pyo3..err..PyErr..new$LT$pyo3..exceptions..PyValueError$C$alloc..string..String$GT$..$u7b$$u7b$closure$u7d$$u7d$$GT$17h268d226b6f2c733fE', symObjAddr: 0x2F38, symBinAddr: 0x198F0, symSize: 0x24 }
  - { offset: 0xB16BC, size: 0x8, addend: 0x0, symName: '__ZN4core3ptr135drop_in_place$LT$core..option..Option$LT$core..pin..Pin$LT$alloc..boxed..Box$LT$std..sys..pal..unix..sync..mutex..Mutex$GT$$GT$$GT$$GT$17ha6059b85c678d633E', symObjAddr: 0x2FA4, symBinAddr: 0x19914, symSize: 0x44 }
  - { offset: 0xB16EB, size: 0x8, addend: 0x0, symName: '__ZN4core3ptr135drop_in_place$LT$pyo3..err..PyErr..new$LT$pyo3..exceptions..PyRuntimeError$C$alloc..string..String$GT$..$u7b$$u7b$closure$u7d$$u7d$$GT$17h0db1c2b3c377fa21E', symObjAddr: 0x2FE8, symBinAddr: 0x19958, symSize: 0x24 }
  - { offset: 0xB171A, size: 0x8, addend: 0x0, symName: '__ZN4core3ptr137drop_in_place$LT$alloc..raw_vec..RawVec$LT$$LP$$RF$core..ffi..c_str..CStr$C$pyo3..instance..Py$LT$pyo3..types..any..PyAny$GT$$RP$$GT$$GT$17hd62d154e2252933aE', symObjAddr: 0x309C, symBinAddr: 0x1997C, symSize: 0x24 }
  - { offset: 0xB1749, size: 0x8, addend: 0x0, symName: '__ZN4core3ptr139drop_in_place$LT$pyo3..err..PyErr..new$LT$pyo3..exceptions..PyValueError$C$alloc..ffi..c_str..NulError$GT$..$u7b$$u7b$closure$u7d$$u7d$$GT$17h3a110ea8b8b2e2f7E', symObjAddr: 0x31DC, symBinAddr: 0x199A0, symSize: 0x24 }
  - { offset: 0xB1778, size: 0x8, addend: 0x0, symName: '__ZN4core3ptr141drop_in_place$LT$hashbrown..raw..RawTable$LT$$LP$$RF$core..ffi..c_str..CStr$C$pyo3..pyclass..create_type_object..GetSetDefBuilder$RP$$GT$$GT$17h37a373b69b436d46E', symObjAddr: 0x3248, symBinAddr: 0x199C4, symSize: 0x24 }
  - { offset: 0xB17A7, size: 0x8, addend: 0x0, symName: '__ZN4core3ptr141drop_in_place$LT$pyo3..err..PyErr..new$LT$pyo3..panic..PanicException$C$$LP$alloc..string..String$C$$RP$$GT$..$u7b$$u7b$closure$u7d$$u7d$$GT$17hbcc5383ec9eb8301E', symObjAddr: 0x3290, symBinAddr: 0x199E8, symSize: 0x24 }
  - { offset: 0xB17D6, size: 0x8, addend: 0x0, symName: '__ZN4core3ptr144drop_in_place$LT$core..result..Result$LT$$RF$pyo3..instance..Bound$LT$pyo3..types..tuple..PyTuple$GT$$C$pyo3..err..cast_error..CastError$GT$$GT$17h69034f335acedcf2E', symObjAddr: 0x3360, symBinAddr: 0x19A0C, symSize: 0x44 }
  - { offset: 0xB1805, size: 0x8, addend: 0x0, symName: '__ZN4core3ptr145drop_in_place$LT$std..collections..hash..map..HashMap$LT$$RF$core..ffi..c_str..CStr$C$pyo3..pyclass..create_type_object..GetSetDefBuilder$GT$$GT$17h92158127fa7f412dE', symObjAddr: 0x33EC, symBinAddr: 0x19A50, symSize: 0x24 }
  - { offset: 0xB1834, size: 0x8, addend: 0x0, symName: '__ZN4core3ptr146drop_in_place$LT$alloc..vec..into_iter..IntoIter$LT$$LP$$RF$core..ffi..c_str..CStr$C$pyo3..instance..Py$LT$pyo3..types..any..PyAny$GT$$RP$$GT$$GT$17hc6fdb89827199a0bE', symObjAddr: 0x3470, symBinAddr: 0x19A74, symSize: 0x24 }
  - { offset: 0xB1863, size: 0x8, addend: 0x0, symName: '__ZN4core3ptr148drop_in_place$LT$core..result..Result$LT$$RF$pyo3..instance..Bound$LT$pyo3..types..typeobject..PyType$GT$$C$pyo3..err..cast_error..CastError$GT$$GT$17h044c2b27ae69197fE', symObjAddr: 0x34D8, symBinAddr: 0x19A98, symSize: 0x44 }
  - { offset: 0xB1892, size: 0x8, addend: 0x0, symName: '__ZN4core3ptr150drop_in_place$LT$std..sync..poison..mutex..MutexGuard$LT$alloc..vec..Vec$LT$core..ptr..non_null..NonNull$LT$pyo3_ffi..object..PyObject$GT$$GT$$GT$$GT$17ha23667195340801bE', symObjAddr: 0x3540, symBinAddr: 0x19ADC, symSize: 0x24 }
  - { offset: 0xB18C1, size: 0x8, addend: 0x0, symName: '__ZN4core3ptr151drop_in_place$LT$std..sync..poison..PoisonError$LT$std..sync..poison..mutex..MutexGuard$LT$alloc..vec..Vec$LT$std..thread..id..ThreadId$GT$$GT$$GT$$GT$17h8a9b6800e0e05629E', symObjAddr: 0x35A8, symBinAddr: 0x19B00, symSize: 0x24 }
  - { offset: 0xB18F0, size: 0x8, addend: 0x0, symName: '__ZN4core3ptr152drop_in_place$LT$pyo3..err..PyErr..new$LT$pyo3..exceptions..PyTypeError$C$pyo3..err..cast_error..CastErrorArguments$GT$..$u7b$$u7b$closure$u7d$$u7d$$GT$17hc4c2b6fa445e990fE', symObjAddr: 0x35CC, symBinAddr: 0x19B24, symSize: 0x24 }
  - { offset: 0xB191F, size: 0x8, addend: 0x0, symName: '__ZN4core3ptr155drop_in_place$LT$pyo3..err..err_state..PyErrState..lazy_arguments$LT$pyo3..instance..Py$LT$pyo3..types..any..PyAny$GT$$GT$..$u7b$$u7b$closure$u7d$$u7d$$GT$17hca126cc91ebbfdc8E', symObjAddr: 0x3614, symBinAddr: 0x19B48, symSize: 0x60 }
  - { offset: 0xB194E, size: 0x8, addend: 0x0, symName: '__ZN4core3ptr156drop_in_place$LT$std..sync..poison..PoisonError$LT$std..sync..poison..mutex..MutexGuard$LT$core..option..Option$LT$std..thread..id..ThreadId$GT$$GT$$GT$$GT$17hed0abd53b62c9c6cE', symObjAddr: 0x3674, symBinAddr: 0x19BA8, symSize: 0x24 }
  - { offset: 0xB197D, size: 0x8, addend: 0x0, symName: '__ZN4core3ptr157drop_in_place$LT$pyo3..err..err_state..PyErrState..make_normalized..$u7b$$u7b$closure$u7d$$u7d$..$u7b$$u7b$closure$u7d$$u7d$..$u7b$$u7b$closure$u7d$$u7d$$GT$17h25ff5d8bd4828baeE', symObjAddr: 0x3698, symBinAddr: 0x19BCC, symSize: 0x24 }
  - { offset: 0xB19AC, size: 0x8, addend: 0x0, symName: '__ZN4core3ptr165drop_in_place$LT$hashbrown..map..HashMap$LT$$RF$core..ffi..c_str..CStr$C$pyo3..pyclass..create_type_object..GetSetDefBuilder$C$std..hash..random..RandomState$GT$$GT$17h77d5a544c666cb1bE', symObjAddr: 0x36E0, symBinAddr: 0x19BF0, symSize: 0x24 }
  - { offset: 0xB19DB, size: 0x8, addend: 0x0, symName: '__ZN4core3ptr168drop_in_place$LT$core..iter..adapters..enumerate..Enumerate$LT$core..array..iter..IntoIter$LT$pyo3..instance..Bound$LT$pyo3..types..any..PyAny$GT$$C$1_usize$GT$$GT$$GT$17hba56ea7e8411ca46E', symObjAddr: 0x3704, symBinAddr: 0x19C14, symSize: 0x24 }
  - { offset: 0xB1A0A, size: 0x8, addend: 0x0, symName: '__ZN4core3ptr181drop_in_place$LT$hashbrown..scopeguard..ScopeGuard$LT$$RF$mut$u20$hashbrown..raw..RawTableInner$C$hashbrown..raw..RawTableInner..rehash_in_place..$u7b$$u7b$closure$u7d$$u7d$$GT$$GT$17hd7bfd35318fde898E', symObjAddr: 0x374C, symBinAddr: 0x19C38, symSize: 0x24 }
  - { offset: 0xB1A39, size: 0x8, addend: 0x0, symName: '__ZN4core3ptr188drop_in_place$LT$std..sync..poison..PoisonError$LT$std..sync..poison..mutex..MutexGuard$LT$alloc..vec..Vec$LT$core..ptr..non_null..NonNull$LT$pyo3_ffi..object..PyObject$GT$$GT$$GT$$GT$$GT$17h3841c7e01d347785E', symObjAddr: 0x3770, symBinAddr: 0x19C5C, symSize: 0x24 }
  - { offset: 0xB1A68, size: 0x8, addend: 0x0, symName: '__ZN4core3ptr192drop_in_place$LT$core..array..iter..iter_inner..PolymorphicIter$LT$$u5b$core..mem..maybe_uninit..MaybeUninit$LT$pyo3..instance..Bound$LT$pyo3..types..any..PyAny$GT$$GT$$u3b$$u20$1$u5d$$GT$$GT$17hfc612983f3f036fcE', symObjAddr: 0x3794, symBinAddr: 0x19C80, symSize: 0x24 }
  - { offset: 0xB1A97, size: 0x8, addend: 0x0, symName: '__ZN4core3ptr196drop_in_place$LT$hashbrown..scopeguard..ScopeGuard$LT$hashbrown..raw..RawTableInner$C$hashbrown..raw..RawTableInner..prepare_resize$LT$alloc..alloc..Global$GT$..$u7b$$u7b$closure$u7d$$u7d$$GT$$GT$17he9ac6c39eae449c5E', symObjAddr: 0x37DC, symBinAddr: 0x19CA4, symSize: 0x24 }
  - { offset: 0xB1AC6, size: 0x8, addend: 0x0, symName: '__ZN4core3ptr216drop_in_place$LT$$LT$alloc..vec..into_iter..IntoIter$LT$T$C$A$GT$$u20$as$u20$core..ops..drop..Drop$GT$..drop..DropGuard$LT$core..ptr..non_null..NonNull$LT$pyo3_ffi..object..PyObject$GT$$C$alloc..alloc..Global$GT$$GT$17hcd8e26fddcb656b7E', symObjAddr: 0x386C, symBinAddr: 0x19CC8, symSize: 0x24 }
  - { offset: 0xB1AF5, size: 0x8, addend: 0x0, symName: '__ZN4core3ptr219drop_in_place$LT$pyo3..sync..once_lock..init_once_cell_py_attached$LT$pyo3..sync..Interned..get..$u7b$$u7b$closure$u7d$$u7d$$C$pyo3..instance..Py$LT$pyo3..types..string..PyString$GT$$GT$..$u7b$$u7b$closure$u7d$$u7d$$GT$17h0a79649a9b674ba2E', symObjAddr: 0x3890, symBinAddr: 0x19CEC, symSize: 0x24 }
  - { offset: 0xB1B24, size: 0x8, addend: 0x0, symName: '__ZN4core3ptr236drop_in_place$LT$alloc..boxed..Box$LT$dyn$u20$core..ops..function..FnOnce$LT$$LP$pyo3..marker..Python$C$$RP$$GT$$u2b$Output$u20$$u3d$$u20$pyo3..err..err_state..PyErrStateLazyFnOutput$u2b$core..marker..Send$u2b$core..marker..Sync$GT$$GT$17h8867714915118051E', symObjAddr: 0x38B4, symBinAddr: 0x19D10, symSize: 0x80 }
  - { offset: 0xB1B53, size: 0x8, addend: 0x0, symName: '__ZN4core3ptr240drop_in_place$LT$$LT$alloc..vec..into_iter..IntoIter$LT$T$C$A$GT$$u20$as$u20$core..ops..drop..Drop$GT$..drop..DropGuard$LT$$LP$$RF$core..ffi..c_str..CStr$C$pyo3..instance..Py$LT$pyo3..types..any..PyAny$GT$$RP$$C$alloc..alloc..Global$GT$$GT$17hda3ab0c2b198684eE', symObjAddr: 0x3934, symBinAddr: 0x19D90, symSize: 0x24 }
  - { offset: 0xB1B82, size: 0x8, addend: 0x0, symName: '__ZN4core3ptr289drop_in_place$LT$pyo3..sync..once_lock..init_once_cell_py_attached$LT$$LT$pyo3..panic..PanicException$u20$as$u20$pyo3..type_object..PyTypeInfo$GT$..type_object_raw..$u7b$$u7b$closure$u7d$$u7d$$C$pyo3..instance..Py$LT$pyo3..types..typeobject..PyType$GT$$GT$..$u7b$$u7b$closure$u7d$$u7d$$GT$17h91061fc5883ebd53E', symObjAddr: 0x39C4, symBinAddr: 0x19DB4, symSize: 0x24 }
  - { offset: 0xB1BB1, size: 0x8, addend: 0x0, symName: '__ZN4core3ptr357drop_in_place$LT$once_cell..sync..OnceCell$LT$pyo3..instance..Py$LT$pyo3..types..string..PyString$GT$$GT$..get_or_init$LT$pyo3..sync..once_lock..init_once_cell_py_attached$LT$pyo3..sync..Interned..get..$u7b$$u7b$closure$u7d$$u7d$$C$pyo3..instance..Py$LT$pyo3..types..string..PyString$GT$$GT$..$u7b$$u7b$closure$u7d$$u7d$$GT$..$u7b$$u7b$closure$u7d$$u7d$$GT$17h21e55ad771451950E', symObjAddr: 0x3BCC, symBinAddr: 0x19DD8, symSize: 0x24 }
  - { offset: 0xB1BE0, size: 0x8, addend: 0x0, symName: '__ZN4core3ptr37drop_in_place$LT$pyo3..err..PyErr$GT$17h49718ceda2095216E', symObjAddr: 0x3BF0, symBinAddr: 0x19DFC, symSize: 0x24 }
  - { offset: 0xB1C0F, size: 0x8, addend: 0x0, symName: '__ZN4core3ptr385drop_in_place$LT$core..option..Option$LT$once_cell..sync..OnceCell$LT$pyo3..instance..Py$LT$pyo3..types..string..PyString$GT$$GT$..get_or_init$LT$pyo3..sync..once_lock..init_once_cell_py_attached$LT$pyo3..sync..Interned..get..$u7b$$u7b$closure$u7d$$u7d$$C$pyo3..instance..Py$LT$pyo3..types..string..PyString$GT$$GT$..$u7b$$u7b$closure$u7d$$u7d$$GT$..$u7b$$u7b$closure$u7d$$u7d$$GT$$GT$17hb1f0d02589bee2ccE', symObjAddr: 0x3C14, symBinAddr: 0x19E20, symSize: 0x44 }
  - { offset: 0xB1C3E, size: 0x8, addend: 0x0, symName: '__ZN4core3ptr429drop_in_place$LT$once_cell..sync..OnceCell$LT$pyo3..instance..Py$LT$pyo3..types..typeobject..PyType$GT$$GT$..get_or_init$LT$pyo3..sync..once_lock..init_once_cell_py_attached$LT$$LT$pyo3..panic..PanicException$u20$as$u20$pyo3..type_object..PyTypeInfo$GT$..type_object_raw..$u7b$$u7b$closure$u7d$$u7d$$C$pyo3..instance..Py$LT$pyo3..types..typeobject..PyType$GT$$GT$..$u7b$$u7b$closure$u7d$$u7d$$GT$..$u7b$$u7b$closure$u7d$$u7d$$GT$17hcc7dd3b6fa584889E', symObjAddr: 0x3CA0, symBinAddr: 0x19E64, symSize: 0x24 }
  - { offset: 0xB1C6D, size: 0x8, addend: 0x0, symName: '__ZN4core3ptr42drop_in_place$LT$alloc..string..String$GT$17h2b263f87d632fff0E', symObjAddr: 0x3CC4, symBinAddr: 0x19E88, symSize: 0x24 }
  - { offset: 0xB1C9C, size: 0x8, addend: 0x0, symName: '__ZN4core3ptr42drop_in_place$LT$std..io..error..Error$GT$17h60f78b9d0e69d283E', symObjAddr: 0x3CE8, symBinAddr: 0x19EAC, symSize: 0x24 }
  - { offset: 0xB1CCB, size: 0x8, addend: 0x0, symName: '__ZN4core3ptr43drop_in_place$LT$std..io..error..Custom$GT$17h9d8435cf7ce9a60eE', symObjAddr: 0x3D0C, symBinAddr: 0x19ED0, symSize: 0x24 }
  - { offset: 0xB1CFA, size: 0x8, addend: 0x0, symName: '__ZN4core3ptr457drop_in_place$LT$core..option..Option$LT$once_cell..sync..OnceCell$LT$pyo3..instance..Py$LT$pyo3..types..typeobject..PyType$GT$$GT$..get_or_init$LT$pyo3..sync..once_lock..init_once_cell_py_attached$LT$$LT$pyo3..panic..PanicException$u20$as$u20$pyo3..type_object..PyTypeInfo$GT$..type_object_raw..$u7b$$u7b$closure$u7d$$u7d$$C$pyo3..instance..Py$LT$pyo3..types..typeobject..PyType$GT$$GT$..$u7b$$u7b$closure$u7d$$u7d$$GT$..$u7b$$u7b$closure$u7d$$u7d$$GT$$GT$17hb323590d0531ddc2E', symObjAddr: 0x3D54, symBinAddr: 0x19EF4, symSize: 0x44 }
  - { offset: 0xB1D29, size: 0x8, addend: 0x0, symName: '__ZN4core3ptr46drop_in_place$LT$alloc..vec..Vec$LT$u8$GT$$GT$17ha337c05d3f3e4c05E', symObjAddr: 0x3D98, symBinAddr: 0x19F38, symSize: 0x5C }
  - { offset: 0xB1D58, size: 0x8, addend: 0x0, symName: '__ZN4core3ptr47drop_in_place$LT$alloc..ffi..c_str..CString$GT$17hef2a5985babf81aeE', symObjAddr: 0x3DF4, symBinAddr: 0x19F94, symSize: 0x5C }
  - { offset: 0xB1D87, size: 0x8, addend: 0x0, symName: '__ZN4core3ptr48drop_in_place$LT$alloc..ffi..c_str..NulError$GT$17h8a62aad616f8625aE', symObjAddr: 0x3EBC, symBinAddr: 0x19FF0, symSize: 0x24 }
  - { offset: 0xB1DB6, size: 0x8, addend: 0x0, symName: '__ZN4core3ptr50drop_in_place$LT$alloc..borrow..Cow$LT$str$GT$$GT$17hf11a9b192aff4052E', symObjAddr: 0x3F28, symBinAddr: 0x1A014, symSize: 0x48 }
  - { offset: 0xB1DE5, size: 0x8, addend: 0x0, symName: '__ZN4core3ptr50drop_in_place$LT$pyo3..impl_..panic..PanicTrap$GT$17h95778a92da900427E', symObjAddr: 0x3FCC, symBinAddr: 0x1A05C, symSize: 0x24 }
  - { offset: 0xB1E14, size: 0x8, addend: 0x0, symName: '__ZN4core3ptr51drop_in_place$LT$alloc..vec..Vec$LT$$RF$str$GT$$GT$17hb4357807cfa2293fE', symObjAddr: 0x3FF0, symBinAddr: 0x1A080, symSize: 0x5C }
  - { offset: 0xB1E43, size: 0x8, addend: 0x0, symName: '__ZN4core3ptr53drop_in_place$LT$$LP$alloc..string..String$C$$RP$$GT$17hee31966181235857E', symObjAddr: 0x404C, symBinAddr: 0x1A0DC, symSize: 0x24 }
  - { offset: 0xB1E72, size: 0x8, addend: 0x0, symName: '__ZN4core3ptr53drop_in_place$LT$alloc..raw_vec..RawVec$LT$u8$GT$$GT$17hd0647d3afb5a17f2E', symObjAddr: 0x4070, symBinAddr: 0x1A100, symSize: 0x24 }
  - { offset: 0xB1EA1, size: 0x8, addend: 0x0, symName: '__ZN4core3ptr53drop_in_place$LT$pyo3..err..cast_error..CastError$GT$17hd5257ec9c4aef2a9E', symObjAddr: 0x4094, symBinAddr: 0x1A124, symSize: 0x24 }
  - { offset: 0xB1ED0, size: 0x8, addend: 0x0, symName: '__ZN4core3ptr53drop_in_place$LT$pyo3..err..err_state..PyErrState$GT$17h2dd8ac5625b2f871E', symObjAddr: 0x40B8, symBinAddr: 0x1A148, symSize: 0x64 }
  - { offset: 0xB1EFF, size: 0x8, addend: 0x0, symName: '__ZN4core3ptr55drop_in_place$LT$pyo3..internal..state..AttachGuard$GT$17hd5d0551abc878a92E', symObjAddr: 0x4140, symBinAddr: 0x1A1AC, symSize: 0x60 }
  - { offset: 0xB1F2E, size: 0x8, addend: 0x0, symName: '__ZN4core3ptr57drop_in_place$LT$pyo3..internal..state..SuspendAttach$GT$17h54d0d1efb610ceacE', symObjAddr: 0x41E8, symBinAddr: 0x1A20C, symSize: 0x24 }
  - { offset: 0xB1F5D, size: 0x8, addend: 0x0, symName: '__ZN4core3ptr57drop_in_place$LT$std..io..error..repr_bitpacked..Repr$GT$17h88358e1ca77ab13bE', symObjAddr: 0x420C, symBinAddr: 0x1A230, symSize: 0x24 }
  - { offset: 0xB1F8C, size: 0x8, addend: 0x0, symName: '__ZN4core3ptr58drop_in_place$LT$alloc..boxed..Box$LT$$u5b$u8$u5d$$GT$$GT$17hb669879bae5013afE', symObjAddr: 0x4230, symBinAddr: 0x1A254, symSize: 0x2C }
  - { offset: 0xB1FBB, size: 0x8, addend: 0x0, symName: '__ZN4core3ptr58drop_in_place$LT$alloc..raw_vec..RawVec$LT$$RF$str$GT$$GT$17h6352414521cf01e7E', symObjAddr: 0x425C, symBinAddr: 0x1A280, symSize: 0x24 }
  - { offset: 0xB1FEA, size: 0x8, addend: 0x0, symName: '__ZN4core3ptr58drop_in_place$LT$pyo3..err..err_state..PyErrStateInner$GT$17h7b3cf58b1875e852E', symObjAddr: 0x4280, symBinAddr: 0x1A2A4, symSize: 0x58 }
  - { offset: 0xB2019, size: 0x8, addend: 0x0, symName: '__ZN4core3ptr58drop_in_place$LT$std..sys..sync..mutex..pthread..Mutex$GT$17hb94c391c400df0f3E', symObjAddr: 0x42D8, symBinAddr: 0x1A2FC, symSize: 0x5C }
  - { offset: 0xB2048, size: 0x8, addend: 0x0, symName: '__ZN4core3ptr59drop_in_place$LT$pyo3..types..tuple..BoundTupleIterator$GT$17hbe6bfca4e4ddd545E', symObjAddr: 0x4334, symBinAddr: 0x1A358, symSize: 0x24 }
  - { offset: 0xB2077, size: 0x8, addend: 0x0, symName: '__ZN4core3ptr60drop_in_place$LT$std..sys..pal..unix..sync..mutex..Mutex$GT$17hb4f8082500843538E', symObjAddr: 0x4358, symBinAddr: 0x1A37C, symSize: 0x24 }
  - { offset: 0xB20A6, size: 0x8, addend: 0x0, symName: '__ZN4core3ptr62drop_in_place$LT$pyo3..err..cast_error..CastErrorArguments$GT$17h3443a3052bec08faE', symObjAddr: 0x43A0, symBinAddr: 0x1A3A0, symSize: 0x60 }
  - { offset: 0xB20D5, size: 0x8, addend: 0x0, symName: '__ZN4core3ptr63drop_in_place$LT$pyo3..err..err_state..PyErrStateNormalized$GT$17h7b3a695d47f2c5f1E', symObjAddr: 0x4424, symBinAddr: 0x1A400, symSize: 0x24 }
  - { offset: 0xB2104, size: 0x8, addend: 0x0, symName: '__ZN4core3ptr65drop_in_place$LT$core..option..Option$LT$pyo3..err..PyErr$GT$$GT$17h05b8e72b91ffcfd9E', symObjAddr: 0x4448, symBinAddr: 0x1A424, symSize: 0x40 }
  - { offset: 0xB2133, size: 0x8, addend: 0x0, symName: '__ZN4core3ptr68drop_in_place$LT$alloc..boxed..Box$LT$std..io..error..Custom$GT$$GT$17ha1cfe0e9e888c11aE', symObjAddr: 0x44D0, symBinAddr: 0x1A464, symSize: 0x60 }
  - { offset: 0xB2162, size: 0x8, addend: 0x0, symName: '__ZN4core3ptr69drop_in_place$LT$pyo3..pyclass..create_type_object..GetSetDefType$GT$17h5593c08cca4d9e7aE', symObjAddr: 0x45C0, symBinAddr: 0x1A4C4, symSize: 0x48 }
  - { offset: 0xB2191, size: 0x8, addend: 0x0, symName: '__ZN4core3ptr69drop_in_place$LT$pyo3..pyclass..create_type_object..PyTypeBuilder$GT$17h465fce6e049620ccE', symObjAddr: 0x4608, symBinAddr: 0x1A50C, symSize: 0xC4 }
  - { offset: 0xB21C0, size: 0x8, addend: 0x0, symName: '__ZN4core3ptr70drop_in_place$LT$core..option..Option$LT$alloc..string..String$GT$$GT$17h016e4c720d56bd7eE', symObjAddr: 0x46CC, symBinAddr: 0x1A5D0, symSize: 0x48 }
  - { offset: 0xB21EF, size: 0x8, addend: 0x0, symName: '__ZN4core3ptr70drop_in_place$LT$pyo3..instance..Py$LT$pyo3..types..any..PyAny$GT$$GT$17hf21bea746f10c0ceE', symObjAddr: 0x4770, symBinAddr: 0x1A618, symSize: 0x24 }
  - { offset: 0xB221E, size: 0x8, addend: 0x0, symName: '__ZN4core3ptr73drop_in_place$LT$alloc..vec..Vec$LT$pyo3_ffi..object..PyType_Slot$GT$$GT$17he80b397c8b75fc48E', symObjAddr: 0x4814, symBinAddr: 0x1A63C, symSize: 0x5C }
  - { offset: 0xB224D, size: 0x8, addend: 0x0, symName: '__ZN4core3ptr73drop_in_place$LT$pyo3..instance..Bound$LT$pyo3..types..any..PyAny$GT$$GT$17h4c29dba505355a4cE', symObjAddr: 0x4930, symBinAddr: 0x1A698, symSize: 0x24 }
  - { offset: 0xB227C, size: 0x8, addend: 0x0, symName: '__ZN4core3ptr73drop_in_place$LT$pyo3..pyclass..create_type_object..PyClassTypeObject$GT$17hd3c385bbfa6438fbE', symObjAddr: 0x499C, symBinAddr: 0x1A6BC, symSize: 0x5C }
  - { offset: 0xB22AB, size: 0x8, addend: 0x0, symName: '__ZN4core3ptr75drop_in_place$LT$core..result..Result$LT$$RF$str$C$pyo3..err..PyErr$GT$$GT$17hcb5304cecb9f06cbE', symObjAddr: 0x49F8, symBinAddr: 0x1A718, symSize: 0x40 }
  - { offset: 0xB22DA, size: 0x8, addend: 0x0, symName: '__ZN4core3ptr75drop_in_place$LT$pyo3..instance..Bound$LT$pyo3..types..dict..PyDict$GT$$GT$17hfb05532ff72e4e7fE', symObjAddr: 0x4A5C, symBinAddr: 0x1A758, symSize: 0x24 }
  - { offset: 0xB2309, size: 0x8, addend: 0x0, symName: '__ZN4core3ptr75drop_in_place$LT$pyo3..instance..Bound$LT$pyo3..types..list..PyList$GT$$GT$17he5d8c8838a6748ecE', symObjAddr: 0x4A80, symBinAddr: 0x1A77C, symSize: 0x24 }
  - { offset: 0xB2338, size: 0x8, addend: 0x0, symName: '__ZN4core3ptr76drop_in_place$LT$core..result..Result$LT$$LP$$RP$$C$pyo3..err..PyErr$GT$$GT$17h3bc390c2aeecea5bE', symObjAddr: 0x4AA4, symBinAddr: 0x1A7A0, symSize: 0x40 }
  - { offset: 0xB2367, size: 0x8, addend: 0x0, symName: '__ZN4core3ptr76drop_in_place$LT$pyo3..instance..Py$LT$pyo3..types..string..PyString$GT$$GT$17h8384cbef5d25aa0dE', symObjAddr: 0x4B08, symBinAddr: 0x1A7E0, symSize: 0x24 }
  - { offset: 0xB2396, size: 0x8, addend: 0x0, symName: '__ZN4core3ptr77drop_in_place$LT$pyo3..instance..Bound$LT$pyo3..types..bytes..PyBytes$GT$$GT$17h3713fc0045d06c57E', symObjAddr: 0x4B2C, symBinAddr: 0x1A804, symSize: 0x24 }
  - { offset: 0xB23C5, size: 0x8, addend: 0x0, symName: '__ZN4core3ptr77drop_in_place$LT$pyo3..instance..Bound$LT$pyo3..types..tuple..PyTuple$GT$$GT$17h7da14d4f846c1a0cE', symObjAddr: 0x4B74, symBinAddr: 0x1A828, symSize: 0x24 }
  - { offset: 0xB23F4, size: 0x8, addend: 0x0, symName: '__ZN4core3ptr78drop_in_place$LT$alloc..vec..Vec$LT$pyo3_ffi..descrobject..PyGetSetDef$GT$$GT$17h2d1ab02257cae0bdE', symObjAddr: 0x4B98, symBinAddr: 0x1A84C, symSize: 0x5C }
  - { offset: 0xB2423, size: 0x8, addend: 0x0, symName: '__ZN4core3ptr78drop_in_place$LT$alloc..vec..Vec$LT$pyo3_ffi..descrobject..PyMemberDef$GT$$GT$17heaca8c82a97a3bb6E', symObjAddr: 0x4BF4, symBinAddr: 0x1A8A8, symSize: 0x5C }
  - { offset: 0xB2452, size: 0x8, addend: 0x0, symName: '__ZN4core3ptr78drop_in_place$LT$pyo3..instance..Py$LT$pyo3..types..typeobject..PyType$GT$$GT$17h308ce42ea9c3d607E', symObjAddr: 0x4C50, symBinAddr: 0x1A904, symSize: 0x24 }
  - { offset: 0xB2481, size: 0x8, addend: 0x0, symName: '__ZN4core3ptr79drop_in_place$LT$$u5b$pyo3..pyclass..create_type_object..GetSetDefType$u5d$$GT$17ha6c2ee592d437526E', symObjAddr: 0x4C74, symBinAddr: 0x1A928, symSize: 0xB4 }
  - { offset: 0xB24B0, size: 0x8, addend: 0x0, symName: '__ZN4core3ptr79drop_in_place$LT$alloc..vec..Vec$LT$pyo3_ffi..methodobject..PyMethodDef$GT$$GT$17h1c8dccbbca53501fE', symObjAddr: 0x4D84, symBinAddr: 0x1A9DC, symSize: 0x5C }
  - { offset: 0xB24DF, size: 0x8, addend: 0x0, symName: '__ZN4core3ptr79drop_in_place$LT$pyo3..instance..Bound$LT$pyo3..types..module..PyModule$GT$$GT$17h39c8bb509e660c82E', symObjAddr: 0x4DE0, symBinAddr: 0x1AA38, symSize: 0x24 }
  - { offset: 0xB250E, size: 0x8, addend: 0x0, symName: '__ZN4core3ptr79drop_in_place$LT$pyo3..instance..Bound$LT$pyo3..types..string..PyString$GT$$GT$17hc7714431c28a7a7bE', symObjAddr: 0x4E04, symBinAddr: 0x1AA5C, symSize: 0x24 }
  - { offset: 0xB253D, size: 0x8, addend: 0x0, symName: '__ZN4core3ptr80drop_in_place$LT$alloc..raw_vec..RawVec$LT$pyo3_ffi..object..PyType_Slot$GT$$GT$17h0db25dfb3f4309daE', symObjAddr: 0x4E28, symBinAddr: 0x1AA80, symSize: 0x24 }
  - { offset: 0xB256C, size: 0x8, addend: 0x0, symName: '__ZN4core3ptr80drop_in_place$LT$pyo3..instance..Py$LT$pyo3..exceptions..PyBaseException$GT$$GT$17h2130aecf5cf11025E', symObjAddr: 0x4E94, symBinAddr: 0x1AAA4, symSize: 0x24 }
  - { offset: 0xB259B, size: 0x8, addend: 0x0, symName: '__ZN4core3ptr81drop_in_place$LT$pyo3..instance..Bound$LT$pyo3..types..typeobject..PyType$GT$$GT$17h36884a11e8780992E', symObjAddr: 0x4F00, symBinAddr: 0x1AAC8, symSize: 0x24 }
  - { offset: 0xB25CA, size: 0x8, addend: 0x0, symName: '__ZN4core3ptr83drop_in_place$LT$$u5b$pyo3..instance..Bound$LT$pyo3..types..any..PyAny$GT$$u5d$$GT$17hd1fa31e4447321aaE', symObjAddr: 0x4F24, symBinAddr: 0x1AAEC, symSize: 0xB4 }
  - { offset: 0xB25F9, size: 0x8, addend: 0x0, symName: '__ZN4core3ptr83drop_in_place$LT$pyo3..instance..Bound$LT$pyo3..exceptions..PyBaseException$GT$$GT$17h2a8279270d938489E', symObjAddr: 0x4FD8, symBinAddr: 0x1ABA0, symSize: 0x24 }
  - { offset: 0xB2628, size: 0x8, addend: 0x0, symName: '__ZN4core3ptr84drop_in_place$LT$pyo3..instance..Bound$LT$pyo3..types..function..PyCFunction$GT$$GT$17h3e2551211e3c0918E', symObjAddr: 0x5020, symBinAddr: 0x1ABC4, symSize: 0x24 }
  - { offset: 0xB2657, size: 0x8, addend: 0x0, symName: '__ZN4core3ptr85drop_in_place$LT$alloc..boxed..Box$LT$std..sys..pal..unix..sync..mutex..Mutex$GT$$GT$17hca5bf84e69d938f7E', symObjAddr: 0x5044, symBinAddr: 0x1ABE8, symSize: 0x60 }
  - { offset: 0xB2686, size: 0x8, addend: 0x0, symName: '__ZN4core3ptr85drop_in_place$LT$alloc..raw_vec..RawVec$LT$pyo3_ffi..descrobject..PyGetSetDef$GT$$GT$17h37a6ac7827135b6dE', symObjAddr: 0x50A4, symBinAddr: 0x1AC48, symSize: 0x24 }
  - { offset: 0xB26B5, size: 0x8, addend: 0x0, symName: '__ZN4core3ptr85drop_in_place$LT$alloc..raw_vec..RawVec$LT$pyo3_ffi..descrobject..PyMemberDef$GT$$GT$17ha0c249071e6f40d9E', symObjAddr: 0x50C8, symBinAddr: 0x1AC6C, symSize: 0x24 }
  - { offset: 0xB26E4, size: 0x8, addend: 0x0, symName: '__ZN4core3ptr85drop_in_place$LT$pyo3..instance..Bound$LT$pyo3..types..traceback..PyTraceback$GT$$GT$17h112a6fd35cd6423fE', symObjAddr: 0x5158, symBinAddr: 0x1AC90, symSize: 0x24 }
  - { offset: 0xB2713, size: 0x8, addend: 0x0, symName: '__ZN4core3ptr86drop_in_place$LT$alloc..raw_vec..RawVec$LT$pyo3_ffi..methodobject..PyMethodDef$GT$$GT$17h2e666c51149e7dfcE', symObjAddr: 0x51A0, symBinAddr: 0x1ACB4, symSize: 0x24 }
  - { offset: 0xB2742, size: 0x8, addend: 0x0, symName: '__ZN4core3ptr86drop_in_place$LT$core..option..Option$LT$pyo3..err..err_state..PyErrStateInner$GT$$GT$17ha858ce40e357e71bE', symObjAddr: 0x51C4, symBinAddr: 0x1ACD8, symSize: 0x40 }
  - { offset: 0xB2771, size: 0x8, addend: 0x0, symName: '__ZN4core3ptr91drop_in_place$LT$alloc..boxed..Box$LT$dyn$u20$core..any..Any$u2b$core..marker..Send$GT$$GT$17h5965739cb5566669E', symObjAddr: 0x52B8, symBinAddr: 0x1AD18, symSize: 0x80 }
  - { offset: 0xB27A0, size: 0x8, addend: 0x0, symName: '__ZN4core3ptr92drop_in_place$LT$alloc..vec..Vec$LT$pyo3..pyclass..create_type_object..GetSetDefType$GT$$GT$17h181b2706318d7cc7E', symObjAddr: 0x539C, symBinAddr: 0x1AD98, symSize: 0x5C }
  - { offset: 0xB27CF, size: 0x8, addend: 0x0, symName: '__ZN4core3ptr94drop_in_place$LT$$u5b$pyo3..instance..Bound$LT$pyo3..types..any..PyAny$GT$$u3b$$u20$1$u5d$$GT$17h1f2adfeffe4e9a75E', symObjAddr: 0x5480, symBinAddr: 0x1ADF4, symSize: 0xA4 }
  - { offset: 0xB27FE, size: 0x8, addend: 0x0, symName: '__ZN4core3ptr99drop_in_place$LT$alloc..raw_vec..RawVec$LT$pyo3..pyclass..create_type_object..GetSetDefType$GT$$GT$17hfe3609c118d6fdddE', symObjAddr: 0x5724, symBinAddr: 0x1AE98, symSize: 0x24 }
  - { offset: 0xB2922, size: 0x8, addend: 0x0, symName: __ZN4core6marker5FnPtr4addr17h660dff75ad76d127E, symObjAddr: 0x5CC8, symBinAddr: 0x1AFA0, symSize: 0x14 }
  - { offset: 0xB2C19, size: 0x8, addend: 0x0, symName: '__ZN104_$LT$core..ops..index_range..IndexRange$u20$as$u20$core..slice..index..SliceIndex$LT$$u5b$T$u5d$$GT$$GT$17get_unchecked_mut18precondition_check17h604adaef236ad7d6E', symObjAddr: 0x0, symBinAddr: 0x17F04, symSize: 0x60 }
  - { offset: 0xB2C78, size: 0x8, addend: 0x0, symName: '__ZN75_$LT$usize$u20$as$u20$core..slice..index..SliceIndex$LT$$u5b$T$u5d$$GT$$GT$13get_unchecked18precondition_check17h6dce647934716b03E', symObjAddr: 0x624C, symBinAddr: 0x1B0F8, symSize: 0x60 }
  - { offset: 0xB2CD1, size: 0x8, addend: 0x0, symName: '__ZN75_$LT$usize$u20$as$u20$core..slice..index..SliceIndex$LT$$u5b$T$u5d$$GT$$GT$17get_unchecked_mut18precondition_check17h477fdd098b21098dE', symObjAddr: 0x62AC, symBinAddr: 0x1B158, symSize: 0x60 }
  - { offset: 0xB2DF9, size: 0x8, addend: 0x0, symName: '__ZN4core3ops8function6FnOnce40call_once$u7b$$u7b$vtable.shim$u7d$$u7d$17h01927974a15083fcE', symObjAddr: 0x1070, symBinAddr: 0x18738, symSize: 0x24 }
  - { offset: 0xB2E3D, size: 0x8, addend: 0x0, symName: '__ZN4core3ops8function6FnOnce40call_once$u7b$$u7b$vtable.shim$u7d$$u7d$17h04d227c7b113c944E', symObjAddr: 0x1094, symBinAddr: 0x1875C, symSize: 0x24 }
  - { offset: 0xB2E81, size: 0x8, addend: 0x0, symName: '__ZN4core3ops8function6FnOnce40call_once$u7b$$u7b$vtable.shim$u7d$$u7d$17h0909a5fa41ee3457E', symObjAddr: 0x1108, symBinAddr: 0x18780, symSize: 0x30 }
  - { offset: 0xB2EC1, size: 0x8, addend: 0x0, symName: '__ZN4core3ops8function6FnOnce40call_once$u7b$$u7b$vtable.shim$u7d$$u7d$17h21aafe2fc6c5aa08E', symObjAddr: 0x1220, symBinAddr: 0x187B0, symSize: 0x38 }
  - { offset: 0xB2F05, size: 0x8, addend: 0x0, symName: '__ZN4core3ops8function6FnOnce40call_once$u7b$$u7b$vtable.shim$u7d$$u7d$17h322e1ede05734e4fE', symObjAddr: 0x12A0, symBinAddr: 0x187E8, symSize: 0x30 }
  - { offset: 0xB2F45, size: 0x8, addend: 0x0, symName: '__ZN4core3ops8function6FnOnce40call_once$u7b$$u7b$vtable.shim$u7d$$u7d$17h3f1e0e4bdfb71debE', symObjAddr: 0x1344, symBinAddr: 0x18818, symSize: 0x30 }
  - { offset: 0xB2F85, size: 0x8, addend: 0x0, symName: '__ZN4core3ops8function6FnOnce40call_once$u7b$$u7b$vtable.shim$u7d$$u7d$17h49a4c16a809f0106E', symObjAddr: 0x1434, symBinAddr: 0x18848, symSize: 0x30 }
  - { offset: 0xB2FC9, size: 0x8, addend: 0x0, symName: '__ZN4core3ops8function6FnOnce40call_once$u7b$$u7b$vtable.shim$u7d$$u7d$17h7a410a62702448b3E', symObjAddr: 0x14D4, symBinAddr: 0x18878, symSize: 0x30 }
  - { offset: 0xB3009, size: 0x8, addend: 0x0, symName: '__ZN4core3ops8function6FnOnce40call_once$u7b$$u7b$vtable.shim$u7d$$u7d$17h7d394fcef7951c4cE', symObjAddr: 0x1504, symBinAddr: 0x188A8, symSize: 0x30 }
  - { offset: 0xB304D, size: 0x8, addend: 0x0, symName: '__ZN4core3ops8function6FnOnce40call_once$u7b$$u7b$vtable.shim$u7d$$u7d$17h7de74adaefbcafccE', symObjAddr: 0x1534, symBinAddr: 0x188D8, symSize: 0x30 }
  - { offset: 0xB3091, size: 0x8, addend: 0x0, symName: '__ZN4core3ops8function6FnOnce40call_once$u7b$$u7b$vtable.shim$u7d$$u7d$17h7f8d92285bf3ed8bE', symObjAddr: 0x1564, symBinAddr: 0x18908, symSize: 0x24 }
  - { offset: 0xB30D5, size: 0x8, addend: 0x0, symName: '__ZN4core3ops8function6FnOnce40call_once$u7b$$u7b$vtable.shim$u7d$$u7d$17h7fe5978a80a6ff9fE', symObjAddr: 0x1588, symBinAddr: 0x1892C, symSize: 0x30 }
  - { offset: 0xB3119, size: 0x8, addend: 0x0, symName: '__ZN4core3ops8function6FnOnce40call_once$u7b$$u7b$vtable.shim$u7d$$u7d$17h84b70387e8f3a948E', symObjAddr: 0x15B8, symBinAddr: 0x1895C, symSize: 0x30 }
  - { offset: 0xB3159, size: 0x8, addend: 0x0, symName: '__ZN4core3ops8function6FnOnce40call_once$u7b$$u7b$vtable.shim$u7d$$u7d$17hae3f68a05bb94af5E', symObjAddr: 0x16DC, symBinAddr: 0x1898C, symSize: 0x30 }
  - { offset: 0xB3199, size: 0x8, addend: 0x0, symName: '__ZN4core3ops8function6FnOnce40call_once$u7b$$u7b$vtable.shim$u7d$$u7d$17haf943f6e8fefbb26E', symObjAddr: 0x170C, symBinAddr: 0x189BC, symSize: 0x30 }
  - { offset: 0xB31DD, size: 0x8, addend: 0x0, symName: '__ZN4core3ops8function6FnOnce40call_once$u7b$$u7b$vtable.shim$u7d$$u7d$17hbc30396debb29edcE', symObjAddr: 0x17B0, symBinAddr: 0x189EC, symSize: 0x30 }
  - { offset: 0xB3221, size: 0x8, addend: 0x0, symName: '__ZN4core3ops8function6FnOnce40call_once$u7b$$u7b$vtable.shim$u7d$$u7d$17hcab83249d663a57cE', symObjAddr: 0x1830, symBinAddr: 0x18A1C, symSize: 0x24 }
  - { offset: 0xB3265, size: 0x8, addend: 0x0, symName: '__ZN4core3ops8function6FnOnce40call_once$u7b$$u7b$vtable.shim$u7d$$u7d$17hd36be284f30b2f86E', symObjAddr: 0x1878, symBinAddr: 0x18A40, symSize: 0x30 }
  - { offset: 0xB32A5, size: 0x8, addend: 0x0, symName: '__ZN4core3ops8function6FnOnce40call_once$u7b$$u7b$vtable.shim$u7d$$u7d$17hd3a059a05dd4c2b4E', symObjAddr: 0x18A8, symBinAddr: 0x18A70, symSize: 0x24 }
  - { offset: 0xB32E9, size: 0x8, addend: 0x0, symName: '__ZN4core3ops8function6FnOnce40call_once$u7b$$u7b$vtable.shim$u7d$$u7d$17hd4e63ceb8f237e38E', symObjAddr: 0x18CC, symBinAddr: 0x18A94, symSize: 0x30 }
  - { offset: 0xB3329, size: 0x8, addend: 0x0, symName: '__ZN4core3ops8function6FnOnce40call_once$u7b$$u7b$vtable.shim$u7d$$u7d$17he523df42e20b36d3E', symObjAddr: 0x1924, symBinAddr: 0x18AC4, symSize: 0x24 }
  - { offset: 0xB336D, size: 0x8, addend: 0x0, symName: '__ZN4core3ops8function6FnOnce40call_once$u7b$$u7b$vtable.shim$u7d$$u7d$17hee4cfaa916d0a22aE', symObjAddr: 0x1948, symBinAddr: 0x18AE8, symSize: 0x24 }
  - { offset: 0xB33B1, size: 0x8, addend: 0x0, symName: '__ZN4core3ops8function6FnOnce40call_once$u7b$$u7b$vtable.shim$u7d$$u7d$17hf1dc767268a26ebfE', symObjAddr: 0x196C, symBinAddr: 0x18B0C, symSize: 0x38 }
  - { offset: 0xB33F5, size: 0x8, addend: 0x0, symName: __ZN4core3ops8function6FnOnce9call_once17h074db6ea6f0952e3E, symObjAddr: 0x19F4, symBinAddr: 0x18B44, symSize: 0x4C }
  - { offset: 0xB3435, size: 0x8, addend: 0x0, symName: __ZN4core3ops8function6FnOnce9call_once17h0a26974e5b0fdf67E, symObjAddr: 0x1A40, symBinAddr: 0x18B90, symSize: 0x2C }
  - { offset: 0xB3479, size: 0x8, addend: 0x0, symName: __ZN4core3ops8function6FnOnce9call_once17h0aa9938860fba894E, symObjAddr: 0x1A6C, symBinAddr: 0x18BBC, symSize: 0x2C }
  - { offset: 0xB34BD, size: 0x8, addend: 0x0, symName: __ZN4core3ops8function6FnOnce9call_once17h2ea9b0e8451af5f5E, symObjAddr: 0x1B14, symBinAddr: 0x18BE8, symSize: 0x4C }
  - { offset: 0xB34FD, size: 0x8, addend: 0x0, symName: __ZN4core3ops8function6FnOnce9call_once17h37532e0eb83e28e4E, symObjAddr: 0x1B60, symBinAddr: 0x18C34, symSize: 0x40 }
  - { offset: 0xB3542, size: 0x8, addend: 0x0, symName: __ZN4core3ops8function6FnOnce9call_once17h3fae751bd8e4c01dE, symObjAddr: 0x1BC4, symBinAddr: 0x18C74, symSize: 0x1C }
  - { offset: 0xB3586, size: 0x8, addend: 0x0, symName: __ZN4core3ops8function6FnOnce9call_once17h3fda52c4c6692755E, symObjAddr: 0x1BE0, symBinAddr: 0x18C90, symSize: 0x24 }
  - { offset: 0xB35CA, size: 0x8, addend: 0x0, symName: __ZN4core3ops8function6FnOnce9call_once17h48d16590f3ba33a5E, symObjAddr: 0x1C04, symBinAddr: 0x18CB4, symSize: 0x4C }
  - { offset: 0xB360A, size: 0x8, addend: 0x0, symName: __ZN4core3ops8function6FnOnce9call_once17h4a0afe766debd255E, symObjAddr: 0x1C50, symBinAddr: 0x18D00, symSize: 0x24 }
  - { offset: 0xB364E, size: 0x8, addend: 0x0, symName: __ZN4core3ops8function6FnOnce9call_once17h552b1853280ff965E, symObjAddr: 0x1CF4, symBinAddr: 0x18D24, symSize: 0x2C }
  - { offset: 0xB3692, size: 0x8, addend: 0x0, symName: __ZN4core3ops8function6FnOnce9call_once17h57d3c6256e8ecd7aE, symObjAddr: 0x1D44, symBinAddr: 0x18D50, symSize: 0x24 }
  - { offset: 0xB36D6, size: 0x8, addend: 0x0, symName: __ZN4core3ops8function6FnOnce9call_once17h58fc723367d75074E, symObjAddr: 0x1D68, symBinAddr: 0x18D74, symSize: 0x24 }
  - { offset: 0xB371A, size: 0x8, addend: 0x0, symName: __ZN4core3ops8function6FnOnce9call_once17h626bf2d048a99a34E, symObjAddr: 0x1E24, symBinAddr: 0x18D98, symSize: 0x4C }
  - { offset: 0xB375A, size: 0x8, addend: 0x0, symName: __ZN4core3ops8function6FnOnce9call_once17h627ef7b2bae0fe75E, symObjAddr: 0x1E70, symBinAddr: 0x18DE4, symSize: 0x34 }
  - { offset: 0xB379E, size: 0x8, addend: 0x0, symName: __ZN4core3ops8function6FnOnce9call_once17h6d663e14c641226cE, symObjAddr: 0x1EA4, symBinAddr: 0x18E18, symSize: 0x5C }
  - { offset: 0xB37E2, size: 0x8, addend: 0x0, symName: __ZN4core3ops8function6FnOnce9call_once17h77090759e988735fE, symObjAddr: 0x1F00, symBinAddr: 0x18E74, symSize: 0x4C }
  - { offset: 0xB3826, size: 0x8, addend: 0x0, symName: __ZN4core3ops8function6FnOnce9call_once17h9167589a1802f73fE, symObjAddr: 0x1FB8, symBinAddr: 0x18EC0, symSize: 0x24 }
  - { offset: 0xB386A, size: 0x8, addend: 0x0, symName: __ZN4core3ops8function6FnOnce9call_once17h9a9092441751cc22E, symObjAddr: 0x1FDC, symBinAddr: 0x18EE4, symSize: 0x4C }
  - { offset: 0xB38AA, size: 0x8, addend: 0x0, symName: __ZN4core3ops8function6FnOnce9call_once17h9aa8205eff53c7e1E, symObjAddr: 0x2028, symBinAddr: 0x18F30, symSize: 0x58 }
  - { offset: 0xB38EE, size: 0x8, addend: 0x0, symName: __ZN4core3ops8function6FnOnce9call_once17ha131f073c3ad7247E, symObjAddr: 0x20A4, symBinAddr: 0x18F88, symSize: 0x1C }
  - { offset: 0xB3932, size: 0x8, addend: 0x0, symName: __ZN4core3ops8function6FnOnce9call_once17ha8b8747e4d5ddf0aE, symObjAddr: 0x20C0, symBinAddr: 0x18FA4, symSize: 0x2C }
  - { offset: 0xB3976, size: 0x8, addend: 0x0, symName: __ZN4core3ops8function6FnOnce9call_once17ha984de24f6bc1f21E, symObjAddr: 0x20EC, symBinAddr: 0x18FD0, symSize: 0x4C }
  - { offset: 0xB39B6, size: 0x8, addend: 0x0, symName: __ZN4core3ops8function6FnOnce9call_once17haf863777028f4e17E, symObjAddr: 0x215C, symBinAddr: 0x1901C, symSize: 0x4C }
  - { offset: 0xB39FA, size: 0x8, addend: 0x0, symName: __ZN4core3ops8function6FnOnce9call_once17hb681cf094ce3b573E, symObjAddr: 0x21E8, symBinAddr: 0x19068, symSize: 0x4C }
  - { offset: 0xB3A3A, size: 0x8, addend: 0x0, symName: __ZN4core3ops8function6FnOnce9call_once17hbadc127530d7d21cE, symObjAddr: 0x2234, symBinAddr: 0x190B4, symSize: 0x44 }
  - { offset: 0xB3A7E, size: 0x8, addend: 0x0, symName: __ZN4core3ops8function6FnOnce9call_once17headc626ee1347e18E, symObjAddr: 0x22EC, symBinAddr: 0x190F8, symSize: 0x40 }
  - { offset: 0xB3AC3, size: 0x8, addend: 0x0, symName: __ZN4core3ops8function6FnOnce9call_once17hf30d4070444cc650E, symObjAddr: 0x2374, symBinAddr: 0x19138, symSize: 0x4C }
  - { offset: 0xB3B03, size: 0x8, addend: 0x0, symName: __ZN4core3ops8function6FnOnce9call_once17hfa8acf7eef8d3ec6E, symObjAddr: 0x23C0, symBinAddr: 0x19184, symSize: 0x24 }
  - { offset: 0xB3BA7, size: 0x8, addend: 0x0, symName: '__ZN82_$LT$core..array..iter..IntoIter$LT$T$C$_$GT$$u20$as$u20$core..ops..drop..Drop$GT$4drop17h16692e05bef2a612E', symObjAddr: 0x6728, symBinAddr: 0x1B1B8, symSize: 0x30 }
  - { offset: 0xB3BFE, size: 0x8, addend: 0x0, symName: '__ZN99_$LT$core..array..iter..IntoIter$LT$T$C$_$GT$$u20$as$u20$core..iter..traits..iterator..Iterator$GT$4next17hb2ffd819199be8ddE', symObjAddr: 0x71F4, symBinAddr: 0x1B398, symSize: 0x2C }
  - { offset: 0xB4F32, size: 0x8, addend: 0x0, symName: '__ZN4core3fmt8builders11DebugStruct10field_with28_$u7b$$u7b$closure$u7d$$u7d$17h254f56099ca888d2E', symObjAddr: 0xB4C, symBinAddr: 0x183E4, symSize: 0x354 }
  - { offset: 0xB5485, size: 0x8, addend: 0x0, symName: '__ZN4core4bool22_$LT$impl$u20$bool$GT$9then_some17he7dceaed52862dc6E', symObjAddr: 0x5AEC, symBinAddr: 0x1AEBC, symSize: 0x38 }
  - { offset: 0xB54D4, size: 0x8, addend: 0x0, symName: __ZN4core4hint16assert_unchecked18precondition_check17he806a6367f2898cbE, symObjAddr: 0x5B24, symBinAddr: 0x1AEF4, symSize: 0x58 }
  - { offset: 0xB551F, size: 0x8, addend: 0x0, symName: __ZN4core4hint21unreachable_unchecked18precondition_check17h83e17451c4220a3aE, symObjAddr: 0x5B7C, symBinAddr: 0x1AF4C, symSize: 0x3C }
  - { offset: 0xB55EA, size: 0x8, addend: 0x0, symName: __ZN4core4iter6traits8iterator8Iterator9enumerate17h014cfaac5763a982E, symObjAddr: 0x5C30, symBinAddr: 0x1AF88, symSize: 0x18 }
  - { offset: 0xB561B, size: 0x8, addend: 0x0, symName: __ZN4core4iter6traits8iterator8Iterator9enumerate17h014cfaac5763a982E, symObjAddr: 0x5C30, symBinAddr: 0x1AF88, symSize: 0x18 }
  - { offset: 0xB564E, size: 0x8, addend: 0x0, symName: __ZN4core9core_arch7aarch644neon9generated7vld1_u817h4dbc37a973073a6eE, symObjAddr: 0x5CF0, symBinAddr: 0x1AFB4, symSize: 0x34 }
  - { offset: 0xB567C, size: 0x8, addend: 0x0, symName: __ZN4core9core_arch7aarch644neon9generated7vst1_u817h67d605d39f146a0bE, symObjAddr: 0x5D24, symBinAddr: 0x1AFE8, symSize: 0x40 }
  - { offset: 0xB56B6, size: 0x8, addend: 0x0, symName: __ZN4core9core_arch7aarch644neon9generated8vcgez_s817h011559ff742f926bE, symObjAddr: 0x5D64, symBinAddr: 0x1B028, symSize: 0x68 }
  - { offset: 0xB5758, size: 0x8, addend: 0x0, symName: __ZN4core9core_arch7aarch644neon9generated8vcltz_s817h27b1781dea627070E, symObjAddr: 0x5DCC, symBinAddr: 0x1B090, symSize: 0x68 }
  - { offset: 0xB6B97, size: 0x8, addend: 0x0, symName: '__ZN3std4sync6poison5mutex19MutexGuard$LT$T$GT$3new28_$u7b$$u7b$closure$u7d$$u7d$17h14f7e37f196b0e9bE', symObjAddr: 0x2BC, symBinAddr: 0x180E0, symSize: 0x18 }
  - { offset: 0xB6BDF, size: 0x8, addend: 0x0, symName: '__ZN3std4sync6poison5mutex19MutexGuard$LT$T$GT$3new28_$u7b$$u7b$closure$u7d$$u7d$17h87c9cc81f1937bb3E', symObjAddr: 0x2D4, symBinAddr: 0x180F8, symSize: 0x18 }
  - { offset: 0xB6C27, size: 0x8, addend: 0x0, symName: '__ZN3std4sync6poison5mutex19MutexGuard$LT$T$GT$3new28_$u7b$$u7b$closure$u7d$$u7d$17h91688639af6f1099E', symObjAddr: 0x2EC, symBinAddr: 0x18110, symSize: 0x18 }
  - { offset: 0xB6C76, size: 0x8, addend: 0x0, symName: '__ZN87_$LT$std..sync..poison..mutex..MutexGuard$LT$T$GT$$u20$as$u20$core..ops..drop..Drop$GT$4drop17h00e19f5586f5d948E', symObjAddr: 0x6970, symBinAddr: 0x1B1E8, symSize: 0x58 }
  - { offset: 0xB6CF4, size: 0x8, addend: 0x0, symName: '__ZN87_$LT$std..sync..poison..mutex..MutexGuard$LT$T$GT$$u20$as$u20$core..ops..drop..Drop$GT$4drop17h17f7fedd1ecae8f6E', symObjAddr: 0x69C8, symBinAddr: 0x1B240, symSize: 0x58 }
  - { offset: 0xB6D72, size: 0x8, addend: 0x0, symName: '__ZN87_$LT$std..sync..poison..mutex..MutexGuard$LT$T$GT$$u20$as$u20$core..ops..drop..Drop$GT$4drop17h62da0bfee9ec7fb7E', symObjAddr: 0x6A20, symBinAddr: 0x1B298, symSize: 0x58 }
  - { offset: 0xB6DF6, size: 0x8, addend: 0x0, symName: '__ZN89_$LT$std..sync..poison..mutex..MutexGuard$LT$T$GT$$u20$as$u20$core..ops..deref..Deref$GT$5deref17h3926211a12d85983E', symObjAddr: 0x6DFC, symBinAddr: 0x1B2F0, symSize: 0x1C }
  - { offset: 0xB6E42, size: 0x8, addend: 0x0, symName: '__ZN89_$LT$std..sync..poison..mutex..MutexGuard$LT$T$GT$$u20$as$u20$core..ops..deref..Deref$GT$5deref17h4c1a866a35c371c8E', symObjAddr: 0x6E18, symBinAddr: 0x1B30C, symSize: 0x1C }
  - { offset: 0xB6E8E, size: 0x8, addend: 0x0, symName: '__ZN89_$LT$std..sync..poison..mutex..MutexGuard$LT$T$GT$$u20$as$u20$core..ops..deref..Deref$GT$5deref17h976bf8244e1ce03fE', symObjAddr: 0x6E34, symBinAddr: 0x1B328, symSize: 0x1C }
  - { offset: 0xB6EE0, size: 0x8, addend: 0x0, symName: '__ZN92_$LT$std..sync..poison..mutex..MutexGuard$LT$T$GT$$u20$as$u20$core..ops..deref..DerefMut$GT$9deref_mut17h07d181f8a4117604E', symObjAddr: 0x6ED8, symBinAddr: 0x1B344, symSize: 0x1C }
  - { offset: 0xB6F2C, size: 0x8, addend: 0x0, symName: '__ZN92_$LT$std..sync..poison..mutex..MutexGuard$LT$T$GT$$u20$as$u20$core..ops..deref..DerefMut$GT$9deref_mut17h18b4d0ede310c37bE', symObjAddr: 0x6EF4, symBinAddr: 0x1B360, symSize: 0x1C }
  - { offset: 0xB6F78, size: 0x8, addend: 0x0, symName: '__ZN92_$LT$std..sync..poison..mutex..MutexGuard$LT$T$GT$$u20$as$u20$core..ops..deref..DerefMut$GT$9deref_mut17h94ae147f79ee5778E', symObjAddr: 0x6F10, symBinAddr: 0x1B37C, symSize: 0x1C }
  - { offset: 0xB79B4, size: 0x8, addend: 0x0, symName: '__ZN3std4sync6poison5mutex14Mutex$LT$T$GT$3new17h316dfd24f1faba6aE', symObjAddr: 0x140, symBinAddr: 0x17F64, symSize: 0x44 }
  - { offset: 0xB7A98, size: 0x8, addend: 0x0, symName: '__ZN3std4sync6poison5mutex14Mutex$LT$T$GT$3new17hd00536d7d2e4fdd3E', symObjAddr: 0x184, symBinAddr: 0x17FA8, symSize: 0x60 }
  - { offset: 0xB7BA9, size: 0x8, addend: 0x0, symName: '__ZN3std4sync6poison5mutex14Mutex$LT$T$GT$4lock17h3e68655e2b416111E', symObjAddr: 0x1E4, symBinAddr: 0x18008, symSize: 0x48 }
  - { offset: 0xB7C7B, size: 0x8, addend: 0x0, symName: '__ZN3std4sync6poison5mutex14Mutex$LT$T$GT$4lock17h7f7b10f92ab175d9E', symObjAddr: 0x22C, symBinAddr: 0x18050, symSize: 0x48 }
  - { offset: 0xB7D4D, size: 0x8, addend: 0x0, symName: '__ZN3std4sync6poison5mutex14Mutex$LT$T$GT$4lock17hfbd9c2a34069ddbcE', symObjAddr: 0x274, symBinAddr: 0x18098, symSize: 0x48 }
  - { offset: 0xB7E99, size: 0x8, addend: 0x0, symName: __ZN4core3fmt2rt8Argument11new_display17h162ac47f67f6285bE, symObjAddr: 0x330, symBinAddr: 0x18128, symSize: 0x2C }
  - { offset: 0xB7EDE, size: 0x8, addend: 0x0, symName: __ZN4core3fmt2rt8Argument11new_display17h282ba60db0cd067fE, symObjAddr: 0x388, symBinAddr: 0x18154, symSize: 0x2C }
  - { offset: 0xB7F6B, size: 0x8, addend: 0x0, symName: __ZN4core3fmt2rt8Argument11new_display17h36f132bae0e861d8E, symObjAddr: 0x3B4, symBinAddr: 0x18180, symSize: 0x2C }
  - { offset: 0xB7FA3, size: 0x8, addend: 0x0, symName: __ZN4core3fmt2rt8Argument11new_display17h49cc293695e3fcfaE, symObjAddr: 0x3E0, symBinAddr: 0x181AC, symSize: 0x2C }
  - { offset: 0xB7FDB, size: 0x8, addend: 0x0, symName: __ZN4core3fmt2rt8Argument11new_display17h6215ba5033b43f97E, symObjAddr: 0x40C, symBinAddr: 0x181D8, symSize: 0x2C }
  - { offset: 0xB802D, size: 0x8, addend: 0x0, symName: __ZN4core3fmt2rt8Argument11new_display17hc918622e419b7192E, symObjAddr: 0x4BC, symBinAddr: 0x18204, symSize: 0x2C }
  - { offset: 0xB808C, size: 0x8, addend: 0x0, symName: __ZN4core3fmt2rt8Argument11new_display17hd591d335897cc26bE, symObjAddr: 0x514, symBinAddr: 0x18230, symSize: 0x2C }
  - { offset: 0xB80B7, size: 0x8, addend: 0x0, symName: __ZN4core3fmt2rt8Argument11new_display17hd9881897d1b221bdE, symObjAddr: 0x540, symBinAddr: 0x1825C, symSize: 0x2C }
  - { offset: 0xB80FC, size: 0x8, addend: 0x0, symName: __ZN4core3fmt2rt8Argument11new_display17hdf0b8995f7f8fcb0E, symObjAddr: 0x56C, symBinAddr: 0x18288, symSize: 0x2C }
  - { offset: 0xB8127, size: 0x8, addend: 0x0, symName: __ZN4core3fmt2rt8Argument11new_display17hee5833f89a06e6bcE, symObjAddr: 0x598, symBinAddr: 0x182B4, symSize: 0x2C }
  - { offset: 0xB8152, size: 0x8, addend: 0x0, symName: __ZN4core3fmt2rt8Argument11new_display17hf98815add21a0149E, symObjAddr: 0x5C4, symBinAddr: 0x182E0, symSize: 0x2C }
  - { offset: 0xB818A, size: 0x8, addend: 0x0, symName: __ZN4core3fmt2rt8Argument9new_debug17h34fdb8bafd912a33E, symObjAddr: 0x5F0, symBinAddr: 0x1830C, symSize: 0x2C }
  - { offset: 0xB823D, size: 0x8, addend: 0x0, symName: __ZN4core3fmt8builders11DebugStruct10field_with17h15d4cab66975131dE, symObjAddr: 0x6A0, symBinAddr: 0x18338, symSize: 0xAC }
  - { offset: 0xB9708, size: 0x8, addend: 0x0, symName: '__ZN79_$LT$pyo3..types..string..PyString$u20$as$u20$pyo3..type_object..PyTypeInfo$GT$10is_type_of17ha10590945586f303E', symObjAddr: 0x76A0, symBinAddr: 0x1BFEC, symSize: 0x30 }
  - { offset: 0xB9734, size: 0x8, addend: 0x0, symName: '__ZN79_$LT$pyo3..types..string..PyString$u20$as$u20$pyo3..type_object..PyTypeInfo$GT$15type_object_raw17h9f263d5afd4ea949E', symObjAddr: 0x76D0, symBinAddr: 0x1C01C, symSize: 0x24 }
  - { offset: 0xB9770, size: 0x8, addend: 0x0, symName: '__ZN79_$LT$pyo3..types..string..PyString$u20$as$u20$pyo3..type_object..PyTypeInfo$GT$15type_object_raw28_$u7b$$u7b$closure$u7d$$u7d$17h15896781647a9c45E', symObjAddr: 0x76F4, symBinAddr: 0x1C040, symSize: 0x18 }
  - { offset: 0xB9CBF, size: 0x8, addend: 0x0, symName: '__ZN79_$LT$pyo3..exceptions..PyTypeError$u20$as$u20$pyo3..type_object..PyTypeInfo$GT$15type_object_raw17h9abe95a75347c473E', symObjAddr: 0x7630, symBinAddr: 0x1BF7C, symSize: 0x24 }
  - { offset: 0xB9CFB, size: 0x8, addend: 0x0, symName: '__ZN79_$LT$pyo3..exceptions..PyTypeError$u20$as$u20$pyo3..type_object..PyTypeInfo$GT$15type_object_raw28_$u7b$$u7b$closure$u7d$$u7d$17hd2c2f3725f6c494bE', symObjAddr: 0x7654, symBinAddr: 0x1BFA0, symSize: 0x4C }
  - { offset: 0xB9D4E, size: 0x8, addend: 0x0, symName: '__ZN80_$LT$pyo3..exceptions..PyValueError$u20$as$u20$pyo3..type_object..PyTypeInfo$GT$15type_object_raw17h8f5241e399ddaf75E', symObjAddr: 0x770C, symBinAddr: 0x1C058, symSize: 0x24 }
  - { offset: 0xB9D8A, size: 0x8, addend: 0x0, symName: '__ZN80_$LT$pyo3..exceptions..PyValueError$u20$as$u20$pyo3..type_object..PyTypeInfo$GT$15type_object_raw28_$u7b$$u7b$closure$u7d$$u7d$17h68a94f8b3b242353E', symObjAddr: 0x7730, symBinAddr: 0x1C07C, symSize: 0x4C }
  - { offset: 0xB9DDD, size: 0x8, addend: 0x0, symName: '__ZN82_$LT$pyo3..exceptions..PyRuntimeError$u20$as$u20$pyo3..type_object..PyTypeInfo$GT$15type_object_raw17h052b426cb3fcfd1aE', symObjAddr: 0x7CCC, symBinAddr: 0x1C0C8, symSize: 0x24 }
  - { offset: 0xB9E19, size: 0x8, addend: 0x0, symName: '__ZN82_$LT$pyo3..exceptions..PyRuntimeError$u20$as$u20$pyo3..type_object..PyTypeInfo$GT$15type_object_raw28_$u7b$$u7b$closure$u7d$$u7d$17h362a29e5747bd3c6E', symObjAddr: 0x7CF0, symBinAddr: 0x1C0EC, symSize: 0x4C }
  - { offset: 0xB9E6C, size: 0x8, addend: 0x0, symName: '__ZN83_$LT$pyo3..exceptions..PyBaseException$u20$as$u20$pyo3..type_object..PyTypeInfo$GT$10is_type_of17h7be2f00a47ad8916E', symObjAddr: 0x7DAC, symBinAddr: 0x1C138, symSize: 0x30 }
  - { offset: 0xB9E98, size: 0x8, addend: 0x0, symName: '__ZN83_$LT$pyo3..exceptions..PyBaseException$u20$as$u20$pyo3..type_object..PyTypeInfo$GT$15type_object_raw17h44645e5474ea2d39E', symObjAddr: 0x7DDC, symBinAddr: 0x1C168, symSize: 0x24 }
  - { offset: 0xB9ED4, size: 0x8, addend: 0x0, symName: '__ZN83_$LT$pyo3..exceptions..PyBaseException$u20$as$u20$pyo3..type_object..PyTypeInfo$GT$15type_object_raw28_$u7b$$u7b$closure$u7d$$u7d$17hba39e77e5e870e57E', symObjAddr: 0x7E00, symBinAddr: 0x1C18C, symSize: 0x4C }
  - { offset: 0xB9F27, size: 0x8, addend: 0x0, symName: '__ZN84_$LT$pyo3..exceptions..PyAttributeError$u20$as$u20$pyo3..type_object..PyTypeInfo$GT$15type_object_raw17h0466f9ee9fce078fE', symObjAddr: 0x8050, symBinAddr: 0x1C1D8, symSize: 0x24 }
  - { offset: 0xB9F63, size: 0x8, addend: 0x0, symName: '__ZN84_$LT$pyo3..exceptions..PyAttributeError$u20$as$u20$pyo3..type_object..PyTypeInfo$GT$15type_object_raw28_$u7b$$u7b$closure$u7d$$u7d$17h45ba1dedc5f60fbcE', symObjAddr: 0x8074, symBinAddr: 0x1C1FC, symSize: 0x4C }
  - { offset: 0xB9FCE, size: 0x8, addend: 0x0, symName: '__ZN77_$LT$pyo3..panic..PanicException$u20$as$u20$pyo3..type_object..PyTypeInfo$GT$15type_object_raw11TYPE_OBJECT17h6227a4e978cef2daE', symObjAddr: 0x428A0, symBinAddr: 0x135028, symSize: 0x0 }
  - { offset: 0xB9FDB, size: 0x8, addend: 0x0, symName: '__ZN77_$LT$pyo3..panic..PanicException$u20$as$u20$pyo3..type_object..PyTypeInfo$GT$15type_object_raw28_$u7b$$u7b$closure$u7d$$u7d$17h54ae225a187fbd15E', symObjAddr: 0x73C4, symBinAddr: 0x1BE9C, symSize: 0xE0 }
  - { offset: 0xBA026, size: 0x8, addend: 0x0, symName: '__ZN77_$LT$pyo3..panic..PanicException$u20$as$u20$pyo3..type_object..PyTypeInfo$GT$15type_object_raw17h32c9b5e36598d1cdE', symObjAddr: 0x7390, symBinAddr: 0x1BE68, symSize: 0x34 }
  - { offset: 0xBA165, size: 0x8, addend: 0x0, symName: __ZN4pyo311type_object10PyTypeInfo11type_object17h107be311de461001E, symObjAddr: 0x45D8, symBinAddr: 0x1B834, symSize: 0x30 }
  - { offset: 0xBA1A5, size: 0x8, addend: 0x0, symName: __ZN4pyo311type_object10PyTypeInfo11type_object17h1c60daca49af2cd7E, symObjAddr: 0x4698, symBinAddr: 0x1B864, symSize: 0x30 }
  - { offset: 0xBA1E5, size: 0x8, addend: 0x0, symName: __ZN4pyo311type_object10PyTypeInfo11type_object17h3c29f17cb1f7d1a0E, symObjAddr: 0x4758, symBinAddr: 0x1B894, symSize: 0x30 }
  - { offset: 0xBA225, size: 0x8, addend: 0x0, symName: __ZN4pyo311type_object10PyTypeInfo11type_object17h93e2b9efc8fe8685E, symObjAddr: 0x4878, symBinAddr: 0x1B8C4, symSize: 0x30 }
  - { offset: 0xBA265, size: 0x8, addend: 0x0, symName: __ZN4pyo311type_object10PyTypeInfo11type_object17ha8b5221686dab5b2E, symObjAddr: 0x48D8, symBinAddr: 0x1B8F4, symSize: 0x30 }
  - { offset: 0xBA2A5, size: 0x8, addend: 0x0, symName: __ZN4pyo311type_object10PyTypeInfo11type_object17hb87d817edd9a6669E, symObjAddr: 0x4908, symBinAddr: 0x1B924, symSize: 0x30 }
  - { offset: 0xBA2E5, size: 0x8, addend: 0x0, symName: __ZN4pyo311type_object10PyTypeInfo11type_object17hcd7599bfdc7f61c6E, symObjAddr: 0x4A28, symBinAddr: 0x1B954, symSize: 0x30 }
  - { offset: 0xBA325, size: 0x8, addend: 0x0, symName: __ZN4pyo311type_object10PyTypeInfo16is_exact_type_of17h20811f31f551a78aE, symObjAddr: 0x4B48, symBinAddr: 0x1B984, symSize: 0x58 }
  - { offset: 0xBA385, size: 0x8, addend: 0x0, symName: '__ZN52_$LT$T$u20$as$u20$pyo3..type_object..PyTypeCheck$GT$10type_check17h843e2882d6fb1136E', symObjAddr: 0x6C20, symBinAddr: 0x1BDE0, symSize: 0x24 }
  - { offset: 0xBA3BA, size: 0x8, addend: 0x0, symName: '__ZN52_$LT$T$u20$as$u20$pyo3..type_object..PyTypeCheck$GT$10type_check17h886c698d7dd8074bE', symObjAddr: 0x6C44, symBinAddr: 0x1BE04, symSize: 0x24 }
  - { offset: 0xBA3EF, size: 0x8, addend: 0x0, symName: '__ZN52_$LT$T$u20$as$u20$pyo3..type_object..PyTypeCheck$GT$16classinfo_object17hcfc5470ffeec95f2E', symObjAddr: 0x6D2C, symBinAddr: 0x1BE28, symSize: 0x20 }
  - { offset: 0xBA42F, size: 0x8, addend: 0x0, symName: '__ZN52_$LT$T$u20$as$u20$pyo3..type_object..PyTypeCheck$GT$16classinfo_object17hd9995a01a798e610E', symObjAddr: 0x6D4C, symBinAddr: 0x1BE48, symSize: 0x20 }
  - { offset: 0xBA4B6, size: 0x8, addend: 0x0, symName: __ZN4pyo36pycell5impl_10tp_dealloc17hb5414b83a13231c7E, symObjAddr: 0x6944, symBinAddr: 0x1BC24, symSize: 0x1BC }
  - { offset: 0xBA5D1, size: 0x8, addend: 0x0, symName: '__ZN96_$LT$pyo3..pycell..impl_..BorrowChecker$u20$as$u20$pyo3..pycell..impl_..PyClassBorrowChecker$GT$10try_borrow17h73a0cb31673ac278E', symObjAddr: 0x86EC, symBinAddr: 0x1C248, symSize: 0x24 }
  - { offset: 0xBA5FD, size: 0x8, addend: 0x0, symName: '__ZN96_$LT$pyo3..pycell..impl_..BorrowChecker$u20$as$u20$pyo3..pycell..impl_..PyClassBorrowChecker$GT$14release_borrow17h5694c41613121b30E', symObjAddr: 0x8710, symBinAddr: 0x1C26C, symSize: 0x24 }
  - { offset: 0xBA625, size: 0x8, addend: 0x0, symName: '__ZN96_$LT$pyo3..pycell..impl_..BorrowChecker$u20$as$u20$pyo3..pycell..impl_..PyClassBorrowChecker$GT$14try_borrow_mut17hc329826ac46713dcE', symObjAddr: 0x8734, symBinAddr: 0x1C290, symSize: 0x64 }
  - { offset: 0xBA66E, size: 0x8, addend: 0x0, symName: '__ZN96_$LT$pyo3..pycell..impl_..BorrowChecker$u20$as$u20$pyo3..pycell..impl_..PyClassBorrowChecker$GT$18release_borrow_mut17h5662ebf64e7dfbacE', symObjAddr: 0x8798, symBinAddr: 0x1C2F4, symSize: 0x2C }
  - { offset: 0xBB9DF, size: 0x8, addend: 0x0, symName: '__ZN100_$LT$core..iter..adapters..take..Take$LT$I$GT$$u20$as$u20$core..iter..traits..iterator..Iterator$GT$4next17he68641fe536a5f24E', symObjAddr: 0x120, symBinAddr: 0x1B3C4, symSize: 0x58 }
  - { offset: 0xBBA14, size: 0x8, addend: 0x0, symName: '__ZN100_$LT$core..iter..adapters..take..Take$LT$I$GT$$u20$as$u20$core..iter..traits..iterator..Iterator$GT$9size_hint17hcf591e3f19738252E', symObjAddr: 0x178, symBinAddr: 0x1B41C, symSize: 0x100 }
  - { offset: 0xBBB7D, size: 0x8, addend: 0x0, symName: __ZN4core4iter6traits8iterator8Iterator3zip17h3427ad7051444dd8E, symObjAddr: 0x11A4, symBinAddr: 0x1B610, symSize: 0xB0 }
  - { offset: 0xBCCF4, size: 0x8, addend: 0x0, symName: '__ZN3std3sys4sync5mutex7pthread5Mutex3get28_$u7b$$u7b$closure$u7d$$u7d$17he130e9b44c9b0b80E', symObjAddr: 0xF90, symBinAddr: 0x1B51C, symSize: 0xF4 }
  - { offset: 0xBD44D, size: 0x8, addend: 0x0, symName: __ZN4pyo310exceptions11PyTypeError7new_err17h6e73874177ea151bE, symObjAddr: 0x12B8, symBinAddr: 0x1B6C0, symSize: 0x28 }
  - { offset: 0xBD478, size: 0x8, addend: 0x0, symName: __ZN4pyo310exceptions11PyTypeError7new_err17h99df2e39988b09a6E, symObjAddr: 0x12E0, symBinAddr: 0x1B6E8, symSize: 0x34 }
  - { offset: 0xBD4A4, size: 0x8, addend: 0x0, symName: __ZN4pyo310exceptions11PyTypeError7new_err17hb3ad38718871c113E, symObjAddr: 0x1314, symBinAddr: 0x1B71C, symSize: 0x2C }
  - { offset: 0xBD4CF, size: 0x8, addend: 0x0, symName: __ZN4pyo310exceptions12PyValueError7new_err17h51b7be174cdf3adbE, symObjAddr: 0x1360, symBinAddr: 0x1B748, symSize: 0x28 }
  - { offset: 0xBD4FA, size: 0x8, addend: 0x0, symName: __ZN4pyo310exceptions12PyValueError7new_err17h5b5126ab416fb8e1E, symObjAddr: 0x1388, symBinAddr: 0x1B770, symSize: 0x34 }
  - { offset: 0xBD526, size: 0x8, addend: 0x0, symName: __ZN4pyo310exceptions12PyValueError7new_err17hf817e3582357932eE, symObjAddr: 0x1434, symBinAddr: 0x1B7A4, symSize: 0x34 }
  - { offset: 0xBD552, size: 0x8, addend: 0x0, symName: __ZN4pyo310exceptions14PyRuntimeError7new_err17h60af67a11b7252d3E, symObjAddr: 0x14F8, symBinAddr: 0x1B7D8, symSize: 0x34 }
  - { offset: 0xBD57E, size: 0x8, addend: 0x0, symName: __ZN4pyo310exceptions16PyAttributeError7new_err17h992acb2b114526ebE, symObjAddr: 0x15AC, symBinAddr: 0x1B80C, symSize: 0x28 }
  - { offset: 0xBD619, size: 0x8, addend: 0x0, symName: __ZN4pyo35panic14PanicException18from_panic_payload17h0ab6f927cf0a0040E, symObjAddr: 0x55EC, symBinAddr: 0xB9E60, symSize: 0x144 }
  - { offset: 0xBD678, size: 0x8, addend: 0x0, symName: __ZN4pyo35panic14PanicException7new_err17h6c0b182ed8bff68fE, symObjAddr: 0x5730, symBinAddr: 0x1B9DC, symSize: 0x28 }
  - { offset: 0xBD6B6, size: 0x8, addend: 0x0, symName: __ZN4pyo35panic14PanicException7new_err17he0df415adb1fb521E, symObjAddr: 0x5758, symBinAddr: 0x1BA04, symSize: 0x34 }
  - { offset: 0xBD6F6, size: 0x8, addend: 0x0, symName: __ZN4pyo35types6string8PyString3new17h3795d6a26bf69586E, symObjAddr: 0x65D4, symBinAddr: 0x1BA38, symSize: 0x68 }
  - { offset: 0xBD76B, size: 0x8, addend: 0x0, symName: __ZN4pyo35types6string8PyString6intern17h2c8bf047730dca1dE, symObjAddr: 0x663C, symBinAddr: 0x1BAA0, symSize: 0x8C }
  - { offset: 0xBD80A, size: 0x8, addend: 0x0, symName: __ZN4pyo36pycell5impl_10BorrowFlag9decrement17h55bd44b82dc55ae4E, symObjAddr: 0x684C, symBinAddr: 0x1BB2C, symSize: 0x30 }
  - { offset: 0xBD82C, size: 0x8, addend: 0x0, symName: __ZN4pyo36pycell5impl_10BorrowFlag9increment17h9986b465b7f1c879E, symObjAddr: 0x687C, symBinAddr: 0x1BB5C, symSize: 0xC8 }
  - { offset: 0xBD98D, size: 0x8, addend: 0x0, symName: '__ZN102_$LT$$RF$mut$u20$alloc..vec..Vec$LT$T$C$A$GT$$u20$as$u20$core..iter..traits..collect..IntoIterator$GT$9into_iter17hb1a3abf2e9a800b2E', symObjAddr: 0x0, symBinAddr: 0x1C320, symSize: 0x60 }
  - { offset: 0xBF30E, size: 0x8, addend: 0x0, symName: '__ZN53_$LT$T$u20$as$u20$core..slice..cmp..SliceContains$GT$14slice_contains28_$u7b$$u7b$closure$u7d$$u7d$17h6930d373b76acee6E', symObjAddr: 0x1628, symBinAddr: 0x1D06C, symSize: 0x38 }
  - { offset: 0xBF35E, size: 0x8, addend: 0x0, symName: '__ZN73_$LT$$u5b$A$u5d$$u20$as$u20$core..slice..cmp..SlicePartialEq$LT$B$GT$$GT$5equal17h29df4cbe2c042662E', symObjAddr: 0x3C54, symBinAddr: 0x1ED9C, symSize: 0x88 }
  - { offset: 0xBF3E4, size: 0x8, addend: 0x0, symName: '__ZN73_$LT$$u5b$A$u5d$$u20$as$u20$core..slice..cmp..SlicePartialEq$LT$B$GT$$GT$5equal17h6b0a3c76c6403e10E', symObjAddr: 0x3CDC, symBinAddr: 0x1EE24, symSize: 0x88 }
  - { offset: 0xC028B, size: 0x8, addend: 0x0, symName: __ZN4core4iter6traits8iterator8Iterator3map17h6e102e50965f3b0aE, symObjAddr: 0x10C0, symBinAddr: 0x1CF6C, symSize: 0x50 }
  - { offset: 0xC0781, size: 0x8, addend: 0x0, symName: __ZN4core3mem4drop17h20688709599f4fbcE, symObjAddr: 0xECC, symBinAddr: 0x1CDD8, symSize: 0x2C }
  - { offset: 0xC07B4, size: 0x8, addend: 0x0, symName: __ZN4core3mem4drop17h7658aa5f9ed184a3E, symObjAddr: 0xEF8, symBinAddr: 0x1CE04, symSize: 0x2C }
  - { offset: 0xC07E7, size: 0x8, addend: 0x0, symName: __ZN4core3mem4drop17hccc57a084cf7029bE, symObjAddr: 0xF24, symBinAddr: 0x1CE30, symSize: 0x2C }
  - { offset: 0xC084D, size: 0x8, addend: 0x0, symName: __ZN4core3mem4take17h870030edb964faacE, symObjAddr: 0xF50, symBinAddr: 0x1CE5C, symSize: 0x54 }
  - { offset: 0xC08DD, size: 0x8, addend: 0x0, symName: __ZN4core3mem4take17hbc2b2ef5a0a9d035E, symObjAddr: 0xFA4, symBinAddr: 0x1CEB0, symSize: 0x54 }
  - { offset: 0xC096D, size: 0x8, addend: 0x0, symName: __ZN4core3mem4take17heef3092ec8673055E, symObjAddr: 0xFF8, symBinAddr: 0x1CF04, symSize: 0x54 }
  - { offset: 0xC09CA, size: 0x8, addend: 0x0, symName: __ZN4core3mem6forget17h95cbdb4261d3e783E, symObjAddr: 0x1060, symBinAddr: 0x1CF58, symSize: 0x14 }
  - { offset: 0xC25C5, size: 0x8, addend: 0x0, symName: '__ZN102_$LT$$RF$mut$u20$alloc..vec..Vec$LT$T$C$A$GT$$u20$as$u20$core..iter..traits..collect..IntoIterator$GT$9into_iter17hb1a3abf2e9a800b2E', symObjAddr: 0x0, symBinAddr: 0x1C320, symSize: 0x60 }
  - { offset: 0xC29E4, size: 0x8, addend: 0x0, symName: '__ZN107_$LT$alloc..vec..Vec$LT$T$C$A$GT$..retain_mut..PanicGuard$LT$T$C$A$GT$$u20$as$u20$core..ops..drop..Drop$GT$4drop17h2442797360dd5e7dE', symObjAddr: 0x148, symBinAddr: 0xB9FA4, symSize: 0x180 }
  - { offset: 0xC2C50, size: 0x8, addend: 0x0, symName: '__ZN5alloc3vec16Vec$LT$T$C$A$GT$6retain28_$u7b$$u7b$closure$u7d$$u7d$17hf719548861a236deE', symObjAddr: 0x2EC4, symBinAddr: 0x1E220, symSize: 0x30 }
  - { offset: 0xC2CB1, size: 0x8, addend: 0x0, symName: '__ZN5alloc3vec16Vec$LT$T$C$A$GT$7set_len18precondition_check17h41201b81072b8f4eE', symObjAddr: 0x30EC, symBinAddr: 0x1E3A0, symSize: 0x60 }
  - { offset: 0xC2F4F, size: 0x8, addend: 0x0, symName: '__ZN111_$LT$alloc..vec..Vec$LT$T$GT$$u20$as$u20$alloc..vec..spec_from_iter_nested..SpecFromIterNested$LT$T$C$I$GT$$GT$9from_iter17h1fb29649df2b93ecE', symObjAddr: 0x2C8, symBinAddr: 0x1C3D0, symSize: 0x24C }
  - { offset: 0xC31AE, size: 0x8, addend: 0x0, symName: '__ZN111_$LT$alloc..vec..Vec$LT$T$GT$$u20$as$u20$alloc..vec..spec_from_iter_nested..SpecFromIterNested$LT$T$C$I$GT$$GT$9from_iter17h8039d1781b0a0cc3E', symObjAddr: 0x644, symBinAddr: 0x1C61C, symSize: 0x244 }
  - { offset: 0xC340C, size: 0x8, addend: 0x0, symName: '__ZN111_$LT$alloc..vec..Vec$LT$T$GT$$u20$as$u20$alloc..vec..spec_from_iter_nested..SpecFromIterNested$LT$T$C$I$GT$$GT$9from_iter17hec618afc8545df0cE', symObjAddr: 0x888, symBinAddr: 0x1C860, symSize: 0x24C }
  - { offset: 0xC38D6, size: 0x8, addend: 0x0, symName: '__ZN97_$LT$alloc..vec..Vec$LT$T$C$A$GT$$u20$as$u20$alloc..vec..spec_extend..SpecExtend$LT$T$C$I$GT$$GT$11spec_extend17ha16c392b819b2109E', symObjAddr: 0x43B4, symBinAddr: 0x1F0A0, symSize: 0x24 }
  - { offset: 0xC3928, size: 0x8, addend: 0x0, symName: '__ZN97_$LT$alloc..vec..Vec$LT$T$C$A$GT$$u20$as$u20$alloc..vec..spec_extend..SpecExtend$LT$T$C$I$GT$$GT$11spec_extend17hba9ed195ae1b080bE', symObjAddr: 0x43D8, symBinAddr: 0x1F0C4, symSize: 0x24 }
  - { offset: 0xC397A, size: 0x8, addend: 0x0, symName: '__ZN97_$LT$alloc..vec..Vec$LT$T$C$A$GT$$u20$as$u20$alloc..vec..spec_extend..SpecExtend$LT$T$C$I$GT$$GT$11spec_extend17hd22b83bdec7ed744E', symObjAddr: 0x43FC, symBinAddr: 0x1F0E8, symSize: 0x24 }
  - { offset: 0xC4247, size: 0x8, addend: 0x0, symName: '__ZN72_$LT$alloc..vec..Vec$LT$T$C$A$GT$$u20$as$u20$core..ops..deref..Deref$GT$5deref17h16ded52ad0ff6654E', symObjAddr: 0x3BF4, symBinAddr: 0x1ED5C, symSize: 0x20 }
  - { offset: 0xC4304, size: 0x8, addend: 0x0, symName: '__ZN72_$LT$alloc..vec..Vec$LT$T$C$A$GT$$u20$as$u20$core..ops..deref..Deref$GT$5deref17h493b570a6bd49010E', symObjAddr: 0x3C14, symBinAddr: 0x1ED7C, symSize: 0x20 }
  - { offset: 0xC43C7, size: 0x8, addend: 0x0, symName: '__ZN67_$LT$alloc..vec..Vec$LT$T$GT$$u20$as$u20$core..default..Default$GT$7default17ha65f099370afdc14E', symObjAddr: 0x3A28, symBinAddr: 0x1EBD8, symSize: 0x14 }
  - { offset: 0xC43E9, size: 0x8, addend: 0x0, symName: '__ZN67_$LT$alloc..vec..Vec$LT$T$GT$$u20$as$u20$core..default..Default$GT$7default17ha65f099370afdc14E', symObjAddr: 0x3A28, symBinAddr: 0x1EBD8, symSize: 0x14 }
  - { offset: 0xC4404, size: 0x8, addend: 0x0, symName: '__ZN67_$LT$alloc..vec..Vec$LT$T$GT$$u20$as$u20$core..default..Default$GT$7default17ha98d58a3388755c0E', symObjAddr: 0x3A3C, symBinAddr: 0x1EBEC, symSize: 0x14 }
  - { offset: 0xC4426, size: 0x8, addend: 0x0, symName: '__ZN67_$LT$alloc..vec..Vec$LT$T$GT$$u20$as$u20$core..default..Default$GT$7default17ha98d58a3388755c0E', symObjAddr: 0x3A3C, symBinAddr: 0x1EBEC, symSize: 0x14 }
  - { offset: 0xC4441, size: 0x8, addend: 0x0, symName: '__ZN67_$LT$alloc..vec..Vec$LT$T$GT$$u20$as$u20$core..default..Default$GT$7default17hd62ec421d6b43c2cE', symObjAddr: 0x3A50, symBinAddr: 0x1EC00, symSize: 0x14 }
  - { offset: 0xC4463, size: 0x8, addend: 0x0, symName: '__ZN67_$LT$alloc..vec..Vec$LT$T$GT$$u20$as$u20$core..default..Default$GT$7default17hd62ec421d6b43c2cE', symObjAddr: 0x3A50, symBinAddr: 0x1EC00, symSize: 0x14 }
  - { offset: 0xC4484, size: 0x8, addend: 0x0, symName: '__ZN70_$LT$alloc..vec..Vec$LT$T$C$A$GT$$u20$as$u20$core..ops..drop..Drop$GT$4drop17h19a3186c2d2b2cadE', symObjAddr: 0x3A88, symBinAddr: 0x1EC14, symSize: 0x24 }
  - { offset: 0xC4534, size: 0x8, addend: 0x0, symName: '__ZN70_$LT$alloc..vec..Vec$LT$T$C$A$GT$$u20$as$u20$core..ops..drop..Drop$GT$4drop17h1e9f34c82894ba77E', symObjAddr: 0x3AAC, symBinAddr: 0x1EC38, symSize: 0x24 }
  - { offset: 0xC45E4, size: 0x8, addend: 0x0, symName: '__ZN70_$LT$alloc..vec..Vec$LT$T$C$A$GT$$u20$as$u20$core..ops..drop..Drop$GT$4drop17h21902f6e7ab544d5E', symObjAddr: 0x3AD0, symBinAddr: 0x1EC5C, symSize: 0x38 }
  - { offset: 0xC4694, size: 0x8, addend: 0x0, symName: '__ZN70_$LT$alloc..vec..Vec$LT$T$C$A$GT$$u20$as$u20$core..ops..drop..Drop$GT$4drop17h2aa861a767d51097E', symObjAddr: 0x3B08, symBinAddr: 0x1EC94, symSize: 0x24 }
  - { offset: 0xC4744, size: 0x8, addend: 0x0, symName: '__ZN70_$LT$alloc..vec..Vec$LT$T$C$A$GT$$u20$as$u20$core..ops..drop..Drop$GT$4drop17h8056be7f73b9c431E', symObjAddr: 0x3B2C, symBinAddr: 0x1ECB8, symSize: 0x24 }
  - { offset: 0xC47F4, size: 0x8, addend: 0x0, symName: '__ZN70_$LT$alloc..vec..Vec$LT$T$C$A$GT$$u20$as$u20$core..ops..drop..Drop$GT$4drop17ha6fa7c558eaaeec0E', symObjAddr: 0x3B50, symBinAddr: 0x1ECDC, symSize: 0x24 }
  - { offset: 0xC48A4, size: 0x8, addend: 0x0, symName: '__ZN70_$LT$alloc..vec..Vec$LT$T$C$A$GT$$u20$as$u20$core..ops..drop..Drop$GT$4drop17he203a92e04f01962E', symObjAddr: 0x3B74, symBinAddr: 0x1ED00, symSize: 0x38 }
  - { offset: 0xC4954, size: 0x8, addend: 0x0, symName: '__ZN70_$LT$alloc..vec..Vec$LT$T$C$A$GT$$u20$as$u20$core..ops..drop..Drop$GT$4drop17hf53870f428c0857bE', symObjAddr: 0x3BAC, symBinAddr: 0x1ED38, symSize: 0x24 }
  - { offset: 0xC4A0A, size: 0x8, addend: 0x0, symName: '__ZN90_$LT$alloc..vec..Vec$LT$T$C$A$GT$$u20$as$u20$core..iter..traits..collect..IntoIterator$GT$9into_iter17ha28921b9848205aeE', symObjAddr: 0x4190, symBinAddr: 0x1EEAC, symSize: 0xA8 }
  - { offset: 0xC4C01, size: 0x8, addend: 0x0, symName: '__ZN90_$LT$alloc..vec..Vec$LT$T$C$A$GT$$u20$as$u20$core..iter..traits..collect..IntoIterator$GT$9into_iter17ha991aaa1ca1d1f95E', symObjAddr: 0x4238, symBinAddr: 0x1EF54, symSize: 0xB0 }
  - { offset: 0xC4DFE, size: 0x8, addend: 0x0, symName: '__ZN95_$LT$alloc..vec..Vec$LT$T$GT$$u20$as$u20$core..iter..traits..collect..FromIterator$LT$T$GT$$GT$9from_iter17h21ea6adbb122f24fE', symObjAddr: 0x42E8, symBinAddr: 0x1F004, symSize: 0x34 }
  - { offset: 0xC4E3F, size: 0x8, addend: 0x0, symName: '__ZN95_$LT$alloc..vec..Vec$LT$T$GT$$u20$as$u20$core..iter..traits..collect..FromIterator$LT$T$GT$$GT$9from_iter17h8a79b5c578ad51d9E', symObjAddr: 0x434C, symBinAddr: 0x1F038, symSize: 0x34 }
  - { offset: 0xC4E80, size: 0x8, addend: 0x0, symName: '__ZN95_$LT$alloc..vec..Vec$LT$T$GT$$u20$as$u20$core..iter..traits..collect..FromIterator$LT$T$GT$$GT$9from_iter17hb6da7d76062db5b5E', symObjAddr: 0x4380, symBinAddr: 0x1F06C, symSize: 0x34 }
  - { offset: 0xC4ECC, size: 0x8, addend: 0x0, symName: '__ZN98_$LT$alloc..vec..Vec$LT$T$GT$$u20$as$u20$alloc..vec..spec_from_iter..SpecFromIter$LT$T$C$I$GT$$GT$9from_iter17h1d11bfee788677a5E', symObjAddr: 0x444C, symBinAddr: 0x1F10C, symSize: 0x14 }
  - { offset: 0xC4F0B, size: 0x8, addend: 0x0, symName: '__ZN98_$LT$alloc..vec..Vec$LT$T$GT$$u20$as$u20$alloc..vec..spec_from_iter..SpecFromIter$LT$T$C$I$GT$$GT$9from_iter17ha72b206d23541ae9E', symObjAddr: 0x4460, symBinAddr: 0x1F120, symSize: 0x14 }
  - { offset: 0xC4F4A, size: 0x8, addend: 0x0, symName: '__ZN98_$LT$alloc..vec..Vec$LT$T$GT$$u20$as$u20$alloc..vec..spec_from_iter..SpecFromIter$LT$T$C$I$GT$$GT$9from_iter17hba7d4886f9723e4bE', symObjAddr: 0x4474, symBinAddr: 0x1F134, symSize: 0x14 }
  - { offset: 0xC53CB, size: 0x8, addend: 0x0, symName: '__ZN5alloc6string104_$LT$impl$u20$core..convert..From$LT$alloc..string..String$GT$$u20$for$u20$alloc..vec..Vec$LT$u8$GT$$GT$4from17h29349aa0d40d72a1E', symObjAddr: 0x39D4, symBinAddr: 0x1EBC0, symSize: 0x18 }
  - { offset: 0xC561D, size: 0x8, addend: 0x0, symName: '__ZN105_$LT$std..collections..hash..map..Iter$LT$K$C$V$GT$$u20$as$u20$core..iter..traits..iterator..Iterator$GT$4next17hd59dcd6e5424cad0E', symObjAddr: 0xF8, symBinAddr: 0x1C380, symSize: 0x24 }
  - { offset: 0xC565D, size: 0x8, addend: 0x0, symName: '__ZN105_$LT$std..collections..hash..map..Iter$LT$K$C$V$GT$$u20$as$u20$core..iter..traits..iterator..Iterator$GT$9size_hint17h86359857f2cb0d94E', symObjAddr: 0x11C, symBinAddr: 0x1C3A4, symSize: 0x2C }
  - { offset: 0xC66A4, size: 0x8, addend: 0x0, symName: '__ZN4pyo311conversions3std6string68_$LT$impl$u20$pyo3..conversion..FromPyObject$u20$for$u20$$RF$str$GT$7extract17h305c3baa357b44f0E', symObjAddr: 0x1514, symBinAddr: 0x1CFBC, symSize: 0x88 }
  - { offset: 0xC66F3, size: 0x8, addend: 0x0, symName: '__ZN4pyo311conversions3std6string68_$LT$impl$u20$pyo3..conversion..IntoPyObject$u20$for$u20$$RF$str$GT$13into_pyobject17hc3a4268cfea6f480E', symObjAddr: 0x159C, symBinAddr: 0x1D044, symSize: 0x28 }
  - { offset: 0xC7629, size: 0x8, addend: 0x0, symName: '__ZN3std11collections4hash3map18Entry$LT$K$C$V$GT$10or_default17h2d65f906adee5487E', symObjAddr: 0xB84, symBinAddr: 0x1CAAC, symSize: 0x1AC }
  - { offset: 0xC7888, size: 0x8, addend: 0x0, symName: '__ZN3std11collections4hash3map20HashMap$LT$K$C$V$GT$3new17hc75e8d50af05f4a4E', symObjAddr: 0xD30, symBinAddr: 0x1CC58, symSize: 0x7C }
  - { offset: 0xC79A2, size: 0x8, addend: 0x0, symName: '__ZN3std11collections4hash3map28HashMap$LT$K$C$V$C$S$C$A$GT$3len17heaf49b86b0feefc5E', symObjAddr: 0xDAC, symBinAddr: 0x1CCD4, symSize: 0x18 }
  - { offset: 0xC7A4C, size: 0x8, addend: 0x0, symName: '__ZN3std11collections4hash3map28HashMap$LT$K$C$V$C$S$C$A$GT$4iter17hfda266d2a11279d5E', symObjAddr: 0xDC4, symBinAddr: 0x1CCEC, symSize: 0x44 }
  - { offset: 0xC7AA0, size: 0x8, addend: 0x0, symName: '__ZN3std11collections4hash3map28HashMap$LT$K$C$V$C$S$C$A$GT$5entry17h7af1e2e629dc10d2E', symObjAddr: 0xE08, symBinAddr: 0x1CD30, symSize: 0xA8 }
  - { offset: 0xC7C04, size: 0x8, addend: 0x0, symName: '__ZN5alloc3vec12Vec$LT$T$GT$13with_capacity17h3073909feba1f9f5E', symObjAddr: 0x16A0, symBinAddr: 0x1D0A4, symSize: 0x44 }
  - { offset: 0xC7C7C, size: 0x8, addend: 0x0, symName: '__ZN5alloc3vec12Vec$LT$T$GT$3new17h5a2e3e37bfd91e99E', symObjAddr: 0x16E4, symBinAddr: 0x1D0E8, symSize: 0x14 }
  - { offset: 0xC7C99, size: 0x8, addend: 0x0, symName: '__ZN5alloc3vec12Vec$LT$T$GT$3new17h95d647ace8ff49f0E', symObjAddr: 0x16F8, symBinAddr: 0x1D0FC, symSize: 0x14 }
  - { offset: 0xC7CB6, size: 0x8, addend: 0x0, symName: '__ZN5alloc3vec12Vec$LT$T$GT$3new17hb0f7ffe029737125E', symObjAddr: 0x170C, symBinAddr: 0x1D110, symSize: 0x14 }
  - { offset: 0xC7CF1, size: 0x8, addend: 0x0, symName: '__ZN5alloc3vec12Vec$LT$T$GT$3new17he6ca57f696ab405cE', symObjAddr: 0x1720, symBinAddr: 0x1D124, symSize: 0x14 }
  - { offset: 0xC7D0E, size: 0x8, addend: 0x0, symName: '__ZN5alloc3vec12Vec$LT$T$GT$3new17he94ce7b3fb62ff66E', symObjAddr: 0x1734, symBinAddr: 0x1D138, symSize: 0x14 }
  - { offset: 0xC7D76, size: 0x8, addend: 0x0, symName: '__ZN5alloc3vec16Vec$LT$T$C$A$GT$10as_mut_ptr17hf500734d41474e13E', symObjAddr: 0x1748, symBinAddr: 0x1D14C, symSize: 0x18 }
  - { offset: 0xC7FDF, size: 0x8, addend: 0x0, symName: '__ZN5alloc3vec16Vec$LT$T$C$A$GT$10retain_mut17he62800c5fee5778fE', symObjAddr: 0x1760, symBinAddr: 0x1D164, symSize: 0x31C }
  - { offset: 0xC8540, size: 0x8, addend: 0x0, symName: '__ZN5alloc3vec16Vec$LT$T$C$A$GT$15append_elements17h16bdd9eb152eabe7E', symObjAddr: 0x1DB8, symBinAddr: 0x1D480, symSize: 0xD4 }
  - { offset: 0xC8861, size: 0x8, addend: 0x0, symName: '__ZN5alloc3vec16Vec$LT$T$C$A$GT$16extend_desugared17h206609347cc6453bE', symObjAddr: 0x1E8C, symBinAddr: 0x1D554, symSize: 0x1C4 }
  - { offset: 0xC8C4B, size: 0x8, addend: 0x0, symName: '__ZN5alloc3vec16Vec$LT$T$C$A$GT$16extend_desugared17h9ce400ee35de3555E', symObjAddr: 0x2050, symBinAddr: 0x1D718, symSize: 0x1C4 }
  - { offset: 0xC901B, size: 0x8, addend: 0x0, symName: '__ZN5alloc3vec16Vec$LT$T$C$A$GT$16extend_desugared17hb5886f160d21393bE', symObjAddr: 0x2214, symBinAddr: 0x1D8DC, symSize: 0x1C8 }
  - { offset: 0xC969D, size: 0x8, addend: 0x0, symName: '__ZN5alloc3vec16Vec$LT$T$C$A$GT$16into_boxed_slice17hc549cdeae4fd6627E', symObjAddr: 0x25C8, symBinAddr: 0x1DAA4, symSize: 0x1EC }
  - { offset: 0xC9E2D, size: 0x8, addend: 0x0, symName: '__ZN5alloc3vec16Vec$LT$T$C$A$GT$16into_boxed_slice17heaf5bc46e3961a77E', symObjAddr: 0x27B4, symBinAddr: 0x1DC90, symSize: 0x1EC }
  - { offset: 0xCA5E4, size: 0x8, addend: 0x0, symName: '__ZN5alloc3vec16Vec$LT$T$C$A$GT$16into_boxed_slice17hffc07b10d8cef42cE', symObjAddr: 0x29A0, symBinAddr: 0x1DE7C, symSize: 0x1EC }
  - { offset: 0xCA9C5, size: 0x8, addend: 0x0, symName: '__ZN5alloc3vec16Vec$LT$T$C$A$GT$4push17h0181d90e115d3ba8E', symObjAddr: 0x2BEC, symBinAddr: 0x1E068, symSize: 0x2C }
  - { offset: 0xCAA09, size: 0x8, addend: 0x0, symName: '__ZN5alloc3vec16Vec$LT$T$C$A$GT$4push17h4adb8c5292fc6565E', symObjAddr: 0x2C18, symBinAddr: 0x1E094, symSize: 0x24 }
  - { offset: 0xCAA4E, size: 0x8, addend: 0x0, symName: '__ZN5alloc3vec16Vec$LT$T$C$A$GT$4push17h5f1c3dde05d762aeE', symObjAddr: 0x2C3C, symBinAddr: 0x1E0B8, symSize: 0x24 }
  - { offset: 0xCAA93, size: 0x8, addend: 0x0, symName: '__ZN5alloc3vec16Vec$LT$T$C$A$GT$4push17h79bf2fdc79dd221eE', symObjAddr: 0x2C60, symBinAddr: 0x1E0DC, symSize: 0x24 }
  - { offset: 0xCAAD8, size: 0x8, addend: 0x0, symName: '__ZN5alloc3vec16Vec$LT$T$C$A$GT$4push17h8cbe8623d3c1636dE', symObjAddr: 0x2C84, symBinAddr: 0x1E100, symSize: 0x30 }
  - { offset: 0xCAB1C, size: 0x8, addend: 0x0, symName: '__ZN5alloc3vec16Vec$LT$T$C$A$GT$4push17hd570355075a2f08bE', symObjAddr: 0x2CDC, symBinAddr: 0x1E130, symSize: 0x28 }
  - { offset: 0xCAB6D, size: 0x8, addend: 0x0, symName: '__ZN5alloc3vec16Vec$LT$T$C$A$GT$4push17hef367ce3bdc2fa10E', symObjAddr: 0x2D04, symBinAddr: 0x1E158, symSize: 0x24 }
  - { offset: 0xCABB2, size: 0x8, addend: 0x0, symName: '__ZN5alloc3vec16Vec$LT$T$C$A$GT$4push17hf901409ccb01dcd9E', symObjAddr: 0x2D28, symBinAddr: 0x1E17C, symSize: 0x30 }
  - { offset: 0xCAC8B, size: 0x8, addend: 0x0, symName: '__ZN5alloc3vec16Vec$LT$T$C$A$GT$5clear17hb32145e36f3f0a51E', symObjAddr: 0x2D58, symBinAddr: 0x1E1AC, symSize: 0x28 }
  - { offset: 0xCAD5B, size: 0x8, addend: 0x0, symName: '__ZN5alloc3vec16Vec$LT$T$C$A$GT$6retain17hea884c780b1cbf53E', symObjAddr: 0x2E78, symBinAddr: 0x1E1D4, symSize: 0x4C }
  - { offset: 0xCAECB, size: 0x8, addend: 0x0, symName: '__ZN5alloc3vec16Vec$LT$T$C$A$GT$7reserve17h436c77db83894c45E', symObjAddr: 0x2F9C, symBinAddr: 0x1E250, symSize: 0xA8 }
  - { offset: 0xCB122, size: 0x8, addend: 0x0, symName: '__ZN5alloc3vec16Vec$LT$T$C$A$GT$7reserve17hf46ceac4c591f7acE', symObjAddr: 0x3044, symBinAddr: 0x1E2F8, symSize: 0xA8 }
  - { offset: 0xCB295, size: 0x8, addend: 0x0, symName: '__ZN5alloc3vec16Vec$LT$T$C$A$GT$8is_empty17h349834f8a4214dafE', symObjAddr: 0x314C, symBinAddr: 0x1E400, symSize: 0x20 }
  - { offset: 0xCB31A, size: 0x8, addend: 0x0, symName: '__ZN5alloc3vec16Vec$LT$T$C$A$GT$8is_empty17h3bf80b9631de5727E', symObjAddr: 0x316C, symBinAddr: 0x1E420, symSize: 0x20 }
  - { offset: 0xCB392, size: 0x8, addend: 0x0, symName: '__ZN5alloc3vec16Vec$LT$T$C$A$GT$8is_empty17h4dd7b5b7ed3bc5b8E', symObjAddr: 0x318C, symBinAddr: 0x1E440, symSize: 0x20 }
  - { offset: 0xCB40A, size: 0x8, addend: 0x0, symName: '__ZN5alloc3vec16Vec$LT$T$C$A$GT$8is_empty17h9d6363165c891b67E', symObjAddr: 0x31AC, symBinAddr: 0x1E460, symSize: 0x20 }
  - { offset: 0xCB482, size: 0x8, addend: 0x0, symName: '__ZN5alloc3vec16Vec$LT$T$C$A$GT$8is_empty17hc9dd92c4c02a8815E', symObjAddr: 0x31CC, symBinAddr: 0x1E480, symSize: 0x20 }
  - { offset: 0xCB5C2, size: 0x8, addend: 0x0, symName: '__ZN5alloc3vec16Vec$LT$T$C$A$GT$8push_mut17h01a95c5166cd23b5E', symObjAddr: 0x31EC, symBinAddr: 0x1E4A0, symSize: 0xDC }
  - { offset: 0xCB827, size: 0x8, addend: 0x0, symName: '__ZN5alloc3vec16Vec$LT$T$C$A$GT$8push_mut17h067abc9a46acc814E', symObjAddr: 0x32C8, symBinAddr: 0x1E57C, symSize: 0xCC }
  - { offset: 0xCBABD, size: 0x8, addend: 0x0, symName: '__ZN5alloc3vec16Vec$LT$T$C$A$GT$8push_mut17h182687afed376e71E', symObjAddr: 0x3394, symBinAddr: 0x1E648, symSize: 0xF4 }
  - { offset: 0xCBD2F, size: 0x8, addend: 0x0, symName: '__ZN5alloc3vec16Vec$LT$T$C$A$GT$8push_mut17h3d5be46d127c3857E', symObjAddr: 0x3550, symBinAddr: 0x1E73C, symSize: 0xE0 }
  - { offset: 0xCBFC6, size: 0x8, addend: 0x0, symName: '__ZN5alloc3vec16Vec$LT$T$C$A$GT$8push_mut17h4d363b8a9a0b769dE', symObjAddr: 0x3630, symBinAddr: 0x1E81C, symSize: 0xD0 }
  - { offset: 0xCC235, size: 0x8, addend: 0x0, symName: '__ZN5alloc3vec16Vec$LT$T$C$A$GT$8push_mut17h687135becc7342b1E', symObjAddr: 0x3700, symBinAddr: 0x1E8EC, symSize: 0xF8 }
  - { offset: 0xCC4A5, size: 0x8, addend: 0x0, symName: '__ZN5alloc3vec16Vec$LT$T$C$A$GT$8push_mut17hd34bbf081ff9cd91E', symObjAddr: 0x37F8, symBinAddr: 0x1E9E4, symSize: 0xF8 }
  - { offset: 0xCC73C, size: 0x8, addend: 0x0, symName: '__ZN5alloc3vec16Vec$LT$T$C$A$GT$8push_mut17he25aa0a7c073ae78E', symObjAddr: 0x38F0, symBinAddr: 0x1EADC, symSize: 0xE4 }
  - { offset: 0xCD5F3, size: 0x8, addend: 0x0, symName: '__ZN84_$LT$std..sys..sync..once_box..OnceBox$LT$T$GT$$u20$as$u20$core..ops..drop..Drop$GT$4drop17h9122a5c1c76fddf5E', symObjAddr: 0x4EA8, symBinAddr: 0x21170, symSize: 0x74 }
  - { offset: 0xCD724, size: 0x8, addend: 0x0, symName: '__ZN66_$LT$std..thread..id..ThreadId$u20$as$u20$core..cmp..PartialEq$GT$2eq17h29b13854c5e519e9E', symObjAddr: 0x4B78, symBinAddr: 0x20F34, symSize: 0x2C }
  - { offset: 0xCD981, size: 0x8, addend: 0x0, symName: '__ZN78_$LT$std..io..error..repr_bitpacked..Repr$u20$as$u20$core..ops..drop..Drop$GT$4drop28_$u7b$$u7b$closure$u7d$$u7d$17he49a18a8bf43eb2fE', symObjAddr: 0x4E6C, symBinAddr: 0x21134, symSize: 0x3C }
  - { offset: 0xCDA36, size: 0x8, addend: 0x0, symName: '__ZN78_$LT$std..io..error..repr_bitpacked..Repr$u20$as$u20$core..ops..drop..Drop$GT$4drop17h6b9f6a17c7dfd06bE', symObjAddr: 0x4E34, symBinAddr: 0x210FC, symSize: 0x38 }
  - { offset: 0xCDA5F, size: 0x8, addend: 0x0, symName: __ZN3std2io5error14repr_bitpacked11decode_repr17h6a50b685e90797f4E, symObjAddr: 0x1DC, symBinAddr: 0x1F148, symSize: 0x1DC }
  - { offset: 0xCDCA4, size: 0x8, addend: 0x0, symName: __ZN3std2io5error14repr_bitpacked14kind_from_prim17h2c1dbd051c453abfE, symObjAddr: 0x594, symBinAddr: 0x1F324, symSize: 0x4B0 }
  - { offset: 0xCF6CF, size: 0x8, addend: 0x0, symName: '__ZN4core3num23_$LT$impl$u20$usize$GT$13unchecked_add18precondition_check17h4418573c06d8f016E', symObjAddr: 0x1C14, symBinAddr: 0x1F8B8, symSize: 0x64 }
  - { offset: 0xCF778, size: 0x8, addend: 0x0, symName: '__ZN4core3num23_$LT$impl$u20$usize$GT$13unchecked_mul18precondition_check17hd40cd5fc7ae5c53aE', symObjAddr: 0x1C78, symBinAddr: 0x1F91C, symSize: 0x60 }
  - { offset: 0xD0172, size: 0x8, addend: 0x0, symName: __ZN4core3ptr10swap_chunk17h25a752441fe31addE, symObjAddr: 0x1D0C, symBinAddr: 0x1F97C, symSize: 0x3C }
  - { offset: 0xD01AB, size: 0x8, addend: 0x0, symName: __ZN4core3ptr10swap_chunk17h367e379c3f1f3d5bE, symObjAddr: 0x1D48, symBinAddr: 0x1F9B8, symSize: 0x3C }
  - { offset: 0xD01E4, size: 0x8, addend: 0x0, symName: __ZN4core3ptr10swap_chunk17h6765923bb3c07313E, symObjAddr: 0x1D84, symBinAddr: 0x1F9F4, symSize: 0x3C }
  - { offset: 0xD021D, size: 0x8, addend: 0x0, symName: __ZN4core3ptr10swap_chunk17hb47d422a054369bdE, symObjAddr: 0x1DC0, symBinAddr: 0x1FA30, symSize: 0x3C }
  - { offset: 0xD025B, size: 0x8, addend: 0x0, symName: __ZN4core3ptr11write_bytes18precondition_check17he62b4088d3966b0dE, symObjAddr: 0x1DFC, symBinAddr: 0x1FA6C, symSize: 0x9C }
  - { offset: 0xD03CD, size: 0x8, addend: 0x0, symName: '__ZN4core3ptr9const_ptr33_$LT$impl$u20$$BP$const$u20$T$GT$20offset_from_unsigned18precondition_check17h5b5ebcde30f85942E', symObjAddr: 0x27F4, symBinAddr: 0x20204, symSize: 0x60 }
  - { offset: 0xD04B6, size: 0x8, addend: 0x0, symName: '__ZN4core3ptr9const_ptr33_$LT$impl$u20$$BP$const$u20$T$GT$6offset18precondition_check17h5eddbefbceec3436E', symObjAddr: 0x2854, symBinAddr: 0x20264, symSize: 0xC4 }
  - { offset: 0xD06AF, size: 0x8, addend: 0x0, symName: '__ZN4core3ptr9const_ptr33_$LT$impl$u20$$BP$const$u20$T$GT$7is_null17h700539da03325c1fE', symObjAddr: 0x2918, symBinAddr: 0x20328, symSize: 0x18 }
  - { offset: 0xD075D, size: 0x8, addend: 0x0, symName: __ZN4core3ptr14read_unaligned17h3ce364e31738a67eE, symObjAddr: 0x1E98, symBinAddr: 0x1FB08, symSize: 0x9C }
  - { offset: 0xD08A8, size: 0x8, addend: 0x0, symName: __ZN4core3ptr15write_unaligned17hac53f3544b616c6eE, symObjAddr: 0x1F34, symBinAddr: 0x1FBA4, symSize: 0x78 }
  - { offset: 0xD0933, size: 0x8, addend: 0x0, symName: __ZN4core3ptr19copy_nonoverlapping18precondition_check17h69465879e7ee785aE, symObjAddr: 0x1FAC, symBinAddr: 0x1FC1C, symSize: 0x168 }
  - { offset: 0xD0AE8, size: 0x8, addend: 0x0, symName: __ZN4core3ptr25swap_nonoverlapping_bytes17h57ad2fbd2150f0feE, symObjAddr: 0x2358, symBinAddr: 0x1FD84, symSize: 0xD8 }
  - { offset: 0xD0C91, size: 0x8, addend: 0x0, symName: __ZN4core3ptr25swap_nonoverlapping_bytes25swap_nonoverlapping_short17h12f43816fbcbb68eE, symObjAddr: 0x2430, symBinAddr: 0x1FE5C, symSize: 0x11C }
  - { offset: 0xD0E1D, size: 0x8, addend: 0x0, symName: __ZN4core3ptr25swap_nonoverlapping_bytes26swap_nonoverlapping_chunks17h90dfd88f9602fe1fE, symObjAddr: 0x254C, symBinAddr: 0x1FF78, symSize: 0xC0 }
  - { offset: 0xD0FA0, size: 0x8, addend: 0x0, symName: __ZN4core3ptr4copy18precondition_check17h850a0f7864fbe113E, symObjAddr: 0x260C, symBinAddr: 0x20038, symSize: 0x130 }
  - { offset: 0xD10EC, size: 0x8, addend: 0x0, symName: __ZN4core3ptr7replace18precondition_check17h4c88818f61aea7d0E, symObjAddr: 0x2758, symBinAddr: 0x20168, symSize: 0x9C }
  - { offset: 0xD1D40, size: 0x8, addend: 0x0, symName: __ZN4core3cmp9PartialEq2ne17hbc6fc0b5ebcdbb92E, symObjAddr: 0x15B0, symBinAddr: 0x1F888, symSize: 0x30 }
  - { offset: 0xD1DE8, size: 0x8, addend: 0x0, symName: '__ZN4core5slice29_$LT$impl$u20$$u5b$T$u5d$$GT$8contains17h4531cda733cbfad7E', symObjAddr: 0x29C0, symBinAddr: 0x20398, symSize: 0x48 }
  - { offset: 0xD1E82, size: 0x8, addend: 0x0, symName: __ZN4core5slice3raw14from_raw_parts17h3c2efd0ca1e1fafcE, symObjAddr: 0x2A08, symBinAddr: 0x203E0, symSize: 0x58 }
  - { offset: 0xD1ECA, size: 0x8, addend: 0x0, symName: __ZN4core5slice3raw14from_raw_parts18precondition_check17h99e48603b40c5bd9E, symObjAddr: 0x2C18, symBinAddr: 0x20438, symSize: 0x10C }
  - { offset: 0xD2046, size: 0x8, addend: 0x0, symName: '__ZN53_$LT$T$u20$as$u20$core..slice..cmp..SliceContains$GT$14slice_contains17hee31a855ba24c43cE', symObjAddr: 0x3D20, symBinAddr: 0x20544, symSize: 0x78 }
  - { offset: 0xD3590, size: 0x8, addend: 0x0, symName: '__ZN87_$LT$T$u20$as$u20$alloc..slice..$LT$impl$u20$$u5b$T$u5d$$GT$..to_vec_in..ConvertVec$GT$6to_vec17hb61e1c7ea924dfe0E', symObjAddr: 0x4F1C, symBinAddr: 0x211E4, symSize: 0xF4 }
  - { offset: 0xD3DD0, size: 0x8, addend: 0x0, symName: '__ZN77_$LT$alloc..raw_vec..RawVec$LT$T$C$A$GT$$u20$as$u20$core..ops..drop..Drop$GT$4drop17h1e2f0d625f9f45b4E', symObjAddr: 0x4C34, symBinAddr: 0x20F60, symSize: 0x34 }
  - { offset: 0xD3E0C, size: 0x8, addend: 0x0, symName: '__ZN77_$LT$alloc..raw_vec..RawVec$LT$T$C$A$GT$$u20$as$u20$core..ops..drop..Drop$GT$4drop17h23df143c24bb4bc5E', symObjAddr: 0x4C68, symBinAddr: 0x20F94, symSize: 0x34 }
  - { offset: 0xD3E48, size: 0x8, addend: 0x0, symName: '__ZN77_$LT$alloc..raw_vec..RawVec$LT$T$C$A$GT$$u20$as$u20$core..ops..drop..Drop$GT$4drop17h4db53bba7e72caf5E', symObjAddr: 0x4C9C, symBinAddr: 0x20FC8, symSize: 0x30 }
  - { offset: 0xD3E84, size: 0x8, addend: 0x0, symName: '__ZN77_$LT$alloc..raw_vec..RawVec$LT$T$C$A$GT$$u20$as$u20$core..ops..drop..Drop$GT$4drop17h53d42e4cb985e112E', symObjAddr: 0x4CCC, symBinAddr: 0x20FF8, symSize: 0x34 }
  - { offset: 0xD3EC0, size: 0x8, addend: 0x0, symName: '__ZN77_$LT$alloc..raw_vec..RawVec$LT$T$C$A$GT$$u20$as$u20$core..ops..drop..Drop$GT$4drop17h58c0945169bc627aE', symObjAddr: 0x4D00, symBinAddr: 0x2102C, symSize: 0x34 }
  - { offset: 0xD3EFC, size: 0x8, addend: 0x0, symName: '__ZN77_$LT$alloc..raw_vec..RawVec$LT$T$C$A$GT$$u20$as$u20$core..ops..drop..Drop$GT$4drop17h9e975d7d43b2fae5E', symObjAddr: 0x4D34, symBinAddr: 0x21060, symSize: 0x34 }
  - { offset: 0xD3F38, size: 0x8, addend: 0x0, symName: '__ZN77_$LT$alloc..raw_vec..RawVec$LT$T$C$A$GT$$u20$as$u20$core..ops..drop..Drop$GT$4drop17hb2fb837a259e0c7eE', symObjAddr: 0x4D68, symBinAddr: 0x21094, symSize: 0x34 }
  - { offset: 0xD3F74, size: 0x8, addend: 0x0, symName: '__ZN77_$LT$alloc..raw_vec..RawVec$LT$T$C$A$GT$$u20$as$u20$core..ops..drop..Drop$GT$4drop17hf4251d8ebabf5d55E', symObjAddr: 0x4DCC, symBinAddr: 0x210C8, symSize: 0x34 }
  - { offset: 0xD4369, size: 0x8, addend: 0x0, symName: '__ZN3std3sys4sync8once_box16OnceBox$LT$T$GT$10initialize17hf409fe4f32202640E', symObjAddr: 0xA94, symBinAddr: 0xBA124, symSize: 0xD8 }
  - { offset: 0xD4540, size: 0x8, addend: 0x0, symName: '__ZN3std3sys4sync8once_box16OnceBox$LT$T$GT$11get_or_init17h38ff756e2e9d97a5E', symObjAddr: 0xB6C, symBinAddr: 0x1F7D4, symSize: 0xB4 }
  - { offset: 0xD4767, size: 0x8, addend: 0x0, symName: '__ZN4core4cell13Cell$LT$T$GT$3get17hb59fbaead9fb75b3E', symObjAddr: 0x2948, symBinAddr: 0x20340, symSize: 0x18 }
  - { offset: 0xD47BB, size: 0x8, addend: 0x0, symName: '__ZN4core4cell13Cell$LT$T$GT$3set17h5329eddd6816b458E', symObjAddr: 0x2960, symBinAddr: 0x20358, symSize: 0x1C }
  - { offset: 0xD4831, size: 0x8, addend: 0x0, symName: '__ZN4core4cell13Cell$LT$T$GT$7replace17h11a6d396e8fc9dddE', symObjAddr: 0x297C, symBinAddr: 0x20374, symSize: 0x24 }
  - { offset: 0xD49FC, size: 0x8, addend: 0x0, symName: '__ZN5alloc7raw_vec19RawVec$LT$T$C$A$GT$8grow_one17h49ed5f0c8e1424f4E', symObjAddr: 0x3E94, symBinAddr: 0x205BC, symSize: 0x88 }
  - { offset: 0xD4AAC, size: 0x8, addend: 0x0, symName: '__ZN5alloc7raw_vec19RawVec$LT$T$C$A$GT$8grow_one17h51fcf2ea255d1e78E', symObjAddr: 0x3F1C, symBinAddr: 0x20644, symSize: 0x88 }
  - { offset: 0xD4B5C, size: 0x8, addend: 0x0, symName: '__ZN5alloc7raw_vec19RawVec$LT$T$C$A$GT$8grow_one17h542b26e28492203dE', symObjAddr: 0x3FA4, symBinAddr: 0x206CC, symSize: 0x88 }
  - { offset: 0xD4C0C, size: 0x8, addend: 0x0, symName: '__ZN5alloc7raw_vec19RawVec$LT$T$C$A$GT$8grow_one17h63360bab97abba07E', symObjAddr: 0x402C, symBinAddr: 0x20754, symSize: 0x88 }
  - { offset: 0xD4CDA, size: 0x8, addend: 0x0, symName: '__ZN5alloc7raw_vec19RawVec$LT$T$C$A$GT$8grow_one17h74e0270d690986dbE', symObjAddr: 0x40B4, symBinAddr: 0x207DC, symSize: 0x88 }
  - { offset: 0xD4DF3, size: 0x8, addend: 0x0, symName: '__ZN5alloc7raw_vec19RawVec$LT$T$C$A$GT$8grow_one17ha56af130ccd3e64dE', symObjAddr: 0x413C, symBinAddr: 0x20864, symSize: 0x88 }
  - { offset: 0xD4EA3, size: 0x8, addend: 0x0, symName: '__ZN5alloc7raw_vec19RawVec$LT$T$C$A$GT$8grow_one17hc54d96df42272beeE', symObjAddr: 0x41C4, symBinAddr: 0x208EC, symSize: 0x84 }
  - { offset: 0xD4F53, size: 0x8, addend: 0x0, symName: '__ZN5alloc7raw_vec19RawVec$LT$T$C$A$GT$8grow_one17hec903027ee553132E', symObjAddr: 0x4248, symBinAddr: 0x20970, symSize: 0x84 }
  - { offset: 0xD504F, size: 0x8, addend: 0x0, symName: '__ZN5alloc7raw_vec20RawVecInner$LT$A$GT$14current_memory17h7906266cf64dbcedE', symObjAddr: 0x4448, symBinAddr: 0x209F4, symSize: 0x10C }
  - { offset: 0xD529B, size: 0x8, addend: 0x0, symName: '__ZN5alloc7raw_vec20RawVecInner$LT$A$GT$16shrink_unchecked17h29c3e1932d08c94cE', symObjAddr: 0x4554, symBinAddr: 0x20B00, symSize: 0x28C }
  - { offset: 0xD5609, size: 0x8, addend: 0x0, symName: '__ZN5alloc7raw_vec20RawVecInner$LT$A$GT$16with_capacity_in17hb80a73ddd2933d1cE', symObjAddr: 0x47E0, symBinAddr: 0x20D8C, symSize: 0xF0 }
  - { offset: 0xD578D, size: 0x8, addend: 0x0, symName: '__ZN5alloc7raw_vec20RawVecInner$LT$A$GT$6shrink17hb70b8655b9c6552cE', symObjAddr: 0x48D0, symBinAddr: 0x20E7C, symSize: 0xB8 }
  - { offset: 0xD5B50, size: 0x8, addend: 0x0, symName: '__ZN152_$LT$core..result..Result$LT$pyo3..instance..Bound$LT$pyo3..types..any..PyAny$GT$$C$pyo3..err..PyErr$GT$$u20$as$u20$pyo3..py_result_ext..PyResultExt$GT$19cast_into_unchecked28_$u7b$$u7b$closure$u7d$$u7d$17h00e62073a2dc0bf8E', symObjAddr: 0x0, symBinAddr: 0x212D8, symSize: 0x24 }
  - { offset: 0xD5F1D, size: 0x8, addend: 0x0, symName: '__ZN152_$LT$core..result..Result$LT$pyo3..instance..Bound$LT$pyo3..types..any..PyAny$GT$$C$pyo3..err..PyErr$GT$$u20$as$u20$pyo3..py_result_ext..PyResultExt$GT$19cast_into_unchecked28_$u7b$$u7b$closure$u7d$$u7d$17h00e62073a2dc0bf8E', symObjAddr: 0x0, symBinAddr: 0x212D8, symSize: 0x24 }
  - { offset: 0xD5F5C, size: 0x8, addend: 0x0, symName: '__ZN152_$LT$core..result..Result$LT$pyo3..instance..Bound$LT$pyo3..types..any..PyAny$GT$$C$pyo3..err..PyErr$GT$$u20$as$u20$pyo3..py_result_ext..PyResultExt$GT$19cast_into_unchecked28_$u7b$$u7b$closure$u7d$$u7d$17h2543e4e841fa5601E', symObjAddr: 0x6C, symBinAddr: 0x212FC, symSize: 0x24 }
  - { offset: 0xD5F9B, size: 0x8, addend: 0x0, symName: '__ZN152_$LT$core..result..Result$LT$pyo3..instance..Bound$LT$pyo3..types..any..PyAny$GT$$C$pyo3..err..PyErr$GT$$u20$as$u20$pyo3..py_result_ext..PyResultExt$GT$19cast_into_unchecked28_$u7b$$u7b$closure$u7d$$u7d$17h2e715f37aa7f3f64E', symObjAddr: 0xD8, symBinAddr: 0x21320, symSize: 0x24 }
  - { offset: 0xD5FDA, size: 0x8, addend: 0x0, symName: '__ZN152_$LT$core..result..Result$LT$pyo3..instance..Bound$LT$pyo3..types..any..PyAny$GT$$C$pyo3..err..PyErr$GT$$u20$as$u20$pyo3..py_result_ext..PyResultExt$GT$19cast_into_unchecked28_$u7b$$u7b$closure$u7d$$u7d$17h45bac8a34f454b3eE', symObjAddr: 0x120, symBinAddr: 0x21344, symSize: 0x24 }
  - { offset: 0xD64B4, size: 0x8, addend: 0x0, symName: '__ZN4pyo34sync9once_lock19PyOnceLock$LT$T$GT$11get_or_init28_$u7b$$u7b$closure$u7d$$u7d$17h8692d0c1680065f7E', symObjAddr: 0x1ED8, symBinAddr: 0x21804, symSize: 0x28 }
  - { offset: 0xD6513, size: 0x8, addend: 0x0, symName: '__ZN4pyo34sync9once_lock19PyOnceLock$LT$T$GT$11get_or_init28_$u7b$$u7b$closure$u7d$$u7d$17hbda1c46749e86004E', symObjAddr: 0x1F00, symBinAddr: 0x2182C, symSize: 0x38 }
  - { offset: 0xD65A9, size: 0x8, addend: 0x0, symName: __ZN4pyo34sync9once_lock26init_once_cell_py_attached17h5d165939128c0f6fE, symObjAddr: 0x23C8, symBinAddr: 0xBA1FC, symSize: 0xAC }
  - { offset: 0xD662B, size: 0x8, addend: 0x0, symName: __ZN4pyo34sync9once_lock26init_once_cell_py_attached17hc7c134619a245559E, symObjAddr: 0x2474, symBinAddr: 0xBA2A8, symSize: 0xB4 }
  - { offset: 0xD66B3, size: 0x8, addend: 0x0, symName: '__ZN4pyo34sync9once_lock26init_once_cell_py_attached28_$u7b$$u7b$closure$u7d$$u7d$17h0e8a4d2055689910E', symObjAddr: 0x2528, symBinAddr: 0x21864, symSize: 0x90 }
  - { offset: 0xD6703, size: 0x8, addend: 0x0, symName: '__ZN4pyo34sync9once_lock26init_once_cell_py_attached28_$u7b$$u7b$closure$u7d$$u7d$17h9cf0c44419841481E', symObjAddr: 0x25B8, symBinAddr: 0x218F4, symSize: 0x80 }
  - { offset: 0xD8AE1, size: 0x8, addend: 0x0, symName: '__ZN4core3ptr7mut_ptr31_$LT$impl$u20$$BP$mut$u20$T$GT$6offset18precondition_check17h9f72573cadbb8bbbE', symObjAddr: 0x47C, symBinAddr: 0x213B0, symSize: 0xC4 }
  - { offset: 0xD93C3, size: 0x8, addend: 0x0, symName: '__ZN185_$LT$core..ops..control_flow..ControlFlow$LT$B$C$C$GT$$u20$as$u20$core..ops..try_trait..FromResidual$LT$core..ops..control_flow..ControlFlow$LT$B$C$core..convert..Infallible$GT$$GT$$GT$13from_residual17he65731ec139c6105E', symObjAddr: 0x434, symBinAddr: 0x21368, symSize: 0x18 }
  - { offset: 0xD9407, size: 0x8, addend: 0x0, symName: '__ZN95_$LT$core..ops..control_flow..ControlFlow$LT$B$C$C$GT$$u20$as$u20$core..ops..try_trait..Try$GT$11from_output17h72ecf23d415d791cE', symObjAddr: 0x54A0, symBinAddr: 0x228FC, symSize: 0x10 }
  - { offset: 0xD9445, size: 0x8, addend: 0x0, symName: '__ZN95_$LT$core..ops..control_flow..ControlFlow$LT$B$C$C$GT$$u20$as$u20$core..ops..try_trait..Try$GT$6branch17h2b3a11b0480ba2c4E', symObjAddr: 0x54C4, symBinAddr: 0x2290C, symSize: 0x54 }
  - { offset: 0xD963B, size: 0x8, addend: 0x0, symName: '__ZN44_$LT$$RF$T$u20$as$u20$core..fmt..Display$GT$3fmt17h7ed4f22dd63ebe31E', symObjAddr: 0x44C, symBinAddr: 0x21380, symSize: 0x30 }
  - { offset: 0xD973A, size: 0x8, addend: 0x0, symName: '__ZN4core3str21_$LT$impl$u20$str$GT$3len17hb0889cf25ecd7a35E', symObjAddr: 0x8D8, symBinAddr: 0x21474, symSize: 0x1C }
  - { offset: 0xD977C, size: 0x8, addend: 0x0, symName: '__ZN50_$LT$T$u20$as$u20$core..convert..Into$LT$U$GT$$GT$4into17hb9cd8c4ceca4cedeE', symObjAddr: 0x344C, symBinAddr: 0x21974, symSize: 0x14 }
  - { offset: 0xD98AC, size: 0x8, addend: 0x0, symName: '__ZN91_$LT$core..slice..iter..Iter$LT$T$GT$$u20$as$u20$core..iter..traits..iterator..Iterator$GT$24__iterator_get_unchecked17h226bda51e7292d58E', symObjAddr: 0x44E8, symBinAddr: 0x22230, symSize: 0x20 }
  - { offset: 0xD9907, size: 0x8, addend: 0x0, symName: '__ZN91_$LT$core..slice..iter..Iter$LT$T$GT$$u20$as$u20$core..iter..traits..iterator..Iterator$GT$24__iterator_get_unchecked17h8d3b7dc738a337beE', symObjAddr: 0x4530, symBinAddr: 0x22250, symSize: 0x28 }
  - { offset: 0xD99B1, size: 0x8, addend: 0x0, symName: '__ZN91_$LT$core..slice..iter..Iter$LT$T$GT$$u20$as$u20$core..iter..traits..iterator..Iterator$GT$3any17hefad4197142e97a0E', symObjAddr: 0x4558, symBinAddr: 0x22278, symSize: 0xE4 }
  - { offset: 0xD9A8C, size: 0x8, addend: 0x0, symName: '__ZN91_$LT$core..slice..iter..Iter$LT$T$GT$$u20$as$u20$core..iter..traits..iterator..Iterator$GT$4next17h00c3f993a25525f4E', symObjAddr: 0x49CC, symBinAddr: 0x2235C, symSize: 0x84 }
  - { offset: 0xD9B42, size: 0x8, addend: 0x0, symName: '__ZN91_$LT$core..slice..iter..Iter$LT$T$GT$$u20$as$u20$core..iter..traits..iterator..Iterator$GT$4next17h5888cc6fdc656ec1E', symObjAddr: 0x4C60, symBinAddr: 0x223E0, symSize: 0x84 }
  - { offset: 0xD9BF8, size: 0x8, addend: 0x0, symName: '__ZN91_$LT$core..slice..iter..Iter$LT$T$GT$$u20$as$u20$core..iter..traits..iterator..Iterator$GT$4next17hc800c83eaa50159bE', symObjAddr: 0x4D68, symBinAddr: 0x22464, symSize: 0x84 }
  - { offset: 0xD9CAE, size: 0x8, addend: 0x0, symName: '__ZN91_$LT$core..slice..iter..Iter$LT$T$GT$$u20$as$u20$core..iter..traits..iterator..Iterator$GT$4next17hfee4393573bc2a0fE', symObjAddr: 0x4E70, symBinAddr: 0x224E8, symSize: 0x84 }
  - { offset: 0xD9D64, size: 0x8, addend: 0x0, symName: '__ZN91_$LT$core..slice..iter..Iter$LT$T$GT$$u20$as$u20$core..iter..traits..iterator..Iterator$GT$9size_hint17h644228ea8a01d209E', symObjAddr: 0x4FA8, symBinAddr: 0x2256C, symSize: 0xB4 }
  - { offset: 0xD9E91, size: 0x8, addend: 0x0, symName: '__ZN91_$LT$core..slice..iter..Iter$LT$T$GT$$u20$as$u20$core..iter..traits..iterator..Iterator$GT$9size_hint17h6eca1d379e464547E', symObjAddr: 0x5110, symBinAddr: 0x22620, symSize: 0xB4 }
  - { offset: 0xD9FBE, size: 0x8, addend: 0x0, symName: '__ZN91_$LT$core..slice..iter..Iter$LT$T$GT$$u20$as$u20$core..iter..traits..iterator..Iterator$GT$9size_hint17hd04ca106b64bc04eE', symObjAddr: 0x51C4, symBinAddr: 0x226D4, symSize: 0xB4 }
  - { offset: 0xDA127, size: 0x8, addend: 0x0, symName: '__ZN94_$LT$core..slice..iter..IterMut$LT$T$GT$$u20$as$u20$core..iter..traits..iterator..Iterator$GT$4next17h3e3d745bb2285e3fE', symObjAddr: 0x541C, symBinAddr: 0x22878, symSize: 0x84 }
  - { offset: 0xDA2BB, size: 0x8, addend: 0x0, symName: __ZN4core4iter6traits8iterator8Iterator3zip17haba93db19cae9f0cE, symObjAddr: 0xD34, symBinAddr: 0x21490, symSize: 0xC8 }
  - { offset: 0xDA331, size: 0x8, addend: 0x0, symName: __ZN4core4iter6traits8iterator8Iterator4take17h746f20cb80fd3383E, symObjAddr: 0xDFC, symBinAddr: 0x21558, symSize: 0x2C }
  - { offset: 0xDA38C, size: 0x8, addend: 0x0, symName: __ZN4core4iter6traits8iterator8Iterator9enumerate17h508bdead8c0c20d3E, symObjAddr: 0x10D0, symBinAddr: 0x21584, symSize: 0x28 }
  - { offset: 0xDA461, size: 0x8, addend: 0x0, symName: __ZN4core4iter8adapters3zip27TrustedRandomAccessNoCoerce4size17h19afb09833e26cc1E, symObjAddr: 0x1150, symBinAddr: 0x215AC, symSize: 0x2C }
  - { offset: 0xDA498, size: 0x8, addend: 0x0, symName: __ZN4core4iter8adapters3zip27TrustedRandomAccessNoCoerce4size17h43a33c0e343ef15dE, symObjAddr: 0x117C, symBinAddr: 0x215D8, symSize: 0x2C }
  - { offset: 0xDB78F, size: 0x8, addend: 0x0, symName: __ZN8pyo3_ffi13unicodeobject15PyUnicode_Check17h04ba4e0530ffe076E, symObjAddr: 0x42EC, symBinAddr: 0x2209C, symSize: 0x30 }
  - { offset: 0xDB7C1, size: 0x8, addend: 0x0, symName: __ZN8pyo3_ffi7objimpl12PyType_IS_GC17h66825ed7302557b9E, symObjAddr: 0x4364, symBinAddr: 0x220CC, symSize: 0x2C }
  - { offset: 0xDBEB9, size: 0x8, addend: 0x0, symName: '__ZN4core5slice4iter13Iter$LT$T$GT$3new17h8c458f0c9c4eb761E', symObjAddr: 0x11F8, symBinAddr: 0x21604, symSize: 0x58 }
  - { offset: 0xDC069, size: 0x8, addend: 0x0, symName: '__ZN4core5slice4iter13Iter$LT$T$GT$3new17hf8cf405d3c85e786E', symObjAddr: 0x12A0, symBinAddr: 0x2165C, symSize: 0x50 }
  - { offset: 0xDC2E4, size: 0x8, addend: 0x0, symName: '__ZN5alloc5boxed12Box$LT$T$GT$8into_raw17h077b795eee46e0cfE', symObjAddr: 0x3474, symBinAddr: 0x21988, symSize: 0x18 }
  - { offset: 0xDC31B, size: 0x8, addend: 0x0, symName: '__ZN5alloc5boxed12Box$LT$T$GT$8into_raw17ha4e0d3ac347a3310E', symObjAddr: 0x348C, symBinAddr: 0x219A0, symSize: 0x18 }
  - { offset: 0xDC352, size: 0x8, addend: 0x0, symName: '__ZN5alloc5boxed12Box$LT$T$GT$8into_raw17ha89df0550e88e0ccE', symObjAddr: 0x34A4, symBinAddr: 0x219B8, symSize: 0x18 }
  - { offset: 0xDC38F, size: 0x8, addend: 0x0, symName: '__ZN72_$LT$alloc..boxed..Box$LT$T$C$A$GT$$u20$as$u20$core..ops..drop..Drop$GT$4drop17h0fa9f98438b698a7E', symObjAddr: 0x3AB8, symBinAddr: 0x21B6C, symSize: 0xB0 }
  - { offset: 0xDC4C8, size: 0x8, addend: 0x0, symName: '__ZN72_$LT$alloc..boxed..Box$LT$T$C$A$GT$$u20$as$u20$core..ops..drop..Drop$GT$4drop17h1cb9e84f30eeae99E', symObjAddr: 0x3B68, symBinAddr: 0x21C1C, symSize: 0xC4 }
  - { offset: 0xDC601, size: 0x8, addend: 0x0, symName: '__ZN72_$LT$alloc..boxed..Box$LT$T$C$A$GT$$u20$as$u20$core..ops..drop..Drop$GT$4drop17h1f960081d22d0d5eE', symObjAddr: 0x3C2C, symBinAddr: 0x21CE0, symSize: 0xB0 }
  - { offset: 0xDC73A, size: 0x8, addend: 0x0, symName: '__ZN72_$LT$alloc..boxed..Box$LT$T$C$A$GT$$u20$as$u20$core..ops..drop..Drop$GT$4drop17h66b08bf916655ef6E', symObjAddr: 0x3D8C, symBinAddr: 0x21D90, symSize: 0xC4 }
  - { offset: 0xDC873, size: 0x8, addend: 0x0, symName: '__ZN72_$LT$alloc..boxed..Box$LT$T$C$A$GT$$u20$as$u20$core..ops..drop..Drop$GT$4drop17h736079b4761020c7E', symObjAddr: 0x3E50, symBinAddr: 0x21E54, symSize: 0xBC }
  - { offset: 0xDC9AC, size: 0x8, addend: 0x0, symName: '__ZN72_$LT$alloc..boxed..Box$LT$T$C$A$GT$$u20$as$u20$core..ops..drop..Drop$GT$4drop17h74d0a234cdf051e7E', symObjAddr: 0x3F0C, symBinAddr: 0x21F10, symSize: 0xB0 }
  - { offset: 0xDCAE5, size: 0x8, addend: 0x0, symName: '__ZN72_$LT$alloc..boxed..Box$LT$T$C$A$GT$$u20$as$u20$core..ops..drop..Drop$GT$4drop17hbebfaed6ddc39966E', symObjAddr: 0x41E0, symBinAddr: 0x21FC0, symSize: 0xC4 }
  - { offset: 0xDCC6E, size: 0x8, addend: 0x0, symName: '__ZN80_$LT$alloc..boxed..Box$LT$T$C$A$GT$$u20$as$u20$core..convert..AsRef$LT$T$GT$$GT$6as_ref17hfc23c698d39c1fbdE', symObjAddr: 0x42D4, symBinAddr: 0x22084, symSize: 0x18 }
  - { offset: 0xDCCB4, size: 0x8, addend: 0x0, symName: '__ZN90_$LT$alloc..boxed..Box$LT$F$C$A$GT$$u20$as$u20$core..ops..function..FnOnce$LT$Args$GT$$GT$9call_once17hf798823aa4a41d73E', symObjAddr: 0x4390, symBinAddr: 0x220F8, symSize: 0x138 }
  - { offset: 0xDCEC7, size: 0x8, addend: 0x0, symName: __ZN5alloc6borrow3Cow8Borrowed17h3662d69077ec1875E, symObjAddr: 0x37DC, symBinAddr: 0x21A44, symSize: 0x2C }
  - { offset: 0xDCEFF, size: 0x8, addend: 0x0, symName: '__ZN71_$LT$alloc..borrow..Cow$LT$B$GT$$u20$as$u20$core..ops..deref..Deref$GT$5deref17h40768793603e6d16E', symObjAddr: 0x39D0, symBinAddr: 0x21AF4, symSize: 0x78 }
  - { offset: 0xDCF5A, size: 0x8, addend: 0x0, symName: '__ZN66_$LT$alloc..borrow..Cow$LT$B$GT$$u20$as$u20$core..fmt..Display$GT$3fmt17h72f430b6c611a89dE', symObjAddr: 0x3910, symBinAddr: 0x21A70, symSize: 0x84 }
  - { offset: 0xDD20F, size: 0x8, addend: 0x0, symName: '__ZN4pyo34sync9once_lock19PyOnceLock$LT$T$GT$11get_or_init17h5809535c652a34e3E', symObjAddr: 0x1D80, symBinAddr: 0x216AC, symSize: 0xB0 }
  - { offset: 0xDD285, size: 0x8, addend: 0x0, symName: '__ZN4pyo34sync9once_lock19PyOnceLock$LT$T$GT$11get_or_init17h9fe677fb8963691dE', symObjAddr: 0x1E30, symBinAddr: 0x2175C, symSize: 0xA8 }
  - { offset: 0xDD321, size: 0x8, addend: 0x0, symName: '__ZN5alloc6borrow12Cow$LT$B$GT$10into_owned17h2403fdb4491c8234E', symObjAddr: 0x3738, symBinAddr: 0x219D0, symSize: 0x74 }
  - { offset: 0xDDEE5, size: 0x8, addend: 0x0, symName: '__ZN92_$LT$hashbrown..map..Iter$LT$K$C$V$GT$$u20$as$u20$core..iter..traits..iterator..Iterator$GT$4next17h1357969ef47045a3E', symObjAddr: 0x532C, symBinAddr: 0x22788, symSize: 0xF0 }
  - { offset: 0xDE170, size: 0x8, addend: 0x0, symName: '__ZN9hashbrown3map11make_hasher28_$u7b$$u7b$closure$u7d$$u7d$17h270f1fcff5d3af61E', symObjAddr: 0x5678, symBinAddr: 0x22A88, symSize: 0x3C }
  - { offset: 0xDE491, size: 0x8, addend: 0x0, symName: '__ZN9hashbrown11rustc_entry62_$LT$impl$u20$hashbrown..map..HashMap$LT$K$C$V$C$S$C$A$GT$$GT$11rustc_entry17hb1782391ca5d7803E', symObjAddr: 0x5550, symBinAddr: 0x22960, symSize: 0x128 }
  - { offset: 0xDE6AE, size: 0x8, addend: 0x0, symName: '__ZN9hashbrown3map28HashMap$LT$K$C$V$C$S$C$A$GT$4iter17hce1b2b2223e47221E', symObjAddr: 0x56B4, symBinAddr: 0x22AC4, symSize: 0xA8 }
  - { offset: 0xDEB85, size: 0x8, addend: 0x0, symName: '__ZN103_$LT$pyo3..instance..Bound$LT$pyo3..types..any..PyAny$GT$$u20$as$u20$pyo3..types..any..PyAnyMethods$GT$7getattr5inner17h4117cffa3c31c692E', symObjAddr: 0xD50, symBinAddr: 0x22B6C, symSize: 0x6C }
  - { offset: 0xDEBC8, size: 0x8, addend: 0x0, symName: '__ZN103_$LT$pyo3..instance..Bound$LT$pyo3..types..any..PyAny$GT$$u20$as$u20$pyo3..types..any..PyAnyMethods$GT$7setattr5inner17h3a9c26063cbeaedeE', symObjAddr: 0xF24, symBinAddr: 0x22BD8, symSize: 0x7C }
  - { offset: 0xDEC1B, size: 0x8, addend: 0x0, symName: '__ZN73_$LT$pyo3..types..any..PyAny$u20$as$u20$pyo3..type_object..PyTypeInfo$GT$15type_object_raw17he8959aa5e8e1f8b5E', symObjAddr: 0x4D98, symBinAddr: 0x24408, symSize: 0x24 }
  - { offset: 0xDEC57, size: 0x8, addend: 0x0, symName: '__ZN73_$LT$pyo3..types..any..PyAny$u20$as$u20$pyo3..type_object..PyTypeInfo$GT$15type_object_raw28_$u7b$$u7b$closure$u7d$$u7d$17h9c04f3a6815e8db7E', symObjAddr: 0x4DBC, symBinAddr: 0x2442C, symSize: 0x18 }
  - { offset: 0xDECF9, size: 0x8, addend: 0x0, symName: '__ZN81_$LT$pyo3..types..typeobject..PyType$u20$as$u20$pyo3..type_object..PyTypeInfo$GT$10is_type_of17h953215207426392eE', symObjAddr: 0x4EF4, symBinAddr: 0x24444, symSize: 0x30 }
  - { offset: 0xDED25, size: 0x8, addend: 0x0, symName: '__ZN81_$LT$pyo3..types..typeobject..PyType$u20$as$u20$pyo3..type_object..PyTypeInfo$GT$15type_object_raw17h7dd8cc1a96587d4bE', symObjAddr: 0x4F24, symBinAddr: 0x24474, symSize: 0x24 }
  - { offset: 0xDED61, size: 0x8, addend: 0x0, symName: '__ZN81_$LT$pyo3..types..typeobject..PyType$u20$as$u20$pyo3..type_object..PyTypeInfo$GT$15type_object_raw28_$u7b$$u7b$closure$u7d$$u7d$17hc7f14dcb13cc771eE', symObjAddr: 0x4F48, symBinAddr: 0x24498, symSize: 0x18 }
  - { offset: 0xDF35C, size: 0x8, addend: 0x0, symName: '__ZN4pyo33err9err_state10PyErrState14lazy_arguments28_$u7b$$u7b$closure$u7d$$u7d$17h8095a32c88e2b2adE', symObjAddr: 0x2600, symBinAddr: 0x23AB4, symSize: 0x70 }
  - { offset: 0xDF3C2, size: 0x8, addend: 0x0, symName: '__ZN4pyo33err9err_state10PyErrState10normalized28_$u7b$$u7b$closure$u7d$$u7d$17h2f73c6ec35418a7bE', symObjAddr: 0x2450, symBinAddr: 0x23904, symSize: 0xC }
  - { offset: 0xDF3F3, size: 0x8, addend: 0x0, symName: '__ZN4pyo33err9err_state10PyErrState15make_normalized28_$u7b$$u7b$closure$u7d$$u7d$17he4a0f72af85b5fbbE', symObjAddr: 0x2940, symBinAddr: 0x23B24, symSize: 0x34 }
  - { offset: 0xDF422, size: 0x8, addend: 0x0, symName: '__ZN4pyo33err9err_state10PyErrState15make_normalized28_$u7b$$u7b$closure$u7d$$u7d$28_$u7b$$u7b$closure$u7d$$u7d$17h3b0862c94c907611E', symObjAddr: 0x2974, symBinAddr: 0x23B58, symSize: 0x360 }
  - { offset: 0xDF4D4, size: 0x8, addend: 0x0, symName: '__ZN4pyo33err9err_state10PyErrState15make_normalized28_$u7b$$u7b$closure$u7d$$u7d$28_$u7b$$u7b$closure$u7d$$u7d$28_$u7b$$u7b$closure$u7d$$u7d$17hdff259c9a3de6e49E', symObjAddr: 0x2CD4, symBinAddr: 0x23EB8, symSize: 0x38 }
  - { offset: 0xDF51F, size: 0x8, addend: 0x0, symName: __ZN4pyo33err9err_state10raise_lazy17h08d6a0423d078b24E, symObjAddr: 0x2DF4, symBinAddr: 0x23FD8, symSize: 0x130 }
  - { offset: 0xDF5B3, size: 0x8, addend: 0x0, symName: '__ZN4pyo33err9err_state20PyErrStateNormalized10ptraceback28_$u7b$$u7b$closure$u7d$$u7d$17hee7830b12f56683aE', symObjAddr: 0x3064, symBinAddr: 0x24248, symSize: 0x24 }
  - { offset: 0xDF5F6, size: 0x8, addend: 0x0, symName: '__ZN4pyo33err9err_state20PyErrStateNormalized4take28_$u7b$$u7b$closure$u7d$$u7d$17h4a500200da93292aE', symObjAddr: 0x30D8, symBinAddr: 0x242BC, symSize: 0x28 }
  - { offset: 0xDF984, size: 0x8, addend: 0x0, symName: __ZN4pyo311type_object10PyTypeInfo11type_object17hab31d948e38b3be2E, symObjAddr: 0x210C, symBinAddr: 0x2369C, symSize: 0x30 }
  - { offset: 0xDF9C4, size: 0x8, addend: 0x0, symName: __ZN4pyo311type_object10PyTypeInfo11type_object17heca51590687c3142E, symObjAddr: 0x216C, symBinAddr: 0x236CC, symSize: 0x30 }
  - { offset: 0xDFA0A, size: 0x8, addend: 0x0, symName: '__ZN52_$LT$T$u20$as$u20$pyo3..type_object..PyTypeCheck$GT$10type_check17hdae5398d7dd3e717E', symObjAddr: 0x4ADC, symBinAddr: 0x24344, symSize: 0x24 }
  - { offset: 0xDFA3F, size: 0x8, addend: 0x0, symName: '__ZN52_$LT$T$u20$as$u20$pyo3..type_object..PyTypeCheck$GT$16classinfo_object17he88e525a2333308cE', symObjAddr: 0x4B60, symBinAddr: 0x24368, symSize: 0x20 }
  - { offset: 0xDFA86, size: 0x8, addend: 0x0, symName: __ZN4pyo315internal_tricks8clear_eq17ha66ddf46dea16c88E, symObjAddr: 0x2248, symBinAddr: 0x236FC, symSize: 0x88 }
  - { offset: 0xE210E, size: 0x8, addend: 0x0, symName: '__ZN53_$LT$T$u20$as$u20$core..convert..TryInto$LT$U$GT$$GT$8try_into17h1ac2eff0155354acE', symObjAddr: 0x4BF0, symBinAddr: 0x24388, symSize: 0x20 }
  - { offset: 0xE214E, size: 0x8, addend: 0x0, symName: '__ZN53_$LT$T$u20$as$u20$core..convert..TryInto$LT$U$GT$$GT$8try_into17he572c108331c04d0E', symObjAddr: 0x4C30, symBinAddr: 0x243A8, symSize: 0x20 }
  - { offset: 0xE21A4, size: 0x8, addend: 0x0, symName: '__ZN110_$LT$core..iter..adapters..enumerate..Enumerate$LT$I$GT$$u20$as$u20$core..iter..traits..iterator..Iterator$GT$4next17h0e6e30ce559f14a2E', symObjAddr: 0x1240, symBinAddr: 0x22C54, symSize: 0xE0 }
  - { offset: 0xE228A, size: 0x8, addend: 0x0, symName: '__ZN110_$LT$core..iter..adapters..enumerate..Enumerate$LT$I$GT$$u20$as$u20$core..iter..traits..iterator..Iterator$GT$4next17hc45c16dca163e519E', symObjAddr: 0x140C, symBinAddr: 0x22D34, symSize: 0xEC }
  - { offset: 0xE2370, size: 0x8, addend: 0x0, symName: '__ZN110_$LT$core..iter..adapters..enumerate..Enumerate$LT$I$GT$$u20$as$u20$core..iter..traits..iterator..Iterator$GT$4next17he64847aaddbd4cf4E', symObjAddr: 0x14F8, symBinAddr: 0x22E20, symSize: 0xEC }
  - { offset: 0xE24E6, size: 0x8, addend: 0x0, symName: '__ZN63_$LT$I$u20$as$u20$core..iter..traits..collect..IntoIterator$GT$9into_iter17h04451fe23df457f4E', symObjAddr: 0x4CE8, symBinAddr: 0x243C8, symSize: 0x14 }
  - { offset: 0xE251D, size: 0x8, addend: 0x0, symName: '__ZN63_$LT$I$u20$as$u20$core..iter..traits..collect..IntoIterator$GT$9into_iter17h0c058787a77c7483E', symObjAddr: 0x4CFC, symBinAddr: 0x243DC, symSize: 0x18 }
  - { offset: 0xE2554, size: 0x8, addend: 0x0, symName: '__ZN63_$LT$I$u20$as$u20$core..iter..traits..collect..IntoIterator$GT$9into_iter17hf510046e9ad781c8E', symObjAddr: 0x4D44, symBinAddr: 0x243F4, symSize: 0x14 }
  - { offset: 0xE2599, size: 0x8, addend: 0x0, symName: __ZN4core3str8converts19from_utf8_unchecked17h974ab32e33434656E, symObjAddr: 0x1FEC, symBinAddr: 0x23684, symSize: 0x18 }
  - { offset: 0xE2E7A, size: 0x8, addend: 0x0, symName: __ZN8pyo3_ffi12moduleobject14PyModule_Check17h5a94baa032283878E, symObjAddr: 0x5014, symBinAddr: 0x244B0, symSize: 0x2C }
  - { offset: 0xE3525, size: 0x8, addend: 0x0, symName: '__ZN9once_cell3imp17OnceCell$LT$T$GT$10initialize28_$u7b$$u7b$closure$u7d$$u7d$17hce7187ef380a50c2E', symObjAddr: 0x6E88, symBinAddr: 0x24514, symSize: 0x1A8 }
  - { offset: 0xE35C3, size: 0x8, addend: 0x0, symName: '__ZN9once_cell3imp17OnceCell$LT$T$GT$10initialize28_$u7b$$u7b$closure$u7d$$u7d$17hd471169efea82843E', symObjAddr: 0x7278, symBinAddr: 0x246BC, symSize: 0x180 }
  - { offset: 0xE3AE1, size: 0x8, addend: 0x0, symName: '__ZN3std4sync9once_lock17OnceLock$LT$T$GT$11get_or_init28_$u7b$$u7b$closure$u7d$$u7d$17h202655fe885a5230E', symObjAddr: 0x1718, symBinAddr: 0x22FF0, symSize: 0x3C }
  - { offset: 0xE3B28, size: 0x8, addend: 0x0, symName: '__ZN3std4sync9once_lock17OnceLock$LT$T$GT$10initialize28_$u7b$$u7b$closure$u7d$$u7d$17ha8ab920c9755b466E', symObjAddr: 0x1634, symBinAddr: 0x22F0C, symSize: 0xB8 }
  - { offset: 0xE3C61, size: 0x8, addend: 0x0, symName: __ZN3std9panicking12catch_unwind7do_call17h41183ae1c578339eE, symObjAddr: 0x1938, symBinAddr: 0x23164, symSize: 0x98 }
  - { offset: 0xE3D5C, size: 0x8, addend: 0x0, symName: __ZN3std9panicking12catch_unwind7do_call17h838576ce85c1f999E, symObjAddr: 0x19D0, symBinAddr: 0x231FC, symSize: 0x98 }
  - { offset: 0xE3E57, size: 0x8, addend: 0x0, symName: __ZN3std9panicking12catch_unwind7do_call17he6af2481ff97910fE, symObjAddr: 0x1A68, symBinAddr: 0x23294, symSize: 0x94 }
  - { offset: 0xE3F52, size: 0x8, addend: 0x0, symName: __ZN3std9panicking12catch_unwind7do_call17hf13a394965cade25E, symObjAddr: 0x1AFC, symBinAddr: 0x23328, symSize: 0x98 }
  - { offset: 0xE404D, size: 0x8, addend: 0x0, symName: __ZN3std9panicking12catch_unwind7do_call17hfbb756e7bed1985cE, symObjAddr: 0x1B94, symBinAddr: 0x233C0, symSize: 0x94 }
  - { offset: 0xE4148, size: 0x8, addend: 0x0, symName: __ZN3std9panicking12catch_unwind8do_catch17h5409fe135f81cac1E, symObjAddr: 0x1C28, symBinAddr: 0x23454, symSize: 0x70 }
  - { offset: 0xE41DD, size: 0x8, addend: 0x0, symName: __ZN3std9panicking12catch_unwind8do_catch17h552924ea6a50fa8fE, symObjAddr: 0x1C98, symBinAddr: 0x234C4, symSize: 0x70 }
  - { offset: 0xE4272, size: 0x8, addend: 0x0, symName: __ZN3std9panicking12catch_unwind8do_catch17h6d3c3b92f9953546E, symObjAddr: 0x1D08, symBinAddr: 0x23534, symSize: 0x70 }
  - { offset: 0xE4307, size: 0x8, addend: 0x0, symName: __ZN3std9panicking12catch_unwind8do_catch17h884e90eed9bdf7fdE, symObjAddr: 0x1D78, symBinAddr: 0x235A4, symSize: 0x70 }
  - { offset: 0xE439C, size: 0x8, addend: 0x0, symName: __ZN3std9panicking12catch_unwind8do_catch17he056214bc96786c0E, symObjAddr: 0x1DE8, symBinAddr: 0x23614, symSize: 0x70 }
  - { offset: 0xE490B, size: 0x8, addend: 0x0, symName: '__ZN3std4sync9once_lock17OnceLock$LT$T$GT$10initialize17h397f73bd42b66ab9E', symObjAddr: 0x15E4, symBinAddr: 0xBA35C, symSize: 0x50 }
  - { offset: 0xE4A55, size: 0x8, addend: 0x0, symName: '__ZN3std4sync9once_lock17OnceLock$LT$T$GT$11get_or_init17h82a33c69e242b914E', symObjAddr: 0x16EC, symBinAddr: 0x22FC4, symSize: 0x2C }
  - { offset: 0xE4B7D, size: 0x8, addend: 0x0, symName: '__ZN3std4sync9once_lock17OnceLock$LT$T$GT$15get_or_try_init17hd50dd98bccc1d1eeE', symObjAddr: 0x1754, symBinAddr: 0x2302C, symSize: 0xD4 }
  - { offset: 0xE4E75, size: 0x8, addend: 0x0, symName: '__ZN3std4sync9once_lock17OnceLock$LT$T$GT$3get17h774e8ee5214d9bb7E', symObjAddr: 0x18D4, symBinAddr: 0x23100, symSize: 0x64 }
  - { offset: 0xE5228, size: 0x8, addend: 0x0, symName: __ZN4pyo33err9err_state10PyErrState10from_inner17h160b5e978e6fb467E, symObjAddr: 0x22D0, symBinAddr: 0x23784, symSize: 0xF0 }
  - { offset: 0xE5269, size: 0x8, addend: 0x0, symName: __ZN4pyo33err9err_state10PyErrState10normalized17h5fd25ccdf15e75e8E, symObjAddr: 0x23C0, symBinAddr: 0x23874, symSize: 0x90 }
  - { offset: 0xE52BA, size: 0x8, addend: 0x0, symName: __ZN4pyo33err9err_state10PyErrState13as_normalized17hcfacc8699e9a5e57E, symObjAddr: 0x245C, symBinAddr: 0x23910, symSize: 0x100 }
  - { offset: 0xE531F, size: 0x8, addend: 0x0, symName: __ZN4pyo33err9err_state10PyErrState14lazy_arguments17h39661ce8715a5c2fE, symObjAddr: 0x255C, symBinAddr: 0x23A10, symSize: 0xA4 }
  - { offset: 0xE53E3, size: 0x8, addend: 0x0, symName: __ZN4pyo33err9err_state10PyErrState15make_normalized17hc76079c8277fa018E, symObjAddr: 0x2670, symBinAddr: 0xBA3AC, symSize: 0x2D0 }
  - { offset: 0xE54A5, size: 0x8, addend: 0x0, symName: __ZN4pyo33err9err_state10PyErrState4lazy17hce6f05e81d3df7dcE, symObjAddr: 0x2D0C, symBinAddr: 0x23EF0, symSize: 0x3C }
  - { offset: 0xE54E3, size: 0x8, addend: 0x0, symName: __ZN4pyo33err9err_state10PyErrState7restore17hfa4878dc9a397f13E, symObjAddr: 0x2D48, symBinAddr: 0x23F2C, symSize: 0xAC }
  - { offset: 0xE553C, size: 0x8, addend: 0x0, symName: __ZN4pyo33err9err_state15PyErrStateInner7restore17h119ed508944f3078E, symObjAddr: 0x2F24, symBinAddr: 0x24108, symSize: 0x84 }
  - { offset: 0xE55B7, size: 0x8, addend: 0x0, symName: __ZN4pyo33err9err_state15PyErrStateInner9normalize17he4867b09916c5751E, symObjAddr: 0x2FA8, symBinAddr: 0x2418C, symSize: 0x8C }
  - { offset: 0xE5632, size: 0x8, addend: 0x0, symName: __ZN4pyo33err9err_state20PyErrStateNormalized10ptraceback17ha9e78a29a6822debE, symObjAddr: 0x3034, symBinAddr: 0x24218, symSize: 0x30 }
  - { offset: 0xE566D, size: 0x8, addend: 0x0, symName: __ZN4pyo33err9err_state20PyErrStateNormalized3new17h8ec1a1ae9851f3d7E, symObjAddr: 0x3088, symBinAddr: 0x2426C, symSize: 0x2C }
  - { offset: 0xE568F, size: 0x8, addend: 0x0, symName: __ZN4pyo33err9err_state20PyErrStateNormalized4take17h353c837f836f3183E, symObjAddr: 0x30B4, symBinAddr: 0x24298, symSize: 0x24 }
  - { offset: 0xE56BC, size: 0x8, addend: 0x0, symName: __ZN4pyo33err9err_state20PyErrStateNormalized5ptype17h38fff853c33c4c3eE, symObjAddr: 0x3100, symBinAddr: 0x242E4, symSize: 0x2C }
  - { offset: 0xE56F7, size: 0x8, addend: 0x0, symName: __ZN4pyo35types10typeobject6PyType22from_borrowed_type_ptr17hb6b80edf8c854bcbE, symObjAddr: 0x341C, symBinAddr: 0x24310, symSize: 0x34 }
  - { offset: 0xE575A, size: 0x8, addend: 0x0, symName: '__ZN9hashbrown11rustc_entry62_$LT$impl$u20$hashbrown..map..HashMap$LT$K$C$V$C$S$C$A$GT$$GT$11rustc_entry28_$u7b$$u7b$closure$u7d$$u7d$17hc75eee23e5d24dbfE', symObjAddr: 0x5FA8, symBinAddr: 0x244DC, symSize: 0x38 }
  - { offset: 0xE57F5, size: 0x8, addend: 0x0, symName: '__ZN9once_cell3imp17OnceCell$LT$T$GT$10initialize17h73e59594bef2d828E', symObjAddr: 0x6188, symBinAddr: 0xBA67C, symSize: 0xA8 }
  - { offset: 0xE58DB, size: 0x8, addend: 0x0, symName: '__ZN9once_cell3imp17OnceCell$LT$T$GT$10initialize17ha56c73ae249ea702E', symObjAddr: 0x6230, symBinAddr: 0xBA724, symSize: 0xAC }
  - { offset: 0xE5999, size: 0x8, addend: 0x0, symName: '__ZN9once_cell3imp17OnceCell$LT$T$GT$13get_unchecked17h1c2775627a5c8a27E', symObjAddr: 0x73F8, symBinAddr: 0x2483C, symSize: 0xC0 }
  - { offset: 0xE59FB, size: 0x8, addend: 0x0, symName: '__ZN9once_cell3imp17OnceCell$LT$T$GT$13get_unchecked17h2329cc28d21d65e3E', symObjAddr: 0x7578, symBinAddr: 0x248FC, symSize: 0xC0 }
  - { offset: 0xE5A43, size: 0x8, addend: 0x0, symName: '__ZN9once_cell3imp17OnceCell$LT$T$GT$14is_initialized17hcacc73ba29368788E', symObjAddr: 0x7818, symBinAddr: 0x249BC, symSize: 0x30 }
  - { offset: 0xE5A6E, size: 0x8, addend: 0x0, symName: '__ZN9once_cell3imp17OnceCell$LT$T$GT$14is_initialized17hf658a3915cb6b3bdE', symObjAddr: 0x7878, symBinAddr: 0x249EC, symSize: 0x30 }
  - { offset: 0xE5C1B, size: 0x8, addend: 0x0, symName: '__ZN102_$LT$pyo3..internal..get_slot..Slot$LT$48_i32$GT$$u20$as$u20$pyo3..internal..get_slot..GetSlotImpl$GT$8get_slot17h84fe08aa4d3605d3E', symObjAddr: 0x0, symBinAddr: 0x24A1C, symSize: 0x74 }
  - { offset: 0xE8B30, size: 0x8, addend: 0x0, symName: '__ZN4core5slice29_$LT$impl$u20$$u5b$T$u5d$$GT$4iter17hb369d8911316e509E', symObjAddr: 0x141C, symBinAddr: 0x25598, symSize: 0x28 }
  - { offset: 0xE8D92, size: 0x8, addend: 0x0, symName: '__ZN4core3ops8function5impls79_$LT$impl$u20$core..ops..function..FnMut$LT$A$GT$$u20$for$u20$$RF$mut$u20$F$GT$8call_mut17h1ca51dbb308e2728E', symObjAddr: 0xE4C, symBinAddr: 0x25360, symSize: 0x38 }
  - { offset: 0xE8DE1, size: 0x8, addend: 0x0, symName: '__ZN4core3ops8function5impls79_$LT$impl$u20$core..ops..function..FnMut$LT$A$GT$$u20$for$u20$$RF$mut$u20$F$GT$8call_mut17hca12fdc13734dde4E', symObjAddr: 0xE84, symBinAddr: 0x25398, symSize: 0x38 }
  - { offset: 0xE8ECD, size: 0x8, addend: 0x0, symName: '__ZN118_$LT$$u5b$core..mem..maybe_uninit..MaybeUninit$LT$T$GT$$u5d$$u20$as$u20$core..array..iter..iter_inner..PartialDrop$GT$12partial_drop17h5bbcd2f86b7daf2bE', symObjAddr: 0x64C, symBinAddr: 0x24C60, symSize: 0xA0 }
  - { offset: 0xE8FCD, size: 0x8, addend: 0x0, symName: '__ZN129_$LT$$u5b$core..mem..maybe_uninit..MaybeUninit$LT$T$GT$$u3b$$u20$N$u5d$$u20$as$u20$core..array..iter..iter_inner..PartialDrop$GT$12partial_drop17hf40474650fdddbe8E', symObjAddr: 0x7BC, symBinAddr: 0x24D00, symSize: 0x4C }
  - { offset: 0xE903C, size: 0x8, addend: 0x0, symName: '__ZN4core4hash5impls49_$LT$impl$u20$core..hash..Hash$u20$for$u20$i8$GT$10hash_slice17h948855e91536ae3fE', symObjAddr: 0xEBC, symBinAddr: 0x253D0, symSize: 0x80 }
  - { offset: 0xE9104, size: 0x8, addend: 0x0, symName: '__ZN4core4hash5impls58_$LT$impl$u20$core..hash..Hash$u20$for$u20$$u5b$T$u5d$$GT$4hash17heca122dcfc28f1aeE', symObjAddr: 0xF3C, symBinAddr: 0x25450, symSize: 0x50 }
  - { offset: 0xE9232, size: 0x8, addend: 0x0, symName: '__ZN4core4iter6traits8iterator8Iterator8find_map5check28_$u7b$$u7b$closure$u7d$$u7d$17h15e4ea5ca5df3657E', symObjAddr: 0xF8C, symBinAddr: 0x254A0, symSize: 0x7C }
  - { offset: 0xE92B5, size: 0x8, addend: 0x0, symName: '__ZN4core4iter6traits8iterator8Iterator8find_map5check28_$u7b$$u7b$closure$u7d$$u7d$17h2dc538cf881ad33dE', symObjAddr: 0x1008, symBinAddr: 0x2551C, symSize: 0x7C }
  - { offset: 0xE98E5, size: 0x8, addend: 0x0, symName: __ZN3std5panic12catch_unwind17h7a2cab2143f48a31E, symObjAddr: 0x96C, symBinAddr: 0x24EB0, symSize: 0xE4 }
  - { offset: 0xE9A0A, size: 0x8, addend: 0x0, symName: __ZN3std5panic12catch_unwind17hc5b369dbe51ac822E, symObjAddr: 0xA50, symBinAddr: 0x24F94, symSize: 0xF8 }
  - { offset: 0xE9B64, size: 0x8, addend: 0x0, symName: __ZN3std5panic12catch_unwind17hd75e443d9e98b2f4E, symObjAddr: 0xB48, symBinAddr: 0x2508C, symSize: 0xF8 }
  - { offset: 0xE9CBE, size: 0x8, addend: 0x0, symName: __ZN3std5panic12catch_unwind17hd8f2cfbdd5dda9c4E, symObjAddr: 0xC40, symBinAddr: 0x25184, symSize: 0xE4 }
  - { offset: 0xE9DE3, size: 0x8, addend: 0x0, symName: __ZN3std5panic12catch_unwind17hfb4c85f33462032bE, symObjAddr: 0xD24, symBinAddr: 0x25268, symSize: 0xF8 }
  - { offset: 0xEA7CB, size: 0x8, addend: 0x0, symName: '__ZN135_$LT$pyo3..impl_..pyclass..lazy_type_object..LazyTypeObjectInner..ensure_init..InitializationGuard$u20$as$u20$core..ops..drop..Drop$GT$4drop17h08cff9e2164b2e81E', symObjAddr: 0x808, symBinAddr: 0x24D4C, symSize: 0x12C }
  - { offset: 0xEA845, size: 0x8, addend: 0x0, symName: '__ZN135_$LT$pyo3..impl_..pyclass..lazy_type_object..LazyTypeObjectInner..ensure_init..InitializationGuard$u20$as$u20$core..ops..drop..Drop$GT$4drop28_$u7b$$u7b$closure$u7d$$u7d$17he01cf27a35a0d2f1E', symObjAddr: 0x934, symBinAddr: 0x24E78, symSize: 0x38 }
  - { offset: 0xEA884, size: 0x8, addend: 0x0, symName: '__ZN4pyo35impl_7pyclass16lazy_type_object19LazyTypeObjectInner11ensure_init28_$u7b$$u7b$closure$u7d$$u7d$17h8fe845cad7c130e1E', symObjAddr: 0x3DC8, symBinAddr: 0x26348, symSize: 0x39C }
  - { offset: 0xEA995, size: 0x8, addend: 0x0, symName: '__ZN4pyo35impl_7pyclass16lazy_type_object19LazyTypeObjectInner15get_or_try_init28_$u7b$$u7b$closure$u7d$$u7d$17h6f6d56120672461dE', symObjAddr: 0x4200, symBinAddr: 0x26780, symSize: 0x108 }
  - { offset: 0xEAA34, size: 0x8, addend: 0x0, symName: '__ZN4pyo35impl_7pyclass16lazy_type_object19LazyTypeObjectInner15get_or_try_init28_$u7b$$u7b$closure$u7d$$u7d$17hbebc4c9933be921eE', symObjAddr: 0x4308, symBinAddr: 0x26888, symSize: 0x194 }
  - { offset: 0xEAB2F, size: 0x8, addend: 0x0, symName: '__ZN4pyo35impl_7pyclass16lazy_type_object19LazyTypeObjectInner15get_or_try_init28_$u7b$$u7b$closure$u7d$$u7d$28_$u7b$$u7b$closure$u7d$$u7d$17h8bc64ebdf586d344E', symObjAddr: 0x449C, symBinAddr: 0x26A1C, symSize: 0x2C }
  - { offset: 0xEAB6F, size: 0x8, addend: 0x0, symName: __ZN4pyo35impl_7pyclass16lazy_type_object18initialize_tp_dict17h90b62221005ae1beE, symObjAddr: 0x33B4, symBinAddr: 0x25934, symSize: 0x1E8 }
  - { offset: 0xEAC9F, size: 0x8, addend: 0x0, symName: __ZN4pyo35impl_7pyclass16lazy_type_object21wrap_in_runtime_error17h807cd8b77f814d71E, symObjAddr: 0x44C8, symBinAddr: 0xBB544, symSize: 0x108 }
  - { offset: 0xEAD11, size: 0x8, addend: 0x0, symName: __ZN4pyo35impl_7pyclass16lazy_type_object23type_object_init_failed17hb3e20282e9e9b317E, symObjAddr: 0x45D0, symBinAddr: 0xBB64C, symSize: 0x80 }
  - { offset: 0xEB2C7, size: 0x8, addend: 0x0, symName: '__ZN4pyo35impl_16extract_argument19FunctionDescription34missing_required_keyword_arguments28_$u7b$$u7b$closure$u7d$$u7d$17hd63e69b054ce442eE', symObjAddr: 0x2CC8, symBinAddr: 0x255C0, symSize: 0x84 }
  - { offset: 0xEB337, size: 0x8, addend: 0x0, symName: '__ZN4pyo35impl_16extract_argument19FunctionDescription37missing_required_positional_arguments28_$u7b$$u7b$closure$u7d$$u7d$17h7dc03180f059b616E', symObjAddr: 0x2E94, symBinAddr: 0x25644, symSize: 0x78 }
  - { offset: 0xEB3A3, size: 0x8, addend: 0x0, symName: __ZN4pyo35impl_16extract_argument19push_parameter_list17hd4343b84e8f3f99bE, symObjAddr: 0x3018, symBinAddr: 0x257C8, symSize: 0x16C }
  - { offset: 0xEB42F, size: 0x8, addend: 0x0, symName: __ZN4pyo35impl_16extract_argument25argument_extraction_error17h64a4d9b60479999bE, symObjAddr: 0x3184, symBinAddr: 0xBB314, symSize: 0x230 }
  - { offset: 0xEB75C, size: 0x8, addend: 0x0, symName: '__ZN102_$LT$pyo3..internal..get_slot..Slot$LT$48_i32$GT$$u20$as$u20$pyo3..internal..get_slot..GetSlotImpl$GT$8get_slot17h84fe08aa4d3605d3E', symObjAddr: 0x0, symBinAddr: 0x24A1C, symSize: 0x74 }
  - { offset: 0xEB7A7, size: 0x8, addend: 0x0, symName: '__ZN102_$LT$pyo3..internal..get_slot..Slot$LT$51_i32$GT$$u20$as$u20$pyo3..internal..get_slot..GetSlotImpl$GT$8get_slot17h6a0202a378407dc7E', symObjAddr: 0x74, symBinAddr: 0x24A90, symSize: 0x74 }
  - { offset: 0xEB7F2, size: 0x8, addend: 0x0, symName: '__ZN102_$LT$pyo3..internal..get_slot..Slot$LT$52_i32$GT$$u20$as$u20$pyo3..internal..get_slot..GetSlotImpl$GT$8get_slot17hefa647938e633f3fE', symObjAddr: 0xE8, symBinAddr: 0x24B04, symSize: 0x74 }
  - { offset: 0xEB83D, size: 0x8, addend: 0x0, symName: '__ZN102_$LT$pyo3..internal..get_slot..Slot$LT$65_i32$GT$$u20$as$u20$pyo3..internal..get_slot..GetSlotImpl$GT$8get_slot17h3f0d54b87ed678fdE', symObjAddr: 0x15C, symBinAddr: 0x24B78, symSize: 0x74 }
  - { offset: 0xEB888, size: 0x8, addend: 0x0, symName: '__ZN102_$LT$pyo3..internal..get_slot..Slot$LT$74_i32$GT$$u20$as$u20$pyo3..internal..get_slot..GetSlotImpl$GT$8get_slot17h41bf79cc8b4681f4E', symObjAddr: 0x244, symBinAddr: 0x24BEC, symSize: 0x74 }
  - { offset: 0xEBA7D, size: 0x8, addend: 0x0, symName: '__ZN4pyo37pyclass18create_type_object13GetSetDefType21create_py_get_set_def6getter28_$u7b$$u7b$closure$u7d$$u7d$17h51524c3079cc06bfE', symObjAddr: 0x5610, symBinAddr: 0x26FF8, symSize: 0x34 }
  - { offset: 0xEBB0A, size: 0x8, addend: 0x0, symName: '__ZN4pyo37pyclass18create_type_object13GetSetDefType21create_py_get_set_def6setter28_$u7b$$u7b$closure$u7d$$u7d$17h8e4a4705b019a71dE', symObjAddr: 0x56A0, symBinAddr: 0x27088, symSize: 0xA0 }
  - { offset: 0xEBB9B, size: 0x8, addend: 0x0, symName: '__ZN4pyo37pyclass18create_type_object13GetSetDefType21create_py_get_set_def13getset_getter28_$u7b$$u7b$closure$u7d$$u7d$17hd07bf643a005352bE', symObjAddr: 0x5120, symBinAddr: 0x26B08, symSize: 0x50 }
  - { offset: 0xEBC28, size: 0x8, addend: 0x0, symName: '__ZN4pyo37pyclass18create_type_object13GetSetDefType21create_py_get_set_def13getset_setter28_$u7b$$u7b$closure$u7d$$u7d$17hf52fc713b9f2b1c5E', symObjAddr: 0x521C, symBinAddr: 0x26C04, symSize: 0x17C }
  - { offset: 0xEBCDA, size: 0x8, addend: 0x0, symName: '__ZN4pyo37pyclass18create_type_object13GetSetDefType21create_py_get_set_def13getset_setter28_$u7b$$u7b$closure$u7d$$u7d$28_$u7b$$u7b$closure$u7d$$u7d$17h191a0185cbb0e498E', symObjAddr: 0x5398, symBinAddr: 0x26D80, symSize: 0x2C }
  - { offset: 0xEBD04, size: 0x8, addend: 0x0, symName: '__ZN4pyo37pyclass18create_type_object13GetSetDefType21create_py_get_set_def13getset_setter28_$u7b$$u7b$closure$u7d$$u7d$28_$u7b$$u7b$closure$u7d$$u7d$17h33376342352a31a9E', symObjAddr: 0x53C4, symBinAddr: 0x26DAC, symSize: 0x2C }
  - { offset: 0xEBD3E, size: 0x8, addend: 0x0, symName: __ZN4pyo37pyclass18create_type_object13GetSetDefType21create_py_get_set_def13getset_getter17hf756192676b6d2daE, symObjAddr: 0x508C, symBinAddr: 0x26A74, symSize: 0x94 }
  - { offset: 0xEBDB7, size: 0x8, addend: 0x0, symName: __ZN4pyo37pyclass18create_type_object13GetSetDefType21create_py_get_set_def13getset_setter17h8ca7f75a89694772E, symObjAddr: 0x5170, symBinAddr: 0x26B58, symSize: 0xAC }
  - { offset: 0xEBE3F, size: 0x8, addend: 0x0, symName: __ZN4pyo37pyclass18create_type_object13GetSetDefType21create_py_get_set_def6getter17h773394710a85d866E, symObjAddr: 0x55C8, symBinAddr: 0x26FB0, symSize: 0x48 }
  - { offset: 0xEBE9A, size: 0x8, addend: 0x0, symName: __ZN4pyo37pyclass18create_type_object13GetSetDefType21create_py_get_set_def6setter17h8bfd99618252d564E, symObjAddr: 0x5644, symBinAddr: 0x2702C, symSize: 0x5C }
  - { offset: 0xEC321, size: 0x8, addend: 0x0, symName: '__ZN4pyo37pyclass18create_type_object13PyTypeBuilder31finalize_methods_and_properties28_$u7b$$u7b$closure$u7d$$u7d$17hc4a8605834f86aa9E', symObjAddr: 0x630C, symBinAddr: 0x27CF4, symSize: 0xE8 }
  - { offset: 0xEC417, size: 0x8, addend: 0x0, symName: __ZN4pyo37pyclass18create_type_object16call_super_clear17h2c8c50fad3c39f6eE, symObjAddr: 0x74BC, symBinAddr: 0x28EA4, symSize: 0x44 }
  - { offset: 0xEC44A, size: 0x8, addend: 0x0, symName: '__ZN4pyo37pyclass18create_type_object16call_super_clear28_$u7b$$u7b$closure$u7d$$u7d$17h8c4116f0dc88d34cE', symObjAddr: 0x7500, symBinAddr: 0x28EE8, symSize: 0x18 }
  - { offset: 0xEC497, size: 0x8, addend: 0x0, symName: __ZN4pyo37pyclass18create_type_object18create_type_object5inner17hc83100e97ba8022fE, symObjAddr: 0x7518, symBinAddr: 0x28F00, symSize: 0x2BC }
  - { offset: 0xEC5A3, size: 0x8, addend: 0x0, symName: __ZN4pyo37pyclass18create_type_object23py_class_qualified_name17h6f76aa92f26ab9f4E, symObjAddr: 0x77D4, symBinAddr: 0x291BC, symSize: 0x150 }
  - { offset: 0xEC662, size: 0x8, addend: 0x0, symName: '__ZN94_$LT$pyo3..pyclass..create_type_object..GetSetDefBuilder$u20$as$u20$core..default..Default$GT$7default17hf0c3a941fbf9beffE', symObjAddr: 0x827C, symBinAddr: 0x2930C, symSize: 0x64 }
  - { offset: 0xED9C3, size: 0x8, addend: 0x0, symName: __ZN4pyo35impl_16extract_argument19FunctionDescription26missing_required_arguments17h4a1a8adf22811385E, symObjAddr: 0x22CC, symBinAddr: 0xBA7D0, symSize: 0x1F8 }
  - { offset: 0xEDA95, size: 0x8, addend: 0x0, symName: __ZN4pyo35impl_16extract_argument19FunctionDescription27unexpected_keyword_argument17hdb80b84ba35b7601E, symObjAddr: 0x24C4, symBinAddr: 0xBA9C8, symSize: 0x124 }
  - { offset: 0xEDB23, size: 0x8, addend: 0x0, symName: __ZN4pyo35impl_16extract_argument19FunctionDescription28multiple_values_for_argument17hb967e5f61e2095d9E, symObjAddr: 0x25E8, symBinAddr: 0xBAAEC, symSize: 0x110 }
  - { offset: 0xEDBA9, size: 0x8, addend: 0x0, symName: __ZN4pyo35impl_16extract_argument19FunctionDescription29too_many_positional_arguments17h69a53d804ffe749aE, symObjAddr: 0x26F8, symBinAddr: 0xBABFC, symSize: 0x304 }
  - { offset: 0xEDCBC, size: 0x8, addend: 0x0, symName: __ZN4pyo35impl_16extract_argument19FunctionDescription33positional_only_keyword_arguments17h76e6b1c496a9482aE, symObjAddr: 0x29FC, symBinAddr: 0xBAF00, symSize: 0x148 }
  - { offset: 0xEDD7F, size: 0x8, addend: 0x0, symName: __ZN4pyo35impl_16extract_argument19FunctionDescription34missing_required_keyword_arguments17h444a39d4e18c3791E, symObjAddr: 0x2B44, symBinAddr: 0xBB048, symSize: 0x184 }
  - { offset: 0xEDE16, size: 0x8, addend: 0x0, symName: __ZN4pyo35impl_16extract_argument19FunctionDescription37missing_required_positional_arguments17hd02bd8dd36cbf2a7E, symObjAddr: 0x2D4C, symBinAddr: 0xBB1CC, symSize: 0x148 }
  - { offset: 0xEDE5F, size: 0x8, addend: 0x0, symName: __ZN4pyo35impl_16extract_argument19FunctionDescription9full_name17h085f325b0265a06dE, symObjAddr: 0x2F0C, symBinAddr: 0x256BC, symSize: 0x10C }
  - { offset: 0xEE05A, size: 0x8, addend: 0x0, symName: __ZN4pyo35impl_7pyclass16lazy_type_object19LazyTypeObjectInner11ensure_init17hbf788166d1fa7be1E, symObjAddr: 0x359C, symBinAddr: 0x25B1C, symSize: 0x82C }
  - { offset: 0xEE32A, size: 0x8, addend: 0x0, symName: __ZN4pyo35impl_7pyclass16lazy_type_object19LazyTypeObjectInner15get_or_try_init17h357f7f5d0fc0ca01E, symObjAddr: 0x4164, symBinAddr: 0x266E4, symSize: 0x9C }
  - { offset: 0xEE3BC, size: 0x8, addend: 0x0, symName: __ZN4pyo35impl_8pymodule9ModuleDef16init_multi_phase17h5c8ec66981bb9737E, symObjAddr: 0x4DD8, symBinAddr: 0x26A48, symSize: 0x2C }
  - { offset: 0xEE3F8, size: 0x8, addend: 0x0, symName: __ZN4pyo37pyclass18create_type_object13GetSetDefType21create_py_get_set_def17h1ba7c9743b750416E, symObjAddr: 0x53F0, symBinAddr: 0x26DD8, symSize: 0x1D8 }
  - { offset: 0xEE5BA, size: 0x8, addend: 0x0, symName: __ZN4pyo37pyclass18create_type_object13PyTypeBuilder11class_items17hf416dcd1db2ccc14E, symObjAddr: 0x5740, symBinAddr: 0x27128, symSize: 0x234 }
  - { offset: 0xEE69F, size: 0x8, addend: 0x0, symName: __ZN4pyo37pyclass18create_type_object13PyTypeBuilder12pymethod_def17h3d0714ba934d7a50E, symObjAddr: 0x5974, symBinAddr: 0x2735C, symSize: 0x1E4 }
  - { offset: 0xEE761, size: 0x8, addend: 0x0, symName: __ZN4pyo37pyclass18create_type_object13PyTypeBuilder15set_is_basetype17h60da3fa1f3b99865E, symObjAddr: 0x5B58, symBinAddr: 0x27540, symSize: 0x54 }
  - { offset: 0xEE812, size: 0x8, addend: 0x0, symName: __ZN4pyo37pyclass18create_type_object13PyTypeBuilder17push_raw_vec_slot17h0fd237172e1428adE, symObjAddr: 0x5BAC, symBinAddr: 0x27594, symSize: 0x1A8 }
  - { offset: 0xEEA04, size: 0x8, addend: 0x0, symName: __ZN4pyo37pyclass18create_type_object13PyTypeBuilder17push_raw_vec_slot17h4f6cb8ffb478c012E, symObjAddr: 0x5D54, symBinAddr: 0x2773C, symSize: 0x194 }
  - { offset: 0xEEBED, size: 0x8, addend: 0x0, symName: __ZN4pyo37pyclass18create_type_object13PyTypeBuilder17push_raw_vec_slot17hea8730b11fd3777bE, symObjAddr: 0x5EE8, symBinAddr: 0x278D0, symSize: 0x1A8 }
  - { offset: 0xEED61, size: 0x8, addend: 0x0, symName: __ZN4pyo37pyclass18create_type_object13PyTypeBuilder31finalize_methods_and_properties17h1f6ec7dae1c13db7E, symObjAddr: 0x6090, symBinAddr: 0x27A78, symSize: 0x27C }
  - { offset: 0xEEE43, size: 0x8, addend: 0x0, symName: __ZN4pyo37pyclass18create_type_object13PyTypeBuilder5build17h8262b526babcf4a3E, symObjAddr: 0x63F4, symBinAddr: 0x27DDC, symSize: 0x6EC }
  - { offset: 0xEF06A, size: 0x8, addend: 0x0, symName: __ZN4pyo37pyclass18create_type_object13PyTypeBuilder7offsets17hdd732acbd503fd61E, symObjAddr: 0x6AE0, symBinAddr: 0x284C8, symSize: 0x284 }
  - { offset: 0xEF1DC, size: 0x8, addend: 0x0, symName: __ZN4pyo37pyclass18create_type_object13PyTypeBuilder8type_doc17hca4076eb332c8eb2E, symObjAddr: 0x6D64, symBinAddr: 0x2874C, symSize: 0xE0 }
  - { offset: 0xEF225, size: 0x8, addend: 0x0, symName: __ZN4pyo37pyclass18create_type_object13PyTypeBuilder9push_slot17h18338ffb6a31ea50E, symObjAddr: 0x6E44, symBinAddr: 0x2882C, symSize: 0x10C }
  - { offset: 0xEF26C, size: 0x8, addend: 0x0, symName: __ZN4pyo37pyclass18create_type_object13PyTypeBuilder9push_slot17h61b34762c6cfca35E, symObjAddr: 0x6F50, symBinAddr: 0x28938, symSize: 0x10C }
  - { offset: 0xEF2B3, size: 0x8, addend: 0x0, symName: __ZN4pyo37pyclass18create_type_object13PyTypeBuilder9push_slot17he9405acc0a4fd5f6E, symObjAddr: 0x705C, symBinAddr: 0x28A44, symSize: 0x10C }
  - { offset: 0xEF314, size: 0x8, addend: 0x0, symName: __ZN4pyo37pyclass18create_type_object16GetSetDefBuilder10add_getter17h5f81fcd10dc79e75E, symObjAddr: 0x7168, symBinAddr: 0x28B50, symSize: 0x64 }
  - { offset: 0xEF353, size: 0x8, addend: 0x0, symName: __ZN4pyo37pyclass18create_type_object16GetSetDefBuilder10add_setter17hd0411ea38ecf46d9E, symObjAddr: 0x71CC, symBinAddr: 0x28BB4, symSize: 0x64 }
  - { offset: 0xEF392, size: 0x8, addend: 0x0, symName: __ZN4pyo37pyclass18create_type_object16GetSetDefBuilder11add_deleter17h24910b89acec0aaeE, symObjAddr: 0x7230, symBinAddr: 0x28C18, symSize: 0x64 }
  - { offset: 0xEF3EF, size: 0x8, addend: 0x0, symName: __ZN4pyo37pyclass18create_type_object16GetSetDefBuilder14as_get_set_def17h5b419f6fdd4963dbE, symObjAddr: 0x7294, symBinAddr: 0x28C7C, symSize: 0x228 }
  - { offset: 0xEFA01, size: 0x8, addend: 0x0, symName: '__ZN45_$LT$T$u20$as$u20$alloc..string..ToString$GT$9to_string17h1bbb7c7e118bc523E', symObjAddr: 0xCD8, symBinAddr: 0x29720, symSize: 0x24 }
  - { offset: 0xEFA38, size: 0x8, addend: 0x0, symName: '__ZN45_$LT$T$u20$as$u20$alloc..string..ToString$GT$9to_string17h929310c23926ead9E', symObjAddr: 0xCFC, symBinAddr: 0x29744, symSize: 0x24 }
  - { offset: 0xEFA75, size: 0x8, addend: 0x0, symName: '__ZN49_$LT$T$u20$as$u20$alloc..string..SpecToString$GT$14spec_to_string17h137192f07afe7750E', symObjAddr: 0xD20, symBinAddr: 0x29768, symSize: 0xF4 }
  - { offset: 0xEFB3F, size: 0x8, addend: 0x0, symName: '__ZN49_$LT$T$u20$as$u20$alloc..string..SpecToString$GT$14spec_to_string17hf0e4fec60e004ebdE', symObjAddr: 0xE14, symBinAddr: 0x2985C, symSize: 0xF4 }
  - { offset: 0xF1885, size: 0x8, addend: 0x0, symName: __ZN4core10intrinsics11rotate_left17h55adfdf4b1f60bfaE, symObjAddr: 0xF08, symBinAddr: 0x29950, symSize: 0x54 }
  - { offset: 0xF195E, size: 0x8, addend: 0x0, symName: __ZN4core4iter6traits8iterator8Iterator9enumerate17hbc89b709a894cf7bE, symObjAddr: 0x1010, symBinAddr: 0x299A4, symSize: 0x18 }
  - { offset: 0xF198F, size: 0x8, addend: 0x0, symName: __ZN4core4iter6traits8iterator8Iterator9enumerate17hbc89b709a894cf7bE, symObjAddr: 0x1010, symBinAddr: 0x299A4, symSize: 0x18 }
  - { offset: 0xF19B6, size: 0x8, addend: 0x0, symName: '__ZN63_$LT$I$u20$as$u20$core..iter..traits..collect..IntoIterator$GT$9into_iter17ha93cc5fef81bc7c6E', symObjAddr: 0x7628, symBinAddr: 0x2BDAC, symSize: 0x18 }
  - { offset: 0xF19FB, size: 0x8, addend: 0x0, symName: '__ZN4core5slice29_$LT$impl$u20$$u5b$T$u5d$$GT$4iter17h29969c335e4cf316E', symObjAddr: 0x12C8, symBinAddr: 0x299BC, symSize: 0x28 }
  - { offset: 0xF1A32, size: 0x8, addend: 0x0, symName: '__ZN4core5slice29_$LT$impl$u20$$u5b$T$u5d$$GT$8is_empty17hc01843b64434a193E', symObjAddr: 0x1318, symBinAddr: 0x299E4, symSize: 0x1C }
  - { offset: 0xF1AB9, size: 0x8, addend: 0x0, symName: __ZN4core9core_arch10arm_shared4neon9generated13vget_lane_u6417h5fdadf8cd801a47dE, symObjAddr: 0x1334, symBinAddr: 0x29A00, symSize: 0x18 }
  - { offset: 0xF1AE8, size: 0x8, addend: 0x0, symName: __ZN4core9core_arch10arm_shared4neon9generated18vreinterpret_s8_u817hb17a62ab211834b4E, symObjAddr: 0x134C, symBinAddr: 0x29A18, symSize: 0xC }
  - { offset: 0xF1B16, size: 0x8, addend: 0x0, symName: __ZN4core9core_arch10arm_shared4neon9generated19vreinterpret_u64_u817h679fc0ef57bb6dbbE, symObjAddr: 0x1358, symBinAddr: 0x29A24, symSize: 0xC }
  - { offset: 0xF1B44, size: 0x8, addend: 0x0, symName: __ZN4core9core_arch10arm_shared4neon9generated7vceq_u817h467de96e04116337E, symObjAddr: 0x1364, symBinAddr: 0x29A30, symSize: 0x14 }
  - { offset: 0xF1B81, size: 0x8, addend: 0x0, symName: __ZN4core9core_arch10arm_shared4neon9generated7vorr_u817h9bff8a58f60ea2d3E, symObjAddr: 0x1378, symBinAddr: 0x29A44, symSize: 0x14 }
  - { offset: 0xF1BBE, size: 0x8, addend: 0x0, symName: __ZN4core9core_arch10arm_shared4neon9generated9vdup_n_u817h449869fa95af2833E, symObjAddr: 0x138C, symBinAddr: 0x29A58, symSize: 0x2C }
  - { offset: 0xF2E24, size: 0x8, addend: 0x0, symName: __ZN8pyo3_ffi7cpython10listobject15PyList_GET_ITEM17he21b05be667c63e6E, symObjAddr: 0x8490, symBinAddr: 0x2C140, symSize: 0x104 }
  - { offset: 0xF2E83, size: 0x8, addend: 0x0, symName: __ZN8pyo3_ffi7cpython10listobject15PyList_GET_SIZE17h27b15b7bebfceec4E, symObjAddr: 0x8594, symBinAddr: 0x2C244, symSize: 0x24 }
  - { offset: 0xF2EB5, size: 0x8, addend: 0x0, symName: __ZN8pyo3_ffi7cpython11tupleobject16PyTuple_GET_ITEM17hbf468687975f42bfE, symObjAddr: 0x85B8, symBinAddr: 0x2C268, symSize: 0x10C }
  - { offset: 0xF2F14, size: 0x8, addend: 0x0, symName: __ZN8pyo3_ffi7cpython11tupleobject16PyTuple_GET_SIZE17h99d4329e6e7532a3E, symObjAddr: 0x86C4, symBinAddr: 0x2C374, symSize: 0x24 }
  - { offset: 0xF2F40, size: 0x8, addend: 0x0, symName: __ZN8pyo3_ffi7cpython11tupleobject16PyTuple_SET_ITEM17h512e50c6aefbd35cE, symObjAddr: 0x86E8, symBinAddr: 0x2C398, symSize: 0x118 }
  - { offset: 0xF3B1F, size: 0x8, addend: 0x0, symName: __ZN4pyo35types6module7__all__8INTERNED17heac07daa904d2c0dE, symObjAddr: 0xBE98, symBinAddr: 0x1344B0, symSize: 0x0 }
  - { offset: 0xF3B3F, size: 0x8, addend: 0x0, symName: __ZN4pyo35types6module8__name__8INTERNED17ha65d5a2ef830d480E, symObjAddr: 0xBEB8, symBinAddr: 0x1344D0, symSize: 0x0 }
  - { offset: 0xF3B57, size: 0x8, addend: 0x0, symName: '__ZN115_$LT$pyo3..instance..Bound$LT$pyo3..types..module..PyModule$GT$$u20$as$u20$pyo3..types..module..PyModuleMethods$GT$3add5inner17h61fd8bfa3fbf2738E', symObjAddr: 0x854, symBinAddr: 0x29424, symSize: 0x140 }
  - { offset: 0xF3C7F, size: 0x8, addend: 0x0, symName: __ZN4pyo35types6module7__all__17h300b4dc1077a8c09E, symObjAddr: 0x5DC4, symBinAddr: 0x2B1CC, symSize: 0x24 }
  - { offset: 0xF3CB9, size: 0x8, addend: 0x0, symName: __ZN4pyo35types6module8__name__17h1b688951f68d131fE, symObjAddr: 0x63B4, symBinAddr: 0x2B2E8, symSize: 0x24 }
  - { offset: 0xF3CF8, size: 0x8, addend: 0x0, symName: '__ZN79_$LT$pyo3..types..module..PyModule$u20$as$u20$pyo3..type_object..PyTypeInfo$GT$10is_type_of17hc41cf7b85a49516bE', symObjAddr: 0x79F0, symBinAddr: 0x2C0D4, symSize: 0x30 }
  - { offset: 0xF3D24, size: 0x8, addend: 0x0, symName: '__ZN79_$LT$pyo3..types..module..PyModule$u20$as$u20$pyo3..type_object..PyTypeInfo$GT$15type_object_raw17h094c7272c0fea7b3E', symObjAddr: 0x7A20, symBinAddr: 0x2C104, symSize: 0x24 }
  - { offset: 0xF3D60, size: 0x8, addend: 0x0, symName: '__ZN79_$LT$pyo3..types..module..PyModule$u20$as$u20$pyo3..type_object..PyTypeInfo$GT$15type_object_raw28_$u7b$$u7b$closure$u7d$$u7d$17h9c1ee70e8fec090fE', symObjAddr: 0x7A44, symBinAddr: 0x2C128, symSize: 0x18 }
  - { offset: 0xF3E86, size: 0x8, addend: 0x0, symName: __ZN4pyo35types4dict8dict_len17hb79bc0228ff47908E, symObjAddr: 0x37F0, symBinAddr: 0x2AC98, symSize: 0x80 }
  - { offset: 0xF3EB9, size: 0x8, addend: 0x0, symName: '__ZN75_$LT$pyo3..types..dict..PyDict$u20$as$u20$pyo3..type_object..PyTypeInfo$GT$10is_type_of17h4c71356a6cf883e1E', symObjAddr: 0x7778, symBinAddr: 0x2BE5C, symSize: 0x30 }
  - { offset: 0xF3EE5, size: 0x8, addend: 0x0, symName: '__ZN75_$LT$pyo3..types..dict..PyDict$u20$as$u20$pyo3..type_object..PyTypeInfo$GT$15type_object_raw17h74c38534770134a9E', symObjAddr: 0x77A8, symBinAddr: 0x2BE8C, symSize: 0x24 }
  - { offset: 0xF3F21, size: 0x8, addend: 0x0, symName: '__ZN75_$LT$pyo3..types..dict..PyDict$u20$as$u20$pyo3..type_object..PyTypeInfo$GT$15type_object_raw28_$u7b$$u7b$closure$u7d$$u7d$17h9102a904111732e1E', symObjAddr: 0x77CC, symBinAddr: 0x2BEB0, symSize: 0x18 }
  - { offset: 0xF3F7B, size: 0x8, addend: 0x0, symName: '__ZN107_$LT$pyo3..instance..Bound$LT$pyo3..types..list..PyList$GT$$u20$as$u20$pyo3..types..list..PyListMethods$GT$6append5inner17h07aecd966a5dbf80E', symObjAddr: 0x448, symBinAddr: 0x293C4, symSize: 0x60 }
  - { offset: 0xF4056, size: 0x8, addend: 0x0, symName: '__ZN75_$LT$pyo3..types..list..PyList$u20$as$u20$pyo3..type_object..PyTypeInfo$GT$10is_type_of17ha29c3a3814e01e95E', symObjAddr: 0x77E4, symBinAddr: 0x2BEC8, symSize: 0x30 }
  - { offset: 0xF4082, size: 0x8, addend: 0x0, symName: '__ZN75_$LT$pyo3..types..list..PyList$u20$as$u20$pyo3..type_object..PyTypeInfo$GT$15type_object_raw17hd19325dc46f21b66E', symObjAddr: 0x7814, symBinAddr: 0x2BEF8, symSize: 0x24 }
  - { offset: 0xF40BE, size: 0x8, addend: 0x0, symName: '__ZN75_$LT$pyo3..types..list..PyList$u20$as$u20$pyo3..type_object..PyTypeInfo$GT$15type_object_raw28_$u7b$$u7b$closure$u7d$$u7d$17hbdcc046a3b526615E', symObjAddr: 0x7838, symBinAddr: 0x2BF1C, symSize: 0x18 }
  - { offset: 0xF4229, size: 0x8, addend: 0x0, symName: __ZN4pyo35types5tuple16array_into_tuple17hecf62fdba988b2e7E, symObjAddr: 0x3B30, symBinAddr: 0x2ADE0, symSize: 0x200 }
  - { offset: 0xF4342, size: 0x8, addend: 0x0, symName: '__ZN4pyo35types5tuple74_$LT$impl$u20$pyo3..conversion..IntoPyObject$u20$for$u20$$LP$T0$C$$RP$$GT$13into_pyobject17hd6da030865dedde3E', symObjAddr: 0x5AD8, symBinAddr: 0x2B0D0, symSize: 0xCC }
  - { offset: 0xF43BC, size: 0x8, addend: 0x0, symName: '__ZN77_$LT$pyo3..types..tuple..PyTuple$u20$as$u20$pyo3..type_object..PyTypeInfo$GT$10is_type_of17h205f78d09ade70a4E', symObjAddr: 0x78CC, symBinAddr: 0x2BFB0, symSize: 0x30 }
  - { offset: 0xF43E8, size: 0x8, addend: 0x0, symName: '__ZN77_$LT$pyo3..types..tuple..PyTuple$u20$as$u20$pyo3..type_object..PyTypeInfo$GT$15type_object_raw17ha60a8e5fba5dc5e6E', symObjAddr: 0x78FC, symBinAddr: 0x2BFE0, symSize: 0x24 }
  - { offset: 0xF4424, size: 0x8, addend: 0x0, symName: '__ZN77_$LT$pyo3..types..tuple..PyTuple$u20$as$u20$pyo3..type_object..PyTypeInfo$GT$15type_object_raw28_$u7b$$u7b$closure$u7d$$u7d$17h64dea2e4463a9fc7E', symObjAddr: 0x7920, symBinAddr: 0x2C004, symSize: 0x18 }
  - { offset: 0xF4473, size: 0x8, addend: 0x0, symName: '__ZN97_$LT$pyo3..types..tuple..BoundTupleIterator$u20$as$u20$core..iter..traits..iterator..Iterator$GT$4next17hdcbde6deb30c410dE', symObjAddr: 0x9378, symBinAddr: 0x2C580, symSize: 0xD0 }
  - { offset: 0xF4508, size: 0x8, addend: 0x0, symName: '__ZN75_$LT$pyo3..types..none..PyNone$u20$as$u20$pyo3..type_object..PyTypeInfo$GT$15type_object_raw17h4620709451ff3da4E', symObjAddr: 0x7850, symBinAddr: 0x2BF34, symSize: 0x20 }
  - { offset: 0xF4583, size: 0x8, addend: 0x0, symName: '__ZN4pyo38internal5state12ATTACH_COUNT29_$u7b$$u7b$constant$u7d$$u7d$28_$u7b$$u7b$closure$u7d$$u7d$23__RUST_STD_INTERNAL_VAL17h0b24e67b628ae061E', symObjAddr: 0xBF10, symBinAddr: 0x134EF0, symSize: 0x0 }
  - { offset: 0xF4592, size: 0x8, addend: 0x0, symName: '__ZN4pyo38internal5state12ATTACH_COUNT29_$u7b$$u7b$constant$u7d$$u7d$28_$u7b$$u7b$closure$u7d$$u7d$17h9c2c70e10175822bE', symObjAddr: 0x690C, symBinAddr: 0x2B4B0, symSize: 0x30 }
  - { offset: 0xF45DA, size: 0x8, addend: 0x0, symName: __ZN4pyo38internal5state4POOL17h6c76f92656461187E, symObjAddr: 0xBED8, symBinAddr: 0x1344F0, symSize: 0x0 }
  - { offset: 0xF4703, size: 0x8, addend: 0x0, symName: '__ZN4pyo38internal5state11AttachGuard10try_attach28_$u7b$$u7b$closure$u7d$$u7d$17h2fb95fe5a0fac655E', symObjAddr: 0x6798, symBinAddr: 0x2B3CC, symSize: 0x24 }
  - { offset: 0xF4789, size: 0x8, addend: 0x0, symName: '__ZN4pyo38internal5state13SuspendAttach3new28_$u7b$$u7b$closure$u7d$$u7d$17ha9b52fc962bfb896E', symObjAddr: 0x6F10, symBinAddr: 0x2BAB4, symSize: 0x28 }
  - { offset: 0xF4815, size: 0x8, addend: 0x0, symName: __ZN4pyo38internal5state15register_decref17h99946150524c1d90E, symObjAddr: 0x7008, symBinAddr: 0x2BADC, symSize: 0x2C }
  - { offset: 0xF4844, size: 0x8, addend: 0x0, symName: '__ZN4pyo38internal5state18thread_is_attached28_$u7b$$u7b$closure$u7d$$u7d$17h1cf5276d4f30da0bE', symObjAddr: 0x7088, symBinAddr: 0x2BB08, symSize: 0x2C }
  - { offset: 0xF4887, size: 0x8, addend: 0x0, symName: '__ZN4pyo38internal5state22decrement_attach_count28_$u7b$$u7b$closure$u7d$$u7d$17hd1a5c80c68f4bf2bE', symObjAddr: 0x70B4, symBinAddr: 0x2BB34, symSize: 0x8C }
  - { offset: 0xF48DF, size: 0x8, addend: 0x0, symName: '__ZN4pyo38internal5state22increment_attach_count28_$u7b$$u7b$closure$u7d$$u7d$17h9c96c9f7a6d8fce0E', symObjAddr: 0x7140, symBinAddr: 0x2BBC0, symSize: 0x74 }
  - { offset: 0xF4932, size: 0x8, addend: 0x0, symName: __ZN4pyo38internal5state24drop_deferred_references17ha66b74bc513d09f6E, symObjAddr: 0x71B4, symBinAddr: 0x2BC34, symSize: 0x4C }
  - { offset: 0xF4982, size: 0x8, addend: 0x0, symName: __ZN4pyo38internal5state8get_pool17ha8152b3965857cf1E, symObjAddr: 0x7200, symBinAddr: 0x2BC80, symSize: 0x1C }
  - { offset: 0xF49B1, size: 0x8, addend: 0x0, symName: '__ZN76_$LT$pyo3..internal..state..AttachGuard$u20$as$u20$core..ops..drop..Drop$GT$4drop17h7a830235dfa60a01E', symObjAddr: 0x7870, symBinAddr: 0x2BF54, symSize: 0x5C }
  - { offset: 0xF4A10, size: 0x8, addend: 0x0, symName: '__ZN78_$LT$pyo3..internal..state..SuspendAttach$u20$as$u20$core..ops..drop..Drop$GT$4drop17h058a6fdb4413848dE', symObjAddr: 0x7938, symBinAddr: 0x2C01C, symSize: 0x80 }
  - { offset: 0xF4A5D, size: 0x8, addend: 0x0, symName: '__ZN78_$LT$pyo3..internal..state..SuspendAttach$u20$as$u20$core..ops..drop..Drop$GT$4drop28_$u7b$$u7b$closure$u7d$$u7d$17h64682ae163cb875dE', symObjAddr: 0x79B8, symBinAddr: 0x2C09C, symSize: 0x38 }
  - { offset: 0xF4AB0, size: 0x8, addend: 0x0, symName: '__ZN128_$LT$pyo3..impl_..pyclass_init..PyNativeTypeInitializer$LT$T$GT$$u20$as$u20$pyo3..impl_..pyclass_init..PyObjectInit$LT$T$GT$$GT$15into_new_object5inner17hd7f12461e936a0a9E', symObjAddr: 0xB1C, symBinAddr: 0x29564, symSize: 0x190 }
  - { offset: 0xF4B7A, size: 0x8, addend: 0x0, symName: '__ZN128_$LT$pyo3..impl_..pyclass_init..PyNativeTypeInitializer$LT$T$GT$$u20$as$u20$pyo3..impl_..pyclass_init..PyObjectInit$LT$T$GT$$GT$15into_new_object5inner28_$u7b$$u7b$closure$u7d$$u7d$17h1bdef9dac7e5ab3dE', symObjAddr: 0xCAC, symBinAddr: 0x296F4, symSize: 0x2C }
  - { offset: 0xF4C10, size: 0x8, addend: 0x0, symName: __ZN4pyo35impl_10pyfunction20create_py_c_function17hc494744c6cb3de67E, symObjAddr: 0x1D1C, symBinAddr: 0x29BA8, symSize: 0x1A8 }
  - { offset: 0xF4F89, size: 0x8, addend: 0x0, symName: __ZN4pyo35impl_10trampoline10trampoline17h15993692a32beda8E, symObjAddr: 0x1EC4, symBinAddr: 0x29D50, symSize: 0x15C }
  - { offset: 0xF5032, size: 0x8, addend: 0x0, symName: __ZN4pyo35impl_10trampoline10trampoline17h49e4d769a9c1e95aE, symObjAddr: 0x2020, symBinAddr: 0x29EAC, symSize: 0x158 }
  - { offset: 0xF50DB, size: 0x8, addend: 0x0, symName: __ZN4pyo35impl_10trampoline10trampoline17h60ba428ebee16a1dE, symObjAddr: 0x2178, symBinAddr: 0x2A004, symSize: 0x158 }
  - { offset: 0xF5184, size: 0x8, addend: 0x0, symName: __ZN4pyo35impl_10trampoline10trampoline17h8402c94347b978aeE, symObjAddr: 0x22D0, symBinAddr: 0x2A15C, symSize: 0x15C }
  - { offset: 0xF522D, size: 0x8, addend: 0x0, symName: __ZN4pyo35impl_10trampoline10trampoline17h8d82b2b2554ccdb0E, symObjAddr: 0x242C, symBinAddr: 0x2A2B8, symSize: 0x15C }
  - { offset: 0xF52DB, size: 0x8, addend: 0x0, symName: '__ZN4pyo35impl_10trampoline10trampoline28_$u7b$$u7b$closure$u7d$$u7d$17h5e3a6619461e4f6aE', symObjAddr: 0x2588, symBinAddr: 0x2A414, symSize: 0x2C }
  - { offset: 0xF532C, size: 0x8, addend: 0x0, symName: '__ZN4pyo35impl_10trampoline10trampoline28_$u7b$$u7b$closure$u7d$$u7d$17ha306f7d8ce1b1c54E', symObjAddr: 0x25B4, symBinAddr: 0x2A440, symSize: 0x2C }
  - { offset: 0xF537D, size: 0x8, addend: 0x0, symName: '__ZN4pyo35impl_10trampoline10trampoline28_$u7b$$u7b$closure$u7d$$u7d$17hda80c7726268f88bE', symObjAddr: 0x25E0, symBinAddr: 0x2A46C, symSize: 0x34 }
  - { offset: 0xF53CF, size: 0x8, addend: 0x0, symName: '__ZN4pyo35impl_10trampoline10trampoline28_$u7b$$u7b$closure$u7d$$u7d$17he0c5a421e7047e3fE', symObjAddr: 0x2614, symBinAddr: 0x2A4A0, symSize: 0x34 }
  - { offset: 0xF5421, size: 0x8, addend: 0x0, symName: '__ZN4pyo35impl_10trampoline10trampoline28_$u7b$$u7b$closure$u7d$$u7d$17hfb8f7382ec6dd265E', symObjAddr: 0x2648, symBinAddr: 0x2A4D4, symSize: 0x34 }
  - { offset: 0xF5474, size: 0x8, addend: 0x0, symName: __ZN4pyo35impl_10trampoline33panic_result_into_callback_output17h5e2ffafbfca39d73E, symObjAddr: 0x267C, symBinAddr: 0x2A508, symSize: 0x114 }
  - { offset: 0xF5540, size: 0x8, addend: 0x0, symName: __ZN4pyo35impl_10trampoline33panic_result_into_callback_output17hb49ace0d3d0518d0E, symObjAddr: 0x2790, symBinAddr: 0x2A61C, symSize: 0x12C }
  - { offset: 0xF5652, size: 0x8, addend: 0x0, symName: '__ZN71_$LT$pyo3..impl_..panic..PanicTrap$u20$as$u20$core..ops..drop..Drop$GT$4drop17h9ac40fb1bec2264cE', symObjAddr: 0x7758, symBinAddr: 0x2BE3C, symSize: 0x20 }
  - { offset: 0xF56EA, size: 0x8, addend: 0x0, symName: __ZN4pyo35impl_7pyclass30get_sequence_item_from_mapping17h4136aa29892ce6d9E, symObjAddr: 0x2BEC, symBinAddr: 0x2A7B0, symSize: 0x210 }
  - { offset: 0xF57A4, size: 0x8, addend: 0x0, symName: __ZN4pyo35impl_7pyclass33assign_sequence_item_from_mapping17hd7af704a76caeb26E, symObjAddr: 0x2DFC, symBinAddr: 0x2A9C0, symSize: 0x24C }
  - { offset: 0xF5865, size: 0x8, addend: 0x0, symName: '__ZN97_$LT$pyo3..impl_..pyclass..PyClassItemsIter$u20$as$u20$core..iter..traits..iterator..Iterator$GT$4next17h5decdf88a5821c1fE', symObjAddr: 0x92A8, symBinAddr: 0x2C4B0, symSize: 0xD0 }
  - { offset: 0xF58DC, size: 0x8, addend: 0x0, symName: __ZN4pyo311type_object10PyTypeInfo11type_object17h553d5a3837c72954E, symObjAddr: 0x1ADC, symBinAddr: 0x29A84, symSize: 0x30 }
  - { offset: 0xF591C, size: 0x8, addend: 0x0, symName: __ZN4pyo311type_object10PyTypeInfo11type_object17h723768b829e8e0b6E, symObjAddr: 0x1B3C, symBinAddr: 0x29AB4, symSize: 0x30 }
  - { offset: 0xF595C, size: 0x8, addend: 0x0, symName: __ZN4pyo311type_object10PyTypeInfo11type_object17h7e3135edaf02a3baE, symObjAddr: 0x1B9C, symBinAddr: 0x29AE4, symSize: 0x30 }
  - { offset: 0xF599C, size: 0x8, addend: 0x0, symName: __ZN4pyo311type_object10PyTypeInfo11type_object17h834cd6e8448ad872E, symObjAddr: 0x1BCC, symBinAddr: 0x29B14, symSize: 0x30 }
  - { offset: 0xF59DC, size: 0x8, addend: 0x0, symName: __ZN4pyo311type_object10PyTypeInfo11type_object17hb0c582940e49e66eE, symObjAddr: 0x1BFC, symBinAddr: 0x29B44, symSize: 0x30 }
  - { offset: 0xF5A22, size: 0x8, addend: 0x0, symName: '__ZN52_$LT$T$u20$as$u20$pyo3..type_object..PyTypeCheck$GT$10type_check17h0c507a68a7d0d291E', symObjAddr: 0x7490, symBinAddr: 0x2BC9C, symSize: 0x24 }
  - { offset: 0xF5A57, size: 0x8, addend: 0x0, symName: '__ZN52_$LT$T$u20$as$u20$pyo3..type_object..PyTypeCheck$GT$10type_check17h1b4626e1d07cc8b8E', symObjAddr: 0x74B4, symBinAddr: 0x2BCC0, symSize: 0x24 }
  - { offset: 0xF5A8C, size: 0x8, addend: 0x0, symName: '__ZN52_$LT$T$u20$as$u20$pyo3..type_object..PyTypeCheck$GT$10type_check17h3ca2b6c281cef532E', symObjAddr: 0x74D8, symBinAddr: 0x2BCE4, symSize: 0x24 }
  - { offset: 0xF5AC1, size: 0x8, addend: 0x0, symName: '__ZN52_$LT$T$u20$as$u20$pyo3..type_object..PyTypeCheck$GT$10type_check17hb006e5f7872513cdE', symObjAddr: 0x7544, symBinAddr: 0x2BD08, symSize: 0x24 }
  - { offset: 0xF5AF6, size: 0x8, addend: 0x0, symName: '__ZN52_$LT$T$u20$as$u20$pyo3..type_object..PyTypeCheck$GT$16classinfo_object17h22203cabed2fa04dE', symObjAddr: 0x7568, symBinAddr: 0x2BD2C, symSize: 0x20 }
  - { offset: 0xF5B36, size: 0x8, addend: 0x0, symName: '__ZN52_$LT$T$u20$as$u20$pyo3..type_object..PyTypeCheck$GT$16classinfo_object17hc243bf9a38295532E', symObjAddr: 0x75A8, symBinAddr: 0x2BD4C, symSize: 0x20 }
  - { offset: 0xF5B76, size: 0x8, addend: 0x0, symName: '__ZN52_$LT$T$u20$as$u20$pyo3..type_object..PyTypeCheck$GT$16classinfo_object17hdbeffa6fb7ade0f9E', symObjAddr: 0x75E8, symBinAddr: 0x2BD6C, symSize: 0x20 }
  - { offset: 0xF5BB6, size: 0x8, addend: 0x0, symName: '__ZN52_$LT$T$u20$as$u20$pyo3..type_object..PyTypeCheck$GT$16classinfo_object17hf2196edecef33852E', symObjAddr: 0x7608, symBinAddr: 0x2BD8C, symSize: 0x20 }
  - { offset: 0xF5D1D, size: 0x8, addend: 0x0, symName: '__ZN66_$LT$pyo3..pycell..PyBorrowError$u20$as$u20$core..fmt..Display$GT$3fmt17h1e7d6fd798baa05aE', symObjAddr: 0x7690, symBinAddr: 0x2BDC4, symSize: 0x3C }
  - { offset: 0xF5D60, size: 0x8, addend: 0x0, symName: '__ZN69_$LT$pyo3..pycell..PyBorrowMutError$u20$as$u20$core..fmt..Display$GT$3fmt17h51b607c4e7a57dfeE', symObjAddr: 0x771C, symBinAddr: 0x2BE00, symSize: 0x3C }
  - { offset: 0xF6130, size: 0x8, addend: 0x0, symName: __ZN4pyo35impl_10pyfunction13PyFunctionDef20create_py_c_function17h6535fed40bfe71edE, symObjAddr: 0x1CAC, symBinAddr: 0x29B74, symSize: 0x34 }
  - { offset: 0xF6179, size: 0x8, addend: 0x0, symName: __ZN4pyo35impl_5panic9PanicTrap3new17hab399c400c42bba1E, symObjAddr: 0x28BC, symBinAddr: 0x2A748, symSize: 0x18 }
  - { offset: 0xF619B, size: 0x8, addend: 0x0, symName: __ZN4pyo35impl_5panic9PanicTrap6disarm17hc14d42f2d101480fE, symObjAddr: 0x28D4, symBinAddr: 0x2A760, symSize: 0x28 }
  - { offset: 0xF628C, size: 0x8, addend: 0x0, symName: __ZN4pyo35impl_7pyclass16PyClassItemsIter3new17h49181367f7389377E, symObjAddr: 0x28FC, symBinAddr: 0x2A788, symSize: 0x28 }
  - { offset: 0xF62BE, size: 0x8, addend: 0x0, symName: __ZN4pyo35types4dict17BoundDictIterator3new17h691e0e9ffaf1374cE, symObjAddr: 0x360C, symBinAddr: 0x2AC0C, symSize: 0x8C }
  - { offset: 0xF630C, size: 0x8, addend: 0x0, symName: __ZN4pyo35types4list17BoundListIterator3new17h2d360e1c69bf6e59E, symObjAddr: 0x3870, symBinAddr: 0x2AD18, symSize: 0x74 }
  - { offset: 0xF632F, size: 0x8, addend: 0x0, symName: __ZN4pyo35types4list6PyList5empty17h7e89f2fed6918f40E, symObjAddr: 0x38E4, symBinAddr: 0x2AD8C, symSize: 0x30 }
  - { offset: 0xF6369, size: 0x8, addend: 0x0, symName: __ZN4pyo35types4none6PyNone3get17hd78a78a68f715787E, symObjAddr: 0x3914, symBinAddr: 0x2ADBC, symSize: 0x24 }
  - { offset: 0xF6396, size: 0x8, addend: 0x0, symName: __ZN4pyo35types5tuple18BoundTupleIterator3new17h4d549ed7f3f32859E, symObjAddr: 0x484C, symBinAddr: 0x2AFE0, symSize: 0x78 }
  - { offset: 0xF63E4, size: 0x8, addend: 0x0, symName: __ZN4pyo35types5tuple21BorrowedTupleIterator3new17h213892baf2d70b81E, symObjAddr: 0x4988, symBinAddr: 0x2B058, symSize: 0x48 }
  - { offset: 0xF6432, size: 0x8, addend: 0x0, symName: __ZN4pyo35types5tuple21BorrowedTupleIterator8get_item17h9a772c30461aa5c0E, symObjAddr: 0x49D0, symBinAddr: 0x2B0A0, symSize: 0x30 }
  - { offset: 0xF64F7, size: 0x8, addend: 0x0, symName: __ZN4pyo35types5tuple7PyTuple5empty17h73e04321f8d91e81E, symObjAddr: 0x5D94, symBinAddr: 0x2B19C, symSize: 0x30 }
  - { offset: 0xF6531, size: 0x8, addend: 0x0, symName: __ZN4pyo35types6module8PyModule6import17h3a8ae0793dfb7f62E, symObjAddr: 0x5FC8, symBinAddr: 0x2B1F0, symSize: 0xF8 }
  - { offset: 0xF65D0, size: 0x8, addend: 0x0, symName: __ZN4pyo38internal5state11AttachGuard10try_attach17h67c3d32af4c281feE, symObjAddr: 0x66D8, symBinAddr: 0x2B30C, symSize: 0xC0 }
  - { offset: 0xF6610, size: 0x8, addend: 0x0, symName: __ZN4pyo38internal5state11AttachGuard19do_attach_unchecked17h44f9db8df5b7f7d8E, symObjAddr: 0x6810, symBinAddr: 0xBB6CC, symSize: 0x3C }
  - { offset: 0xF6655, size: 0x8, addend: 0x0, symName: __ZN4pyo38internal5state11AttachGuard6assume17hb6222809602d2965E, symObjAddr: 0x684C, symBinAddr: 0x2B3F0, symSize: 0x28 }
  - { offset: 0xF667D, size: 0x8, addend: 0x0, symName: __ZN4pyo38internal5state11AttachGuard6attach17hcc8796aaecf4602bE, symObjAddr: 0x6874, symBinAddr: 0x2B418, symSize: 0x78 }
  - { offset: 0xF66AE, size: 0x8, addend: 0x0, symName: __ZN4pyo38internal5state11AttachGuard6python17hdfd92d2c55ea47ffE, symObjAddr: 0x68EC, symBinAddr: 0x2B490, symSize: 0x20 }
  - { offset: 0xF6720, size: 0x8, addend: 0x0, symName: __ZN4pyo38internal5state13ReferencePool15register_decref17he81b430f6d088342E, symObjAddr: 0x693C, symBinAddr: 0x2B4E0, symSize: 0x128 }
  - { offset: 0xF67A5, size: 0x8, addend: 0x0, symName: __ZN4pyo38internal5state13ReferencePool24drop_deferred_references17h4a4a3f76d6ed85b0E, symObjAddr: 0x6A64, symBinAddr: 0x2B608, symSize: 0x420 }
  - { offset: 0xF68C5, size: 0x8, addend: 0x0, symName: __ZN4pyo38internal5state13ReferencePool3new17hda34ea4af58b2538E, symObjAddr: 0x6E84, symBinAddr: 0x2BA28, symSize: 0x4C }
  - { offset: 0xF68D8, size: 0x8, addend: 0x0, symName: __ZN4pyo38internal5state13SuspendAttach3new17h5399a174ef30516bE, symObjAddr: 0x6ED0, symBinAddr: 0x2BA74, symSize: 0x40 }
  - { offset: 0xF6909, size: 0x8, addend: 0x0, symName: __ZN4pyo38internal5state15ForbidAttaching4bail17h80d1dc67f24a23f9E, symObjAddr: 0x6FB8, symBinAddr: 0xBB708, symSize: 0x50 }
  - { offset: 0xF6B9B, size: 0x8, addend: 0x0, symName: '__ZN146_$LT$core..ops..range..Range$LT$usize$GT$$u20$as$u20$core..iter..adapters..step_by..SpecRangeSetup$LT$core..ops..range..Range$LT$usize$GT$$GT$$GT$5setup17h7caed0772b373b3fE', symObjAddr: 0x0, symBinAddr: 0x2C650, symSize: 0x110 }
  - { offset: 0xF6BCE, size: 0x8, addend: 0x0, symName: '__ZN127_$LT$pyo3..instance..Bound$LT$pyo3..types..traceback..PyTraceback$GT$$u20$as$u20$pyo3..types..traceback..PyTracebackMethods$GT$6format8INTERNED17h01bd02d6740d5cb0E', symObjAddr: 0x4658, symBinAddr: 0x134520, symSize: 0x0 }
  - { offset: 0xF6BE8, size: 0x8, addend: 0x0, symName: '__ZN127_$LT$pyo3..instance..Bound$LT$pyo3..types..traceback..PyTraceback$GT$$u20$as$u20$pyo3..types..traceback..PyTracebackMethods$GT$6format8INTERNED17had219ce558dc25edE', symObjAddr: 0x4678, symBinAddr: 0x134540, symSize: 0x0 }
  - { offset: 0xF6C02, size: 0x8, addend: 0x0, symName: '__ZN127_$LT$pyo3..instance..Bound$LT$pyo3..types..traceback..PyTraceback$GT$$u20$as$u20$pyo3..types..traceback..PyTracebackMethods$GT$6format8INTERNED17he76b34ee722dd93aE', symObjAddr: 0x4698, symBinAddr: 0x134560, symSize: 0x0 }
  - { offset: 0xF8E4F, size: 0x8, addend: 0x0, symName: '__ZN4core3ptr8non_null16NonNull$LT$T$GT$13new_unchecked18precondition_check17h3c47b57abdcc9680E', symObjAddr: 0x1908, symBinAddr: 0x2D8BC, symSize: 0x58 }
  - { offset: 0xF977F, size: 0x8, addend: 0x0, symName: '__ZN90_$LT$core..ptr..non_null..NonNull$LT$T$GT$$u20$as$u20$core..convert..From$LT$$RF$T$GT$$GT$4from17h06b2ff8473befea9E', symObjAddr: 0x32D4, symBinAddr: 0x2E838, symSize: 0x14 }
  - { offset: 0xF97B6, size: 0x8, addend: 0x0, symName: '__ZN90_$LT$core..ptr..non_null..NonNull$LT$T$GT$$u20$as$u20$core..convert..From$LT$$RF$T$GT$$GT$4from17h0da9322b9fc4639bE', symObjAddr: 0x32FC, symBinAddr: 0x2E84C, symSize: 0x14 }
  - { offset: 0xF97ED, size: 0x8, addend: 0x0, symName: '__ZN90_$LT$core..ptr..non_null..NonNull$LT$T$GT$$u20$as$u20$core..convert..From$LT$$RF$T$GT$$GT$4from17h12867b8ab2a122c8E', symObjAddr: 0x3310, symBinAddr: 0x2E860, symSize: 0x14 }
  - { offset: 0xF9824, size: 0x8, addend: 0x0, symName: '__ZN90_$LT$core..ptr..non_null..NonNull$LT$T$GT$$u20$as$u20$core..convert..From$LT$$RF$T$GT$$GT$4from17h1af336e72ac952f0E', symObjAddr: 0x3324, symBinAddr: 0x2E874, symSize: 0x14 }
  - { offset: 0xF985B, size: 0x8, addend: 0x0, symName: '__ZN90_$LT$core..ptr..non_null..NonNull$LT$T$GT$$u20$as$u20$core..convert..From$LT$$RF$T$GT$$GT$4from17h2aecf229d9fe8b55E', symObjAddr: 0x334C, symBinAddr: 0x2E888, symSize: 0x14 }
  - { offset: 0xF9892, size: 0x8, addend: 0x0, symName: '__ZN90_$LT$core..ptr..non_null..NonNull$LT$T$GT$$u20$as$u20$core..convert..From$LT$$RF$T$GT$$GT$4from17h4da808cc8bcb8685E', symObjAddr: 0x3388, symBinAddr: 0x2E89C, symSize: 0x14 }
  - { offset: 0xF98C9, size: 0x8, addend: 0x0, symName: '__ZN90_$LT$core..ptr..non_null..NonNull$LT$T$GT$$u20$as$u20$core..convert..From$LT$$RF$T$GT$$GT$4from17h5c6f5b29abd40b98E', symObjAddr: 0x33B0, symBinAddr: 0x2E8B0, symSize: 0x14 }
  - { offset: 0xF9900, size: 0x8, addend: 0x0, symName: '__ZN90_$LT$core..ptr..non_null..NonNull$LT$T$GT$$u20$as$u20$core..convert..From$LT$$RF$T$GT$$GT$4from17ha0c6e843fdccbe3aE', symObjAddr: 0x33F0, symBinAddr: 0x2E8C4, symSize: 0x14 }
  - { offset: 0xF9937, size: 0x8, addend: 0x0, symName: '__ZN90_$LT$core..ptr..non_null..NonNull$LT$T$GT$$u20$as$u20$core..convert..From$LT$$RF$T$GT$$GT$4from17habb974a6d4a09c79E', symObjAddr: 0x3418, symBinAddr: 0x2E8D8, symSize: 0x14 }
  - { offset: 0xF996E, size: 0x8, addend: 0x0, symName: '__ZN90_$LT$core..ptr..non_null..NonNull$LT$T$GT$$u20$as$u20$core..convert..From$LT$$RF$T$GT$$GT$4from17hc68b4ef21cfadbf1E', symObjAddr: 0x3454, symBinAddr: 0x2E8EC, symSize: 0x14 }
  - { offset: 0xF99A5, size: 0x8, addend: 0x0, symName: '__ZN90_$LT$core..ptr..non_null..NonNull$LT$T$GT$$u20$as$u20$core..convert..From$LT$$RF$T$GT$$GT$4from17hd9811e75cc22779cE', symObjAddr: 0x347C, symBinAddr: 0x2E900, symSize: 0x14 }
  - { offset: 0xF99DC, size: 0x8, addend: 0x0, symName: '__ZN90_$LT$core..ptr..non_null..NonNull$LT$T$GT$$u20$as$u20$core..convert..From$LT$$RF$T$GT$$GT$4from17hf0f8d1de9b10d86cE', symObjAddr: 0x34B8, symBinAddr: 0x2E914, symSize: 0x14 }
  - { offset: 0xF9A13, size: 0x8, addend: 0x0, symName: '__ZN90_$LT$core..ptr..non_null..NonNull$LT$T$GT$$u20$as$u20$core..convert..From$LT$$RF$T$GT$$GT$4from17hf98dd81db0aafe38E', symObjAddr: 0x34E0, symBinAddr: 0x2E928, symSize: 0x14 }
  - { offset: 0xFA21A, size: 0x8, addend: 0x0, symName: __ZN4core3cmp3Ord3max17hc20b1958251f9fccE, symObjAddr: 0x1270, symBinAddr: 0x2D378, symSize: 0x74 }
  - { offset: 0xFA288, size: 0x8, addend: 0x0, symName: __ZN4core3cmp3Ord3min17hb88f7a3a5cceffa3E, symObjAddr: 0x12E4, symBinAddr: 0x2D3EC, symSize: 0x74 }
  - { offset: 0xFA3B1, size: 0x8, addend: 0x0, symName: '__ZN146_$LT$core..ops..range..Range$LT$usize$GT$$u20$as$u20$core..iter..adapters..step_by..SpecRangeSetup$LT$core..ops..range..Range$LT$usize$GT$$GT$$GT$5setup17h7caed0772b373b3fE', symObjAddr: 0x0, symBinAddr: 0x2C650, symSize: 0x110 }
  - { offset: 0xFA61D, size: 0x8, addend: 0x0, symName: '__ZN31_$LT$dyn$u20$core..any..Any$GT$12downcast_ref17h3f02b192e0cd6736E', symObjAddr: 0x118, symBinAddr: 0x2C760, symSize: 0xA4 }
  - { offset: 0xFA70E, size: 0x8, addend: 0x0, symName: '__ZN31_$LT$dyn$u20$core..any..Any$GT$12downcast_ref17h8857c41877d84a09E', symObjAddr: 0x1BC, symBinAddr: 0x2C804, symSize: 0xA4 }
  - { offset: 0xFA879, size: 0x8, addend: 0x0, symName: '__ZN54_$LT$dyn$u20$core..any..Any$u2b$core..marker..Send$GT$12downcast_ref17h363d6bd5464d664cE', symObjAddr: 0x2430, symBinAddr: 0x2DE14, symSize: 0x2C }
  - { offset: 0xFA8B0, size: 0x8, addend: 0x0, symName: '__ZN54_$LT$dyn$u20$core..any..Any$u2b$core..marker..Send$GT$12downcast_ref17hf2d677626b10042aE', symObjAddr: 0x245C, symBinAddr: 0x2DE40, symSize: 0x2C }
  - { offset: 0xFB672, size: 0x8, addend: 0x0, symName: '__ZN42_$LT$$RF$T$u20$as$u20$core..fmt..Debug$GT$3fmt17hcd9ad4fbd6f306ddE', symObjAddr: 0x10C0, symBinAddr: 0x2D308, symSize: 0x30 }
  - { offset: 0xFB6BE, size: 0x8, addend: 0x0, symName: '__ZN45_$LT$$LP$$RP$$u20$as$u20$core..fmt..Debug$GT$3fmt17h1d245ca5525d7208E', symObjAddr: 0x1120, symBinAddr: 0x2D338, symSize: 0x40 }
  - { offset: 0xFBB88, size: 0x8, addend: 0x0, symName: '__ZN53_$LT$core..fmt..Error$u20$as$u20$core..fmt..Debug$GT$3fmt17h92e4a55b328fde8dE', symObjAddr: 0x2388, symBinAddr: 0x2DDA0, symSize: 0x40 }
  - { offset: 0xFBBCD, size: 0x8, addend: 0x0, symName: '__ZN54_$LT$$BP$const$u20$T$u20$as$u20$core..fmt..Pointer$GT$3fmt28_$u7b$$u7b$closure$u7d$$u7d$17hcaa52174b0dcfbb7E', symObjAddr: 0x23FC, symBinAddr: 0x2DDE0, symSize: 0x34 }
  - { offset: 0xFC32E, size: 0x8, addend: 0x0, symName: __ZN4core4hash3sip9u8to64_le17ha70d339850211218E, symObjAddr: 0x1E8C, symBinAddr: 0x2DB60, symSize: 0x240 }
  - { offset: 0xFC4EB, size: 0x8, addend: 0x0, symName: '__ZN69_$LT$core..hash..sip..Sip13Rounds$u20$as$u20$core..hash..sip..Sip$GT$8c_rounds17ha324a6a427a31ec0E', symObjAddr: 0x26A0, symBinAddr: 0x2DE6C, symSize: 0x1A0 }
  - { offset: 0xFC660, size: 0x8, addend: 0x0, symName: '__ZN69_$LT$core..hash..sip..Sip13Rounds$u20$as$u20$core..hash..sip..Sip$GT$8d_rounds17hd9f57622974c9ea8E', symObjAddr: 0x2840, symBinAddr: 0x2E00C, symSize: 0x46C }
  - { offset: 0xFCA9D, size: 0x8, addend: 0x0, symName: '__ZN71_$LT$core..hash..sip..Hasher$LT$S$GT$$u20$as$u20$core..hash..Hasher$GT$5write17hef5533a9f1d34d50E', symObjAddr: 0x2CAC, symBinAddr: 0x2E478, symSize: 0x230 }
  - { offset: 0xFCC16, size: 0x8, addend: 0x0, symName: '__ZN71_$LT$core..hash..sip..Hasher$LT$S$GT$$u20$as$u20$core..hash..Hasher$GT$6finish17h851fe13bb02f119cE', symObjAddr: 0x2EDC, symBinAddr: 0x2E6A8, symSize: 0xA0 }
  - { offset: 0xFDABB, size: 0x8, addend: 0x0, symName: '__ZN9once_cell4sync17OnceCell$LT$T$GT$11get_or_init28_$u7b$$u7b$closure$u7d$$u7d$17heb749b506c3df1a0E', symObjAddr: 0x35C0, symBinAddr: 0x2E9C8, symSize: 0x38 }
  - { offset: 0xFDAFD, size: 0x8, addend: 0x0, symName: '__ZN9once_cell4sync17OnceCell$LT$T$GT$11get_or_init28_$u7b$$u7b$closure$u7d$$u7d$17hf0f4f2489161f0abE', symObjAddr: 0x35F8, symBinAddr: 0x2EA00, symSize: 0x34 }
  - { offset: 0xFE0F9, size: 0x8, addend: 0x0, symName: __ZN3std4sync6poison10map_result17h33d6b88215a3b104E, symObjAddr: 0x260, symBinAddr: 0x2C8A8, symSize: 0xC4 }
  - { offset: 0xFE18D, size: 0x8, addend: 0x0, symName: __ZN3std4sync6poison10map_result17h68c39eba95ce16a2E, symObjAddr: 0x324, symBinAddr: 0x2C96C, symSize: 0xC4 }
  - { offset: 0xFE221, size: 0x8, addend: 0x0, symName: __ZN3std4sync6poison10map_result17hbc5d40d734b99d57E, symObjAddr: 0x3E8, symBinAddr: 0x2CA30, symSize: 0xC4 }
  - { offset: 0xFE4AD, size: 0x8, addend: 0x0, symName: '__ZN76_$LT$std..sync..poison..PoisonError$LT$T$GT$$u20$as$u20$core..fmt..Debug$GT$3fmt17h96bc8a73e361f90eE', symObjAddr: 0x2F7C, symBinAddr: 0x2E748, symSize: 0x50 }
  - { offset: 0xFE4F0, size: 0x8, addend: 0x0, symName: '__ZN76_$LT$std..sync..poison..PoisonError$LT$T$GT$$u20$as$u20$core..fmt..Debug$GT$3fmt17h9ccf7b661e401e68E', symObjAddr: 0x2FCC, symBinAddr: 0x2E798, symSize: 0x50 }
  - { offset: 0xFE533, size: 0x8, addend: 0x0, symName: '__ZN76_$LT$std..sync..poison..PoisonError$LT$T$GT$$u20$as$u20$core..fmt..Debug$GT$3fmt17hee4dd9e763387cc5E', symObjAddr: 0x301C, symBinAddr: 0x2E7E8, symSize: 0x50 }
  - { offset: 0xFEA39, size: 0x8, addend: 0x0, symName: __ZN3std4sync6poison4Flag4done17h62a8be205f2ad627E, symObjAddr: 0x4AC, symBinAddr: 0x2CAF4, symSize: 0x8C }
  - { offset: 0xFEB27, size: 0x8, addend: 0x0, symName: __ZN3std4sync6poison4Flag5guard17hf1135c2bd8932545E, symObjAddr: 0x538, symBinAddr: 0x2CB80, symSize: 0xCC }
  - { offset: 0xFEC80, size: 0x8, addend: 0x0, symName: '__ZN3std6thread5local17LocalKey$LT$T$GT$4with17h0ab78c2811d9a8a2E', symObjAddr: 0x658, symBinAddr: 0x2CC4C, symSize: 0x50 }
  - { offset: 0xFECEB, size: 0x8, addend: 0x0, symName: '__ZN3std6thread5local17LocalKey$LT$T$GT$4with17h72556e0b9e62c449E', symObjAddr: 0x6A8, symBinAddr: 0x2CC9C, symSize: 0x4C }
  - { offset: 0xFED56, size: 0x8, addend: 0x0, symName: '__ZN3std6thread5local17LocalKey$LT$T$GT$4with17hf2daa829dba9e499E', symObjAddr: 0x73C, symBinAddr: 0x2CCE8, symSize: 0x48 }
  - { offset: 0xFEE0F, size: 0x8, addend: 0x0, symName: '__ZN3std6thread5local17LocalKey$LT$T$GT$8try_with17h2809ad39fb553a95E', symObjAddr: 0x784, symBinAddr: 0x2CD30, symSize: 0xD0 }
  - { offset: 0xFEF91, size: 0x8, addend: 0x0, symName: '__ZN3std6thread5local17LocalKey$LT$T$GT$8try_with17ha7c76f1e5ff4c642E', symObjAddr: 0x924, symBinAddr: 0x2CE00, symSize: 0xCC }
  - { offset: 0xFF11F, size: 0x8, addend: 0x0, symName: '__ZN3std6thread5local17LocalKey$LT$T$GT$8try_with17hbbe7fac15fbfdef9E', symObjAddr: 0xAC8, symBinAddr: 0x2CECC, symSize: 0xE8 }
  - { offset: 0xFF2A1, size: 0x8, addend: 0x0, symName: '__ZN3std6thread5local17LocalKey$LT$T$GT$8try_with17hd9d1d8be42370e5dE', symObjAddr: 0xC94, symBinAddr: 0x2CFB4, symSize: 0xCC }
  - { offset: 0xFF422, size: 0x8, addend: 0x0, symName: '__ZN3std6thread5local17LocalKey$LT$T$GT$8try_with17hdf63f87da834ccf8E', symObjAddr: 0xD60, symBinAddr: 0x2D080, symSize: 0xD8 }
  - { offset: 0xFF5A4, size: 0x8, addend: 0x0, symName: '__ZN3std6thread5local17LocalKey$LT$T$GT$8try_with17he010784477aa2acdE', symObjAddr: 0xE38, symBinAddr: 0x2D158, symSize: 0xD8 }
  - { offset: 0xFF726, size: 0x8, addend: 0x0, symName: '__ZN3std6thread5local17LocalKey$LT$T$GT$8try_with17he861dc5ac78611c4E', symObjAddr: 0xF10, symBinAddr: 0x2D230, symSize: 0xD8 }
  - { offset: 0xFF8FA, size: 0x8, addend: 0x0, symName: __ZN4core3fmt9Arguments17from_str_nonconst17hb0d6f10c520514c2E, symObjAddr: 0x1388, symBinAddr: 0x2D460, symSize: 0x28 }
  - { offset: 0xFF988, size: 0x8, addend: 0x0, symName: __ZN4core3fmt9Arguments23as_statically_known_str17h6814c50909fb48cdE, symObjAddr: 0x13B0, symBinAddr: 0x2D488, symSize: 0x104 }
  - { offset: 0xFFA96, size: 0x8, addend: 0x0, symName: __ZN4core3fmt9Arguments3new17h073f885d88ac9f03E, symObjAddr: 0x14B4, symBinAddr: 0x2D58C, symSize: 0x1C }
  - { offset: 0xFFAFC, size: 0x8, addend: 0x0, symName: __ZN4core3fmt9Arguments3new17h0b71d955263f9227E, symObjAddr: 0x14D0, symBinAddr: 0x2D5A8, symSize: 0x1C }
  - { offset: 0xFFB48, size: 0x8, addend: 0x0, symName: __ZN4core3fmt9Arguments3new17h13c745650a48e6deE, symObjAddr: 0x14EC, symBinAddr: 0x2D5C4, symSize: 0x1C }
  - { offset: 0xFFB94, size: 0x8, addend: 0x0, symName: __ZN4core3fmt9Arguments3new17h174a5ac0f60ee25dE, symObjAddr: 0x1508, symBinAddr: 0x2D5E0, symSize: 0x1C }
  - { offset: 0xFFC14, size: 0x8, addend: 0x0, symName: __ZN4core3fmt9Arguments3new17h23fb18186795277aE, symObjAddr: 0x1540, symBinAddr: 0x2D5FC, symSize: 0x1C }
  - { offset: 0xFFC60, size: 0x8, addend: 0x0, symName: __ZN4core3fmt9Arguments3new17h350f2f4b64ea572bE, symObjAddr: 0x155C, symBinAddr: 0x2D618, symSize: 0x1C }
  - { offset: 0xFFCAC, size: 0x8, addend: 0x0, symName: __ZN4core3fmt9Arguments3new17h4605ba66e741921cE, symObjAddr: 0x1594, symBinAddr: 0x2D634, symSize: 0x1C }
  - { offset: 0xFFD12, size: 0x8, addend: 0x0, symName: __ZN4core3fmt9Arguments3new17h5cafa499f4d60593E, symObjAddr: 0x15CC, symBinAddr: 0x2D650, symSize: 0x1C }
  - { offset: 0xFFD5E, size: 0x8, addend: 0x0, symName: __ZN4core3fmt9Arguments3new17h60be3955c63cca94E, symObjAddr: 0x15E8, symBinAddr: 0x2D66C, symSize: 0x1C }
  - { offset: 0xFFDAA, size: 0x8, addend: 0x0, symName: __ZN4core3fmt9Arguments3new17h64ff519867574547E, symObjAddr: 0x1604, symBinAddr: 0x2D688, symSize: 0x1C }
  - { offset: 0xFFE10, size: 0x8, addend: 0x0, symName: __ZN4core3fmt9Arguments3new17h6adfd4934f75352fE, symObjAddr: 0x1620, symBinAddr: 0x2D6A4, symSize: 0x1C }
  - { offset: 0xFFE5C, size: 0x8, addend: 0x0, symName: __ZN4core3fmt9Arguments3new17h72fa1e2556e433e6E, symObjAddr: 0x163C, symBinAddr: 0x2D6C0, symSize: 0x1C }
  - { offset: 0xFFE8E, size: 0x8, addend: 0x0, symName: __ZN4core3fmt9Arguments3new17h95d30caba6943a6fE, symObjAddr: 0x1658, symBinAddr: 0x2D6DC, symSize: 0x1C }
  - { offset: 0xFFEDA, size: 0x8, addend: 0x0, symName: __ZN4core3fmt9Arguments3new17ha008613a0196a808E, symObjAddr: 0x1674, symBinAddr: 0x2D6F8, symSize: 0x1C }
  - { offset: 0xFFF26, size: 0x8, addend: 0x0, symName: __ZN4core3fmt9Arguments3new17hac74c12645f9b85eE, symObjAddr: 0x1690, symBinAddr: 0x2D714, symSize: 0x1C }
  - { offset: 0xFFFDA, size: 0x8, addend: 0x0, symName: __ZN4core3fmt9Arguments3new17hd165a0cafbf9f116E, symObjAddr: 0x1700, symBinAddr: 0x2D730, symSize: 0x1C }
  - { offset: 0x100040, size: 0x8, addend: 0x0, symName: __ZN4core3fmt9Arguments3new17hd9415c2944408e30E, symObjAddr: 0x1738, symBinAddr: 0x2D74C, symSize: 0x1C }
  - { offset: 0x10008C, size: 0x8, addend: 0x0, symName: __ZN4core3fmt9Arguments3new17hdab1d7f8cdffe8f9E, symObjAddr: 0x1754, symBinAddr: 0x2D768, symSize: 0x1C }
  - { offset: 0x1000F2, size: 0x8, addend: 0x0, symName: __ZN4core3fmt9Arguments3new17he7aeece8ad24f5dfE, symObjAddr: 0x178C, symBinAddr: 0x2D784, symSize: 0x1C }
  - { offset: 0x100158, size: 0x8, addend: 0x0, symName: __ZN4core3fmt9Arguments3new17hf694d4ab8c2a38a7E, symObjAddr: 0x17C4, symBinAddr: 0x2D7A0, symSize: 0x1C }
  - { offset: 0x10018A, size: 0x8, addend: 0x0, symName: __ZN4core3fmt9Arguments8from_str17ha5bc382221ca10fcE, symObjAddr: 0x17E0, symBinAddr: 0x2D7BC, symSize: 0x20 }
  - { offset: 0x1001AD, size: 0x8, addend: 0x0, symName: __ZN4core3fmt9Formatter9write_fmt17hc5072e222ed0c394E, symObjAddr: 0x1800, symBinAddr: 0x2D7DC, symSize: 0xA4 }
  - { offset: 0x100228, size: 0x8, addend: 0x0, symName: '__ZN4core3ptr8non_null16NonNull$LT$T$GT$13new_unchecked17hbb2cdaedfad7dcadE', symObjAddr: 0x18CC, symBinAddr: 0x2D880, symSize: 0x3C }
  - { offset: 0x10027B, size: 0x8, addend: 0x0, symName: '__ZN4core3ptr8non_null16NonNull$LT$T$GT$3new17hb397f568bbd482a7E', symObjAddr: 0x1A10, symBinAddr: 0x2D914, symSize: 0x58 }
  - { offset: 0x10030B, size: 0x8, addend: 0x0, symName: '__ZN4core3ptr8non_null16NonNull$LT$T$GT$4cast17h2b6a9f1dbcc2f6b4E', symObjAddr: 0x1AA4, symBinAddr: 0x2D96C, symSize: 0x14 }
  - { offset: 0x10034D, size: 0x8, addend: 0x0, symName: '__ZN4core3ptr8non_null16NonNull$LT$T$GT$4cast17h3e934622a0cd10f2E', symObjAddr: 0x1AF4, symBinAddr: 0x2D980, symSize: 0x14 }
  - { offset: 0x1003B6, size: 0x8, addend: 0x0, symName: '__ZN4core3ptr8non_null16NonNull$LT$T$GT$4cast17h4d362d7af096986dE', symObjAddr: 0x1B58, symBinAddr: 0x2D994, symSize: 0x14 }
  - { offset: 0x100405, size: 0x8, addend: 0x0, symName: '__ZN4core3ptr8non_null16NonNull$LT$T$GT$4cast17h5bb03950791889f0E', symObjAddr: 0x1B94, symBinAddr: 0x2D9A8, symSize: 0x14 }
  - { offset: 0x100454, size: 0x8, addend: 0x0, symName: '__ZN4core3ptr8non_null16NonNull$LT$T$GT$4cast17h61df8450db45b0b8E', symObjAddr: 0x1BBC, symBinAddr: 0x2D9BC, symSize: 0x14 }
  - { offset: 0x100496, size: 0x8, addend: 0x0, symName: '__ZN4core3ptr8non_null16NonNull$LT$T$GT$4cast17h73f52e7e9243f7a2E', symObjAddr: 0x1BE4, symBinAddr: 0x2D9D0, symSize: 0x14 }
  - { offset: 0x1004E5, size: 0x8, addend: 0x0, symName: '__ZN4core3ptr8non_null16NonNull$LT$T$GT$4cast17h95823963fbfc88eaE', symObjAddr: 0x1BF8, symBinAddr: 0x2D9E4, symSize: 0x14 }
  - { offset: 0x100527, size: 0x8, addend: 0x0, symName: '__ZN4core3ptr8non_null16NonNull$LT$T$GT$4cast17h95fc83d4d535387cE', symObjAddr: 0x1C0C, symBinAddr: 0x2D9F8, symSize: 0x14 }
  - { offset: 0x100569, size: 0x8, addend: 0x0, symName: '__ZN4core3ptr8non_null16NonNull$LT$T$GT$4cast17h9785d1f6f4e3f64fE', symObjAddr: 0x1C20, symBinAddr: 0x2DA0C, symSize: 0x14 }
  - { offset: 0x1005B8, size: 0x8, addend: 0x0, symName: '__ZN4core3ptr8non_null16NonNull$LT$T$GT$4cast17h9bee8a0b3304ee67E', symObjAddr: 0x1C70, symBinAddr: 0x2DA20, symSize: 0x14 }
  - { offset: 0x1005FA, size: 0x8, addend: 0x0, symName: '__ZN4core3ptr8non_null16NonNull$LT$T$GT$4cast17hacf5dd80f8d8be9fE', symObjAddr: 0x1C84, symBinAddr: 0x2DA34, symSize: 0x14 }
  - { offset: 0x10062F, size: 0x8, addend: 0x0, symName: '__ZN4core3ptr8non_null16NonNull$LT$T$GT$4cast17hb13a0e3d0a2281c6E', symObjAddr: 0x1CAC, symBinAddr: 0x2DA48, symSize: 0x14 }
  - { offset: 0x100774, size: 0x8, addend: 0x0, symName: '__ZN4core3ptr8non_null16NonNull$LT$T$GT$4cast17hd5e29ffd44a450ebE', symObjAddr: 0x1D24, symBinAddr: 0x2DA5C, symSize: 0x14 }
  - { offset: 0x1007A9, size: 0x8, addend: 0x0, symName: '__ZN4core3ptr8non_null16NonNull$LT$T$GT$4cast17hef0704cae03e15daE', symObjAddr: 0x1D60, symBinAddr: 0x2DA70, symSize: 0x14 }
  - { offset: 0x1007EB, size: 0x8, addend: 0x0, symName: '__ZN4core3ptr8non_null16NonNull$LT$T$GT$4cast17hf52adff162261c84E', symObjAddr: 0x1D9C, symBinAddr: 0x2DA84, symSize: 0x14 }
  - { offset: 0x10082D, size: 0x8, addend: 0x0, symName: '__ZN4core3ptr8non_null16NonNull$LT$T$GT$4cast17hfae24954e7652966E', symObjAddr: 0x1DC4, symBinAddr: 0x2DA98, symSize: 0x14 }
  - { offset: 0x10086F, size: 0x8, addend: 0x0, symName: '__ZN4core3ptr8non_null16NonNull$LT$T$GT$4cast17hfd04417aff13d493E', symObjAddr: 0x1DD8, symBinAddr: 0x2DAAC, symSize: 0x14 }
  - { offset: 0x1008A4, size: 0x8, addend: 0x0, symName: '__ZN4core3ptr8non_null16NonNull$LT$T$GT$4cast17hfe0c8b2b94273480E', symObjAddr: 0x1DEC, symBinAddr: 0x2DAC0, symSize: 0x14 }
  - { offset: 0x1008E6, size: 0x8, addend: 0x0, symName: '__ZN4core4hash3sip15Hasher$LT$S$GT$5reset17h11ea0fa0164c7d9dE', symObjAddr: 0x1E00, symBinAddr: 0x2DAD4, symSize: 0x8C }
  - { offset: 0x10096C, size: 0x8, addend: 0x0, symName: '__ZN9once_cell4sync17OnceCell$LT$T$GT$11get_or_init17h366fbfe1f40b055aE', symObjAddr: 0x3534, symBinAddr: 0x2E93C, symSize: 0x44 }
  - { offset: 0x1009CB, size: 0x8, addend: 0x0, symName: '__ZN9once_cell4sync17OnceCell$LT$T$GT$11get_or_init17h711558fc063f19daE', symObjAddr: 0x3578, symBinAddr: 0x2E980, symSize: 0x48 }
  - { offset: 0x100A10, size: 0x8, addend: 0x0, symName: '__ZN9once_cell4sync17OnceCell$LT$T$GT$13get_unchecked17he951f9d0df63bb1eE', symObjAddr: 0x3698, symBinAddr: 0x2EA34, symSize: 0x24 }
  - { offset: 0x100A3C, size: 0x8, addend: 0x0, symName: '__ZN9once_cell4sync17OnceCell$LT$T$GT$13get_unchecked17hfbb8b5ee1bad5348E', symObjAddr: 0x36BC, symBinAddr: 0x2EA58, symSize: 0x24 }
  - { offset: 0x100A82, size: 0x8, addend: 0x0, symName: '__ZN9once_cell4sync17OnceCell$LT$T$GT$15get_or_try_init17h578d2b410938cbc8E', symObjAddr: 0x3C40, symBinAddr: 0x2EA7C, symSize: 0x150 }
  - { offset: 0x100AE6, size: 0x8, addend: 0x0, symName: '__ZN9once_cell4sync17OnceCell$LT$T$GT$15get_or_try_init17hc5d30b4c5701da3dE', symObjAddr: 0x3F58, symBinAddr: 0x2EBCC, symSize: 0x14C }
  - { offset: 0x100B4A, size: 0x8, addend: 0x0, symName: '__ZN9once_cell4sync17OnceCell$LT$T$GT$3get17h8acd59d26e71588fE', symObjAddr: 0x42BC, symBinAddr: 0x2ED18, symSize: 0x4C }
  - { offset: 0x100B76, size: 0x8, addend: 0x0, symName: '__ZN9once_cell4sync17OnceCell$LT$T$GT$3get17hddb7565fdf9515f1E', symObjAddr: 0x4354, symBinAddr: 0x2ED64, symSize: 0x4C }
  - { offset: 0x100E3F, size: 0x8, addend: 0x0, symName: '__ZN45_$LT$T$u20$as$u20$alloc..string..ToString$GT$9to_string17h46ce6f35888ce91aE', symObjAddr: 0xC38, symBinAddr: 0x2EF9C, symSize: 0x24 }
  - { offset: 0x100E76, size: 0x8, addend: 0x0, symName: '__ZN45_$LT$T$u20$as$u20$alloc..string..ToString$GT$9to_string17hf361df0435544e20E', symObjAddr: 0xD7C, symBinAddr: 0x2EFC0, symSize: 0x24 }
  - { offset: 0x100EB3, size: 0x8, addend: 0x0, symName: '__ZN49_$LT$T$u20$as$u20$alloc..string..SpecToString$GT$14spec_to_string17h8835597ac089bbbcE', symObjAddr: 0x1408, symBinAddr: 0x2F164, symSize: 0xF4 }
  - { offset: 0x100FA1, size: 0x8, addend: 0x0, symName: '__ZN76_$LT$alloc..string..String$u20$as$u20$core..convert..From$LT$$RF$str$GT$$GT$4from17h5a3ce2c36212cfc7E', symObjAddr: 0x56B0, symBinAddr: 0x30DF4, symSize: 0x50 }
  - { offset: 0x10108E, size: 0x8, addend: 0x0, symName: '__ZN55_$LT$$RF$str$u20$as$u20$alloc..string..SpecToString$GT$14spec_to_string17h40a222e3d80ef740E', symObjAddr: 0x4A24, symBinAddr: 0x30714, symSize: 0x5C }
  - { offset: 0x1011F3, size: 0x8, addend: 0x0, symName: '__ZN65_$LT$alloc..string..String$u20$as$u20$core..ops..deref..Deref$GT$5deref17ha73857524ca80c26E', symObjAddr: 0x5130, symBinAddr: 0x30B2C, symSize: 0x20 }
  - { offset: 0x1012B2, size: 0x8, addend: 0x0, symName: '__ZN58_$LT$alloc..string..String$u20$as$u20$core..fmt..Debug$GT$3fmt17hd995b5e68a20389dE', symObjAddr: 0x4A80, symBinAddr: 0x30770, symSize: 0x3C }
  - { offset: 0x10139E, size: 0x8, addend: 0x0, symName: '__ZN58_$LT$alloc..string..String$u20$as$u20$core..fmt..Write$GT$10write_char17h0a7a21bca6304a9eE', symObjAddr: 0x4ABC, symBinAddr: 0x307AC, symSize: 0x30 }
  - { offset: 0x1013DB, size: 0x8, addend: 0x0, symName: '__ZN58_$LT$alloc..string..String$u20$as$u20$core..fmt..Write$GT$9write_str17h1b24d187475a5066E', symObjAddr: 0x4AEC, symBinAddr: 0x307DC, symSize: 0x38 }
  - { offset: 0x10146C, size: 0x8, addend: 0x0, symName: '__ZN60_$LT$alloc..string..String$u20$as$u20$core..fmt..Display$GT$3fmt17h7afdf4e15de21628E', symObjAddr: 0x4F50, symBinAddr: 0x30A38, symSize: 0x3C }
  - { offset: 0x101B67, size: 0x8, addend: 0x0, symName: '__ZN66_$LT$T$u20$as$u20$alloc..ffi..c_str..CString..new..SpecNewImpl$GT$13spec_new_impl17h16cfc1c5fdfecc4bE', symObjAddr: 0x5150, symBinAddr: 0x30B4C, symSize: 0x12C }
  - { offset: 0x101C5E, size: 0x8, addend: 0x0, symName: '__ZN68_$LT$alloc..ffi..c_str..CString$u20$as$u20$core..ops..drop..Drop$GT$4drop17hd278cc002201166bE', symObjAddr: 0x527C, symBinAddr: 0x30C78, symSize: 0x70 }
  - { offset: 0x101CCA, size: 0x8, addend: 0x0, symName: '__ZN70_$LT$alloc..ffi..c_str..CString$u20$as$u20$core..ops..deref..Deref$GT$5deref17h3fb66acae84f5eaeE', symObjAddr: 0x5454, symBinAddr: 0x30CE8, symSize: 0x20 }
  - { offset: 0x101DF9, size: 0x8, addend: 0x0, symName: '__ZN5alloc3str83_$LT$impl$u20$core..borrow..Borrow$LT$str$GT$$u20$for$u20$alloc..string..String$GT$6borrow17he3291ed93ba4432eE', symObjAddr: 0x4B38, symBinAddr: 0x30828, symSize: 0x20 }
  - { offset: 0x10260E, size: 0x8, addend: 0x0, symName: '__ZN4core3ptr7mut_ptr31_$LT$impl$u20$$BP$mut$u20$T$GT$7is_null17h79009285c9ff03b6E', symObjAddr: 0x1CEC, symBinAddr: 0x2F28C, symSize: 0x18 }
  - { offset: 0x1029BF, size: 0x8, addend: 0x0, symName: '__ZN70_$LT$core..num..error..TryFromIntError$u20$as$u20$core..fmt..Debug$GT$3fmt17h2af1c66373df0ed4E', symObjAddr: 0x5474, symBinAddr: 0x30D08, symSize: 0x54 }
  - { offset: 0x102A89, size: 0x8, addend: 0x0, symName: '__ZN50_$LT$T$u20$as$u20$core..convert..Into$LT$U$GT$$GT$4into17h98d580d42398758fE', symObjAddr: 0x489C, symBinAddr: 0x30608, symSize: 0x2C }
  - { offset: 0x102AC9, size: 0x8, addend: 0x0, symName: '__ZN50_$LT$T$u20$as$u20$core..convert..Into$LT$U$GT$$GT$4into17hc62511bf5d104ccaE', symObjAddr: 0x48F4, symBinAddr: 0x30634, symSize: 0x14 }
  - { offset: 0x1040D2, size: 0x8, addend: 0x0, symName: '__ZN64_$LT$core..str..error..Utf8Error$u20$as$u20$core..fmt..Debug$GT$3fmt17hb98ba5f67047e873E', symObjAddr: 0x5020, symBinAddr: 0x30AA4, symSize: 0x88 }
  - { offset: 0x104587, size: 0x8, addend: 0x0, symName: '__ZN102_$LT$core..iter..adapters..map..Map$LT$I$C$F$GT$$u20$as$u20$core..iter..traits..iterator..Iterator$GT$4next17ha749bfb00b259bb8E', symObjAddr: 0x204, symBinAddr: 0x2EDB0, symSize: 0xB4 }
  - { offset: 0x104623, size: 0x8, addend: 0x0, symName: '__ZN102_$LT$core..iter..adapters..map..Map$LT$I$C$F$GT$$u20$as$u20$core..iter..traits..iterator..Iterator$GT$9size_hint17h7fabfff501a3b329E', symObjAddr: 0x3C0, symBinAddr: 0x2EE64, symSize: 0x24 }
  - { offset: 0x1046DF, size: 0x8, addend: 0x0, symName: __ZN4core4iter6traits8iterator8Iterator7collect17hf9374be3a9e7373cE, symObjAddr: 0x1EF8, symBinAddr: 0x2F2A4, symSize: 0x14 }
  - { offset: 0x10472C, size: 0x8, addend: 0x0, symName: '__ZN63_$LT$I$u20$as$u20$core..iter..traits..collect..IntoIterator$GT$9into_iter17hf8c0572a50d8961aE', symObjAddr: 0x4FF0, symBinAddr: 0x30A74, symSize: 0x30 }
  - { offset: 0x10523C, size: 0x8, addend: 0x0, symName: '__ZN36_$LT$T$u20$as$u20$core..any..Any$GT$7type_id17h7ee0931ac6b27473E', symObjAddr: 0x4BC, symBinAddr: 0x2EE88, symSize: 0x20 }
  - { offset: 0x105328, size: 0x8, addend: 0x0, symName: __ZN4core5alloc6layout6Layout25from_size_align_unchecked18precondition_check17h11762818b1de5750E, symObjAddr: 0x22F8, symBinAddr: 0x2F2B8, symSize: 0xBC }
  - { offset: 0x105487, size: 0x8, addend: 0x0, symName: '__ZN42_$LT$$RF$T$u20$as$u20$core..fmt..Debug$GT$3fmt17h6bcde617edc9f974E', symObjAddr: 0xAE4, symBinAddr: 0x2EF3C, symSize: 0x30 }
  - { offset: 0x1054CD, size: 0x8, addend: 0x0, symName: '__ZN42_$LT$$RF$T$u20$as$u20$core..fmt..Debug$GT$3fmt17h80b8e030ab7db156E', symObjAddr: 0xB14, symBinAddr: 0x2EF6C, symSize: 0x30 }
  - { offset: 0x105592, size: 0x8, addend: 0x0, symName: __ZN4core3fmt5Write9write_fmt17h3020101bca6e2d50E, symObjAddr: 0x1C84, symBinAddr: 0x2F258, symSize: 0x34 }
  - { offset: 0x1055DF, size: 0x8, addend: 0x0, symName: '__ZN75_$LT$$RF$mut$u20$W$u20$as$u20$core..fmt..Write..write_fmt..SpecWriteFmt$GT$14spec_write_fmt17h4f8cdcdefea29da1E', symObjAddr: 0x558C, symBinAddr: 0x30D5C, symSize: 0x98 }
  - { offset: 0x105688, size: 0x8, addend: 0x0, symName: '__ZN50_$LT$$BP$mut$u20$T$u20$as$u20$core..fmt..Debug$GT$3fmt17hab1a0418848ad80dE', symObjAddr: 0x4864, symBinAddr: 0x305D0, symSize: 0x38 }
  - { offset: 0x1056FA, size: 0x8, addend: 0x0, symName: '__ZN54_$LT$$BP$const$u20$T$u20$as$u20$core..fmt..Pointer$GT$3fmt17hdeffcda492b9d213E', symObjAddr: 0x4958, symBinAddr: 0x30648, symSize: 0xCC }
  - { offset: 0x1057FB, size: 0x8, addend: 0x0, symName: '__ZN47_$LT$$LP$$RP$$u20$as$u20$core..unit..IsUnit$GT$7is_unit17h2b90a6faf328d4d1E', symObjAddr: 0xDC4, symBinAddr: 0x2EFE4, symSize: 0xC }
  - { offset: 0x10587D, size: 0x8, addend: 0x0, symName: '__ZN4core5slice4iter87_$LT$impl$u20$core..iter..traits..collect..IntoIterator$u20$for$u20$$RF$$u5b$T$u5d$$GT$9into_iter17he1f144d46226539dE', symObjAddr: 0x24CC, symBinAddr: 0x2F374, symSize: 0x58 }
  - { offset: 0x105B17, size: 0x8, addend: 0x0, symName: __ZN4core5slice6memchr6memchr17h8895d0d0a4264060E, symObjAddr: 0x2524, symBinAddr: 0x2F3CC, symSize: 0x114 }
  - { offset: 0x105CBD, size: 0x8, addend: 0x0, symName: __ZN4pyo321interpreter_lifecycle5START17h3d1ad4265982de6aE, symObjAddr: 0x87D0, symBinAddr: 0x134580, symSize: 0x0 }
  - { offset: 0x105CCA, size: 0x8, addend: 0x0, symName: __ZN4pyo321interpreter_lifecycle10initialize17hd4b8acf574f115ddE, symObjAddr: 0x2920, symBinAddr: 0x2F6AC, symSize: 0x1C }
  - { offset: 0x105CE8, size: 0x8, addend: 0x0, symName: '__ZN4pyo321interpreter_lifecycle10initialize28_$u7b$$u7b$closure$u7d$$u7d$17h0b9a9aa456f971f4E', symObjAddr: 0x293C, symBinAddr: 0x2F6C8, symSize: 0x38 }
  - { offset: 0x105D1E, size: 0x8, addend: 0x0, symName: __ZN4pyo321interpreter_lifecycle18ensure_initialized17hc0c4ec6071a81a62E, symObjAddr: 0x2974, symBinAddr: 0x2F700, symSize: 0x38 }
  - { offset: 0x105D3C, size: 0x8, addend: 0x0, symName: '__ZN4pyo321interpreter_lifecycle18ensure_initialized28_$u7b$$u7b$closure$u7d$$u7d$17h3272590d302e1970E', symObjAddr: 0x29AC, symBinAddr: 0x2F738, symSize: 0x90 }
  - { offset: 0x105DB3, size: 0x8, addend: 0x0, symName: __ZN4pyo321interpreter_lifecycle23wait_for_initialization17h1278d1c0caf0223cE, symObjAddr: 0x2A3C, symBinAddr: 0x2F7C8, symSize: 0x24 }
  - { offset: 0x105DD1, size: 0x8, addend: 0x0, symName: '__ZN4pyo321interpreter_lifecycle23wait_for_initialization28_$u7b$$u7b$closure$u7d$$u7d$17h869c3583d657391bE', symObjAddr: 0x2A60, symBinAddr: 0x2F7EC, symSize: 0x78 }
  - { offset: 0x10603A, size: 0x8, addend: 0x0, symName: '__ZN4pyo35types5tuple74_$LT$impl$u20$pyo3..conversion..IntoPyObject$u20$for$u20$$LP$T0$C$$RP$$GT$13into_pyobject17h2781ca03e3eaf5d3E', symObjAddr: 0x4694, symBinAddr: 0x304F8, symSize: 0xD8 }
  - { offset: 0x1063C1, size: 0x8, addend: 0x0, symName: '__ZN4pyo34sync20GILOnceCell$LT$T$GT$3set28_$u7b$$u7b$closure$u7d$$u7d$17h41f017a1cb946d40E', symObjAddr: 0x3810, symBinAddr: 0x2FDE8, symSize: 0x134 }
  - { offset: 0x1064A0, size: 0x8, addend: 0x0, symName: '__ZN4pyo34sync20GILOnceCell$LT$T$GT$3set28_$u7b$$u7b$closure$u7d$$u7d$17hbf1d4ce0656bc281E', symObjAddr: 0x3944, symBinAddr: 0x2FF1C, symSize: 0xD0 }
  - { offset: 0x10658D, size: 0x8, addend: 0x0, symName: '__ZN4pyo34sync8Interned3get28_$u7b$$u7b$closure$u7d$$u7d$17hf71b215621e9692dE', symObjAddr: 0x3DC4, symBinAddr: 0x30034, symSize: 0x34 }
  - { offset: 0x106921, size: 0x8, addend: 0x0, symName: __ZN4pyo35impl_9pymethods11_call_clear17h3c8134a14d313f34E, symObjAddr: 0x40D4, symBinAddr: 0x3013C, symSize: 0x48 }
  - { offset: 0x106972, size: 0x8, addend: 0x0, symName: '__ZN4pyo35impl_9pymethods11_call_clear28_$u7b$$u7b$closure$u7d$$u7d$17ha964e3802a6ab2c5E', symObjAddr: 0x411C, symBinAddr: 0x30184, symSize: 0x10C }
  - { offset: 0x106A20, size: 0x8, addend: 0x0, symName: __ZN4pyo35impl_9pymethods16call_super_clear17h12c555985d70c4dbE, symObjAddr: 0x4268, symBinAddr: 0x30290, symSize: 0x268 }
  - { offset: 0x106C91, size: 0x8, addend: 0x0, symName: '__ZN47_$LT$T$u20$as$u20$pyo3..err..PyErrArguments$GT$9arguments17h34edce8492bf208cE', symObjAddr: 0xDD0, symBinAddr: 0x2EFF0, symSize: 0x128 }
  - { offset: 0x106D49, size: 0x8, addend: 0x0, symName: '__ZN47_$LT$T$u20$as$u20$pyo3..err..PyErrArguments$GT$9arguments17ha9cfef70bff6aeb6E', symObjAddr: 0xEF8, symBinAddr: 0x2F118, symSize: 0x4C }
  - { offset: 0x106E4D, size: 0x8, addend: 0x0, symName: '__ZN78_$LT$pyo3..err..cast_error..DisplayCastError$u20$as$u20$core..fmt..Display$GT$3fmt17hf953a8b3e7f07893E', symObjAddr: 0x5710, symBinAddr: 0x30E54, symSize: 0x244 }
  - { offset: 0x106F4D, size: 0x8, addend: 0x0, symName: '__ZN78_$LT$pyo3..err..cast_error..DisplayCastError$u20$as$u20$core..fmt..Display$GT$3fmt28_$u7b$$u7b$closure$u7d$$u7d$17h24408453b7c178a1E', symObjAddr: 0x5954, symBinAddr: 0x31098, symSize: 0x24 }
  - { offset: 0x106F91, size: 0x8, addend: 0x0, symName: '__ZN78_$LT$pyo3..err..cast_error..DisplayClassInfo$u20$as$u20$core..fmt..Display$GT$3fmt17h12983b672241f85eE', symObjAddr: 0x5978, symBinAddr: 0x310BC, symSize: 0x51C }
  - { offset: 0x1070CA, size: 0x8, addend: 0x0, symName: '__ZN78_$LT$pyo3..err..cast_error..DisplayClassInfo$u20$as$u20$core..fmt..Display$GT$3fmt28_$u7b$$u7b$closure$u7d$$u7d$17ha9f3eb5d3f64b580E', symObjAddr: 0x5E94, symBinAddr: 0x315D8, symSize: 0x1C }
  - { offset: 0x107107, size: 0x8, addend: 0x0, symName: '__ZN87_$LT$pyo3..err..cast_error..CastErrorArguments$u20$as$u20$pyo3..err..PyErrArguments$GT$9arguments17h2b44cf346feb0d9cE', symObjAddr: 0x5FBC, symBinAddr: 0x315F4, symSize: 0x1A0 }
  - { offset: 0x107200, size: 0x8, addend: 0x0, symName: '__ZN4pyo33err5impls83_$LT$impl$u20$pyo3..err..PyErrArguments$u20$for$u20$alloc..ffi..c_str..NulError$GT$9arguments17h28e895270b434fc8E', symObjAddr: 0x2DE8, symBinAddr: 0x2F8D4, symSize: 0xA4 }
  - { offset: 0x1073C8, size: 0x8, addend: 0x0, symName: __ZN4pyo310conversion15IntoPyObjectExt11into_py_any17h4c41c3bbb84e3bf5E, symObjAddr: 0x2638, symBinAddr: 0x2F4E0, symSize: 0x60 }
  - { offset: 0x107435, size: 0x8, addend: 0x0, symName: __ZN4pyo310conversion15IntoPyObjectExt17into_bound_py_any17h70cf987824ce6d9fE, symObjAddr: 0x2698, symBinAddr: 0x2F540, symSize: 0x60 }
  - { offset: 0x1074B7, size: 0x8, addend: 0x0, symName: '__ZN4pyo311conversions3std6string82_$LT$impl$u20$pyo3..conversion..FromPyObject$u20$for$u20$alloc..string..String$GT$7extract17hbf1b3600203bea77E', symObjAddr: 0x2750, symBinAddr: 0x2F5A0, symSize: 0x98 }
  - { offset: 0x107506, size: 0x8, addend: 0x0, symName: '__ZN4pyo311conversions3std6string82_$LT$impl$u20$pyo3..conversion..IntoPyObject$u20$for$u20$alloc..string..String$GT$13into_pyobject17h6ebd02155ace0dbaE', symObjAddr: 0x27E8, symBinAddr: 0x2F638, symSize: 0x74 }
  - { offset: 0x107842, size: 0x8, addend: 0x0, symName: '__ZN78_$LT$$u21$$u20$as$u20$std..sys..thread_local..native..lazy..DestroyedState$GT$13register_dtor17h37c8cc483588d0f4E', symObjAddr: 0x5700, symBinAddr: 0x30E44, symSize: 0x10 }
  - { offset: 0x108B54, size: 0x8, addend: 0x0, symName: '__ZN3std3sys12thread_local6native4lazy20Storage$LT$T$C$D$GT$11get_or_init17h2706448080ede462E', symObjAddr: 0x848, symBinAddr: 0x2EEA8, symSize: 0x94 }
  - { offset: 0x108D55, size: 0x8, addend: 0x0, symName: '__ZN3std3sys12thread_local6native4lazy20Storage$LT$T$C$D$GT$16get_or_init_slow17h12f05a586cb3c6b7E', symObjAddr: 0x8DC, symBinAddr: 0xBB758, symSize: 0x1D8 }
  - { offset: 0x109260, size: 0x8, addend: 0x0, symName: __ZN4pyo33err10cast_error13CastIntoError10into_inner17ha804b65eaf7135d5E, symObjAddr: 0x2AD8, symBinAddr: 0x2F864, symSize: 0x38 }
  - { offset: 0x109282, size: 0x8, addend: 0x0, symName: __ZN4pyo33err10cast_error13CastIntoError3new17h3a845e6819cda0fbE, symObjAddr: 0x2B10, symBinAddr: 0x2F89C, symSize: 0x1C }
  - { offset: 0x1092B2, size: 0x8, addend: 0x0, symName: __ZN4pyo33err10cast_error9CastError3new17hfbef226ae271ae84E, symObjAddr: 0x2B2C, symBinAddr: 0x2F8B8, symSize: 0x1C }
  - { offset: 0x109364, size: 0x8, addend: 0x0, symName: '__ZN4pyo34sync20GILOnceCell$LT$T$GT$15get_or_try_init17h8db0d6c57efa073eE', symObjAddr: 0x33A0, symBinAddr: 0x2F978, symSize: 0xCC }
  - { offset: 0x10943D, size: 0x8, addend: 0x0, symName: '__ZN4pyo34sync20GILOnceCell$LT$T$GT$15get_or_try_init17ha71abe51aa0c0a70E', symObjAddr: 0x346C, symBinAddr: 0x2FA44, symSize: 0xE8 }
  - { offset: 0x1094B7, size: 0x8, addend: 0x0, symName: '__ZN4pyo34sync20GILOnceCell$LT$T$GT$3get17h377508394d6535a6E', symObjAddr: 0x3554, symBinAddr: 0x2FB2C, symSize: 0xA8 }
  - { offset: 0x1094FB, size: 0x8, addend: 0x0, symName: '__ZN4pyo34sync20GILOnceCell$LT$T$GT$3get17h9894e9cb02d92508E', symObjAddr: 0x35FC, symBinAddr: 0x2FBD4, symSize: 0xA8 }
  - { offset: 0x10953F, size: 0x8, addend: 0x0, symName: '__ZN4pyo34sync20GILOnceCell$LT$T$GT$3set17h9413d46f3ac697bbE', symObjAddr: 0x36A4, symBinAddr: 0x2FC7C, symSize: 0xA0 }
  - { offset: 0x1095C3, size: 0x8, addend: 0x0, symName: '__ZN4pyo34sync20GILOnceCell$LT$T$GT$3set17heae8489d529191e1E', symObjAddr: 0x3744, symBinAddr: 0x2FD1C, symSize: 0xCC }
  - { offset: 0x10978A, size: 0x8, addend: 0x0, symName: '__ZN4pyo34sync20GILOnceCell$LT$T$GT$4init17h33e31116aae4d7faE', symObjAddr: 0x3A14, symBinAddr: 0xBB930, symSize: 0x198 }
  - { offset: 0x10988C, size: 0x8, addend: 0x0, symName: '__ZN4pyo34sync20GILOnceCell$LT$T$GT$4init17hac2658deaed6d523E', symObjAddr: 0x3BAC, symBinAddr: 0xBBAC8, symSize: 0x1D0 }
  - { offset: 0x10997D, size: 0x8, addend: 0x0, symName: __ZN4pyo34sync8Interned3get17h5cbc011ccf23ab3dE, symObjAddr: 0x3D7C, symBinAddr: 0x2FFEC, symSize: 0x48 }
  - { offset: 0x1099B8, size: 0x8, addend: 0x0, symName: __ZN4pyo35impl_9pymethods11PyMethodDef8into_raw17he6fe9e0a7c662177E, symObjAddr: 0x3FC0, symBinAddr: 0x30068, symSize: 0xD4 }
  - { offset: 0x109B40, size: 0x8, addend: 0x0, symName: __ZN5alloc3ffi5c_str7CString3new17hcdfe14c460ebeb55E, symObjAddr: 0x4B24, symBinAddr: 0x30814, symSize: 0x14 }
  - { offset: 0x109DE8, size: 0x8, addend: 0x0, symName: __ZN5alloc6string6String4push17h23d9b1886fd5d2d8E, symObjAddr: 0x4C34, symBinAddr: 0x30848, symSize: 0x114 }
  - { offset: 0x10A18A, size: 0x8, addend: 0x0, symName: __ZN5alloc6string6String8push_str17h7eba2fbb180b048bE, symObjAddr: 0x4D68, symBinAddr: 0x3095C, symSize: 0xDC }
  - { offset: 0x10AE76, size: 0x8, addend: 0x0, symName: __ZN5alloc3fmt6format17heb59684001e0b728E, symObjAddr: 0x78DC, symBinAddr: 0x3427C, symSize: 0xD8 }
  - { offset: 0x10AF3A, size: 0x8, addend: 0x0, symName: '__ZN5alloc3fmt6format28_$u7b$$u7b$closure$u7d$$u7d$17hca227e7947854d07E', symObjAddr: 0x79B4, symBinAddr: 0x34354, symSize: 0x30 }
  - { offset: 0x10C73A, size: 0x8, addend: 0x0, symName: '__ZN4core3str6traits54_$LT$impl$u20$core..cmp..PartialEq$u20$for$u20$str$GT$2eq17ha508b80e483c2906E', symObjAddr: 0x87C, symBinAddr: 0x319C0, symSize: 0x4C }
  - { offset: 0x10C853, size: 0x8, addend: 0x0, symName: __ZN4core4char7methods25encode_utf8_raw_unchecked17h0ed05d2240abe2cfE, symObjAddr: 0xC48, symBinAddr: 0x31A0C, symSize: 0x188 }
  - { offset: 0x10CA28, size: 0x8, addend: 0x0, symName: '__ZN100_$LT$core..array..iter..iter_inner..PolymorphicIter$LT$DATA$GT$$u20$as$u20$core..ops..drop..Drop$GT$4drop17h4e479c10e4d31310E', symObjAddr: 0x30, symBinAddr: 0x31794, symSize: 0x30 }
  - { offset: 0x10D2BC, size: 0x8, addend: 0x0, symName: '__ZN50_$LT$T$u20$as$u20$core..convert..Into$LT$U$GT$$GT$4into17ha6fc3e24e6449b8dE', symObjAddr: 0x7148, symBinAddr: 0x33AE8, symSize: 0x30 }
  - { offset: 0x10D70C, size: 0x8, addend: 0x0, symName: __ZN4core4hash11BuildHasher8hash_one17h8a476ca9ae2f5ac3E, symObjAddr: 0xDD0, symBinAddr: 0x31B94, symSize: 0x84 }
  - { offset: 0x10D777, size: 0x8, addend: 0x0, symName: __ZN4core4hash6Hasher11write_usize17h79a9e6eb4d311d31E, symObjAddr: 0xE54, symBinAddr: 0x31C18, symSize: 0x3C }
  - { offset: 0x10D7D7, size: 0x8, addend: 0x0, symName: __ZN4core4hash6Hasher19write_length_prefix17h5c1beb8b9b782ce9E, symObjAddr: 0xE90, symBinAddr: 0x31C54, symSize: 0x28 }
  - { offset: 0x10DACB, size: 0x8, addend: 0x0, symName: '__ZN4pyo33err5PyErr3new28_$u7b$$u7b$closure$u7d$$u7d$17h3b66aa6818f84a9eE', symObjAddr: 0x45B8, symBinAddr: 0x32C50, symSize: 0xC0 }
  - { offset: 0x10DB23, size: 0x8, addend: 0x0, symName: '__ZN4pyo33err5PyErr3new28_$u7b$$u7b$closure$u7d$$u7d$17h50ba7deb79ee3a3aE', symObjAddr: 0x48B4, symBinAddr: 0x32D10, symSize: 0xC8 }
  - { offset: 0x10DB7B, size: 0x8, addend: 0x0, symName: '__ZN4pyo33err5PyErr3new28_$u7b$$u7b$closure$u7d$$u7d$17h68d36b97d380a377E', symObjAddr: 0x4C60, symBinAddr: 0x32DD8, symSize: 0xC0 }
  - { offset: 0x10DBD3, size: 0x8, addend: 0x0, symName: '__ZN4pyo33err5PyErr3new28_$u7b$$u7b$closure$u7d$$u7d$17h8fde72831be25693E', symObjAddr: 0x510C, symBinAddr: 0x32E98, symSize: 0xC0 }
  - { offset: 0x10DC2B, size: 0x8, addend: 0x0, symName: '__ZN4pyo33err5PyErr3new28_$u7b$$u7b$closure$u7d$$u7d$17h93479e008058def1E', symObjAddr: 0x528C, symBinAddr: 0x32F58, symSize: 0xC0 }
  - { offset: 0x10DC83, size: 0x8, addend: 0x0, symName: '__ZN4pyo33err5PyErr3new28_$u7b$$u7b$closure$u7d$$u7d$17h9e14013fe62fa059E', symObjAddr: 0x558C, symBinAddr: 0x33018, symSize: 0xD4 }
  - { offset: 0x10DCDC, size: 0x8, addend: 0x0, symName: '__ZN4pyo33err5PyErr3new28_$u7b$$u7b$closure$u7d$$u7d$17hab3713e7bbb8b7d0E', symObjAddr: 0x58AC, symBinAddr: 0x330EC, symSize: 0xD4 }
  - { offset: 0x10DD35, size: 0x8, addend: 0x0, symName: '__ZN4pyo33err5PyErr3new28_$u7b$$u7b$closure$u7d$$u7d$17he29df2bd6d781f27E', symObjAddr: 0x5BA0, symBinAddr: 0x331C0, symSize: 0xD4 }
  - { offset: 0x10DD8E, size: 0x8, addend: 0x0, symName: '__ZN4pyo33err5PyErr3new28_$u7b$$u7b$closure$u7d$$u7d$17he6e985e67b5d7e5fE', symObjAddr: 0x5C74, symBinAddr: 0x33294, symSize: 0xD4 }
  - { offset: 0x10DDE7, size: 0x8, addend: 0x0, symName: '__ZN4pyo33err5PyErr3new28_$u7b$$u7b$closure$u7d$$u7d$17hf66f3678ecab75a9E', symObjAddr: 0x5E1C, symBinAddr: 0x33368, symSize: 0xD4 }
  - { offset: 0x10DE46, size: 0x8, addend: 0x0, symName: '__ZN4pyo33err5PyErr22print_panic_and_unwind28_$u7b$$u7b$closure$u7d$$u7d$17hf14576441919ff8dE', symObjAddr: 0x28C8, symBinAddr: 0x32538, symSize: 0x7C }
  - { offset: 0x10DE7F, size: 0x8, addend: 0x0, symName: '__ZN4pyo33err5PyErr22print_panic_and_unwind28_$u7b$$u7b$closure$u7d$$u7d$17hf3c666c9be859e68E', symObjAddr: 0x2944, symBinAddr: 0x325B4, symSize: 0x64 }
  - { offset: 0x10DEC9, size: 0x8, addend: 0x0, symName: '__ZN4pyo33err5PyErr9set_cause28_$u7b$$u7b$closure$u7d$$u7d$17hc480d7f182155738E', symObjAddr: 0x65B8, symBinAddr: 0x339E4, symSize: 0x38 }
  - { offset: 0x10DF53, size: 0x8, addend: 0x0, symName: '__ZN4pyo33err10cast_error106_$LT$impl$u20$core..convert..From$LT$pyo3..err..cast_error..CastError$GT$$u20$for$u20$pyo3..err..PyErr$GT$4from17h4c28b37afe871d6fE', symObjAddr: 0x140C, symBinAddr: 0x31DEC, symSize: 0xE0 }
  - { offset: 0x10DFA2, size: 0x8, addend: 0x0, symName: '__ZN4pyo33err10cast_error110_$LT$impl$u20$core..convert..From$LT$pyo3..err..cast_error..CastIntoError$GT$$u20$for$u20$pyo3..err..PyErr$GT$4from17h0e66c8db028db4aeE', symObjAddr: 0x14EC, symBinAddr: 0x31ECC, symSize: 0xF8 }
  - { offset: 0x10E05B, size: 0x8, addend: 0x0, symName: '__ZN47_$LT$T$u20$as$u20$pyo3..err..PyErrArguments$GT$9arguments17h88571fd8fd211fefE', symObjAddr: 0x388, symBinAddr: 0x31864, symSize: 0x11C }
  - { offset: 0x10E113, size: 0x8, addend: 0x0, symName: '__ZN47_$LT$T$u20$as$u20$pyo3..err..PyErrArguments$GT$9arguments17hc557faff32ad922dE', symObjAddr: 0x4A4, symBinAddr: 0x31980, symSize: 0x40 }
  - { offset: 0x10ECCC, size: 0x8, addend: 0x0, symName: __ZN4pyo33err15failed_to_fetch17h8ba6d66d9faed7f2E, symObjAddr: 0x17C0, symBinAddr: 0xBBC98, symSize: 0x18 }
  - { offset: 0x10ECEA, size: 0x8, addend: 0x0, symName: __ZN4pyo33err17error_on_minusone17h15c29a0e4eaeec41E, symObjAddr: 0x17D8, symBinAddr: 0x31FC4, symSize: 0xC8 }
  - { offset: 0x10ED46, size: 0x8, addend: 0x0, symName: '__ZN4pyo33err5impls101_$LT$impl$u20$core..convert..From$LT$alloc..ffi..c_str..NulError$GT$$u20$for$u20$pyo3..err..PyErr$GT$4from17hb86802d25169de92E', symObjAddr: 0x6618, symBinAddr: 0x33A44, symSize: 0x34 }
  - { offset: 0x10ED7A, size: 0x8, addend: 0x0, symName: '__ZN53_$LT$pyo3..err..PyErr$u20$as$u20$core..fmt..Debug$GT$3fmt17h126dff93710622f6E', symObjAddr: 0x7178, symBinAddr: 0x33B18, symSize: 0x40 }
  - { offset: 0x10EDBC, size: 0x8, addend: 0x0, symName: '__ZN53_$LT$pyo3..err..PyErr$u20$as$u20$core..fmt..Debug$GT$3fmt28_$u7b$$u7b$closure$u7d$$u7d$17h8c4df70ea8d6ff8dE', symObjAddr: 0x71B8, symBinAddr: 0x33B58, symSize: 0x178 }
  - { offset: 0x10EE20, size: 0x8, addend: 0x0, symName: '__ZN53_$LT$pyo3..err..PyErr$u20$as$u20$core..fmt..Debug$GT$3fmt28_$u7b$$u7b$closure$u7d$$u7d$28_$u7b$$u7b$closure$u7d$$u7d$17h5ff997084caf005eE', symObjAddr: 0x7330, symBinAddr: 0x33CD0, symSize: 0x1AC }
  - { offset: 0x10EF16, size: 0x8, addend: 0x0, symName: '__ZN55_$LT$pyo3..err..PyErr$u20$as$u20$core..fmt..Display$GT$3fmt17h95392d579ead3655E', symObjAddr: 0x74DC, symBinAddr: 0x33E7C, symSize: 0x34 }
  - { offset: 0x10EF58, size: 0x8, addend: 0x0, symName: '__ZN55_$LT$pyo3..err..PyErr$u20$as$u20$core..fmt..Display$GT$3fmt28_$u7b$$u7b$closure$u7d$$u7d$17h54febf66598848b9E', symObjAddr: 0x7510, symBinAddr: 0x33EB0, symSize: 0x3B0 }
  - { offset: 0x10F0C1, size: 0x8, addend: 0x0, symName: '__ZN55_$LT$pyo3..err..PyErr$u20$as$u20$core..fmt..Display$GT$3fmt28_$u7b$$u7b$closure$u7d$$u7d$28_$u7b$$u7b$closure$u7d$$u7d$17h0862df4723ca9478E', symObjAddr: 0x78C0, symBinAddr: 0x34260, symSize: 0x1C }
  - { offset: 0x10F663, size: 0x8, addend: 0x0, symName: '__ZN4pyo36pycell101_$LT$impl$u20$core..convert..From$LT$pyo3..pycell..PyBorrowError$GT$$u20$for$u20$pyo3..err..PyErr$GT$4from17hb17b57319bcf06e5E', symObjAddr: 0x6FDC, symBinAddr: 0x33A78, symSize: 0x38 }
  - { offset: 0x10F6A3, size: 0x8, addend: 0x0, symName: '__ZN4pyo36pycell104_$LT$impl$u20$core..convert..From$LT$pyo3..pycell..PyBorrowMutError$GT$$u20$for$u20$pyo3..err..PyErr$GT$4from17h87ece2a3db627254E', symObjAddr: 0x7014, symBinAddr: 0x33AB0, symSize: 0x38 }
  - { offset: 0x10FB28, size: 0x8, addend: 0x0, symName: '__ZN3std4hash6random11RandomState3new28_$u7b$$u7b$closure$u7d$$u7d$17h673dd4c22454b26fE', symObjAddr: 0x2C4, symBinAddr: 0x317C4, symSize: 0x2C }
  - { offset: 0x10FBE4, size: 0x8, addend: 0x0, symName: __ZN3std4hash6random11RandomState3new4KEYS27__rust_std_internal_init_fn17h6ceb9d0521271782E, symObjAddr: 0x2F0, symBinAddr: 0x317F0, symSize: 0x24 }
  - { offset: 0x10FC06, size: 0x8, addend: 0x0, symName: '__ZN3std4hash6random11RandomState3new4KEYS29_$u7b$$u7b$constant$u7d$$u7d$28_$u7b$$u7b$closure$u7d$$u7d$17haede40f2f66e57eeE', symObjAddr: 0x314, symBinAddr: 0x31814, symSize: 0x34 }
  - { offset: 0x10FC53, size: 0x8, addend: 0x0, symName: '__ZN71_$LT$std..hash..random..DefaultHasher$u20$as$u20$core..hash..Hasher$GT$5write17h7e0c3030dffe1a52E', symObjAddr: 0x79E4, symBinAddr: 0x34384, symSize: 0x2C }
  - { offset: 0x10FCAD, size: 0x8, addend: 0x0, symName: '__ZN71_$LT$std..hash..random..DefaultHasher$u20$as$u20$core..hash..Hasher$GT$6finish17h63a3e920885ae5ffE', symObjAddr: 0x7A10, symBinAddr: 0x343B0, symSize: 0x20 }
  - { offset: 0x10FCFB, size: 0x8, addend: 0x0, symName: '__ZN74_$LT$std..hash..random..RandomState$u20$as$u20$core..hash..BuildHasher$GT$12build_hasher17hb2ab250d7f954d34E', symObjAddr: 0x7A30, symBinAddr: 0x343D0, symSize: 0xCC }
  - { offset: 0x110615, size: 0x8, addend: 0x0, symName: __ZN8pyo3_ffi10listobject12PyList_Check17hb8e851c079882cf5E, symObjAddr: 0x7AFC, symBinAddr: 0x3449C, symSize: 0x30 }
  - { offset: 0x110647, size: 0x8, addend: 0x0, symName: __ZN8pyo3_ffi8pyerrors22PyExceptionClass_Check17hd9f12228ed5432c6E, symObjAddr: 0x8024, symBinAddr: 0x344CC, symSize: 0x60 }
  - { offset: 0x110673, size: 0x8, addend: 0x0, symName: __ZN8pyo3_ffi8pyerrors25PyExceptionInstance_Check17hebe5f79ec0575e7bE, symObjAddr: 0x8084, symBinAddr: 0x3452C, symSize: 0x30 }
  - { offset: 0x110C6A, size: 0x8, addend: 0x0, symName: __ZN3std6thread6thread6Thread2id17h79de86920485ed64E, symObjAddr: 0x348, symBinAddr: 0x31848, symSize: 0x1C }
  - { offset: 0x110F8C, size: 0x8, addend: 0x0, symName: '__ZN4core5array4iter10iter_inner78PolymorphicIter$LT$$u5b$core..mem..maybe_uninit..MaybeUninit$LT$T$GT$$u5d$$GT$4next17h1eb171df21bf6e6eE', symObjAddr: 0xEB8, symBinAddr: 0x31C7C, symSize: 0x170 }
  - { offset: 0x111311, size: 0x8, addend: 0x0, symName: __ZN4pyo33err5PyErr10from_state17hbc517e091107fe2dE, symObjAddr: 0x1A30, symBinAddr: 0x3208C, symSize: 0x30 }
  - { offset: 0x111335, size: 0x8, addend: 0x0, symName: __ZN4pyo33err5PyErr10from_value17h01c31eccacc2e0a7E, symObjAddr: 0x1A60, symBinAddr: 0x320BC, symSize: 0x1B4 }
  - { offset: 0x1113D2, size: 0x8, addend: 0x0, symName: __ZN4pyo33err5PyErr10into_value17he32ea34038e0aa7aE, symObjAddr: 0x1C14, symBinAddr: 0x32270, symSize: 0x128 }
  - { offset: 0x11145A, size: 0x8, addend: 0x0, symName: __ZN4pyo33err5PyErr10normalized17h117982764cac3c64E, symObjAddr: 0x1D3C, symBinAddr: 0x32398, symSize: 0x24 }
  - { offset: 0x1114A5, size: 0x8, addend: 0x0, symName: __ZN4pyo33err5PyErr11is_instance17he24b99b5c8044bc4E, symObjAddr: 0x1D60, symBinAddr: 0x323BC, symSize: 0xA0 }
  - { offset: 0x11152F, size: 0x8, addend: 0x0, symName: __ZN4pyo33err5PyErr14is_instance_of17hca5ae8ef0672e0b0E, symObjAddr: 0x2440, symBinAddr: 0x3245C, symSize: 0x84 }
  - { offset: 0x111576, size: 0x8, addend: 0x0, symName: __ZN4pyo33err5PyErr16write_unraisable17h00b94ddf71e1acfbE, symObjAddr: 0x2650, symBinAddr: 0x324E0, symSize: 0x58 }
  - { offset: 0x1115D1, size: 0x8, addend: 0x0, symName: __ZN4pyo33err5PyErr22print_panic_and_unwind17h7ca7a95854cecbf9E, symObjAddr: 0x26A8, symBinAddr: 0xBBCB0, symSize: 0x220 }
  - { offset: 0x111653, size: 0x8, addend: 0x0, symName: __ZN4pyo33err5PyErr3new17h0634b0f69882fedaE, symObjAddr: 0x29E4, symBinAddr: 0x32618, symSize: 0xA0 }
  - { offset: 0x1116B2, size: 0x8, addend: 0x0, symName: __ZN4pyo33err5PyErr3new17h13aac3530cf919caE, symObjAddr: 0x2A84, symBinAddr: 0x326B8, symSize: 0x9C }
  - { offset: 0x111710, size: 0x8, addend: 0x0, symName: __ZN4pyo33err5PyErr3new17h1e0c268f6579a7a5E, symObjAddr: 0x2B20, symBinAddr: 0x32754, symSize: 0x9C }
  - { offset: 0x11176E, size: 0x8, addend: 0x0, symName: __ZN4pyo33err5PyErr3new17h46328318db800582E, symObjAddr: 0x2CE8, symBinAddr: 0x327F0, symSize: 0xA8 }
  - { offset: 0x1117CC, size: 0x8, addend: 0x0, symName: __ZN4pyo33err5PyErr3new17h5054f01d27c470fbE, symObjAddr: 0x2EA0, symBinAddr: 0x32898, symSize: 0xA0 }
  - { offset: 0x11182B, size: 0x8, addend: 0x0, symName: __ZN4pyo33err5PyErr3new17h5898941744e3506eE, symObjAddr: 0x2FAC, symBinAddr: 0x32938, symSize: 0xA0 }
  - { offset: 0x11188A, size: 0x8, addend: 0x0, symName: __ZN4pyo33err5PyErr3new17h800c7e596d0c6618E, symObjAddr: 0x3488, symBinAddr: 0x329D8, symSize: 0x9C }
  - { offset: 0x1118E8, size: 0x8, addend: 0x0, symName: __ZN4pyo33err5PyErr3new17hb644ca57798dc047E, symObjAddr: 0x374C, symBinAddr: 0x32A74, symSize: 0xA0 }
  - { offset: 0x111947, size: 0x8, addend: 0x0, symName: __ZN4pyo33err5PyErr3new17hb7de1f87161884b8E, symObjAddr: 0x37EC, symBinAddr: 0x32B14, symSize: 0x9C }
  - { offset: 0x1119A5, size: 0x8, addend: 0x0, symName: __ZN4pyo33err5PyErr3new17hda9aa971676e9931E, symObjAddr: 0x3B8C, symBinAddr: 0x32BB0, symSize: 0xA0 }
  - { offset: 0x1119F7, size: 0x8, addend: 0x0, symName: __ZN4pyo33err5PyErr4take17hf471484ce817aab1E, symObjAddr: 0x5EF0, symBinAddr: 0x3343C, symSize: 0x13C }
  - { offset: 0x111A78, size: 0x8, addend: 0x0, symName: __ZN4pyo33err5PyErr5cause17he24006e9326d7de1E, symObjAddr: 0x60A0, symBinAddr: 0x33578, symSize: 0x44 }
  - { offset: 0x111AD4, size: 0x8, addend: 0x0, symName: __ZN4pyo33err5PyErr5fetch17h143f5ce0969e9a5fE, symObjAddr: 0x60E4, symBinAddr: 0x335BC, symSize: 0x3C }
  - { offset: 0x111B10, size: 0x8, addend: 0x0, symName: __ZN4pyo33err5PyErr5value17h6d4d297dc8c7113eE, symObjAddr: 0x615C, symBinAddr: 0x335F8, symSize: 0x28 }
  - { offset: 0x111B4B, size: 0x8, addend: 0x0, symName: __ZN4pyo33err5PyErr7restore17h2d22ae46fe2e05dfE, symObjAddr: 0x61B0, symBinAddr: 0x33620, symSize: 0x38 }
  - { offset: 0x111B8A, size: 0x8, addend: 0x0, symName: __ZN4pyo33err5PyErr8get_type17h835a4c366c8addcaE, symObjAddr: 0x61E8, symBinAddr: 0x33658, symSize: 0x28 }
  - { offset: 0x111BD2, size: 0x8, addend: 0x0, symName: __ZN4pyo33err5PyErr8new_type17h2f3798cd61e5d88fE, symObjAddr: 0x6210, symBinAddr: 0x33680, symSize: 0x200 }
  - { offset: 0x111D09, size: 0x8, addend: 0x0, symName: __ZN4pyo33err5PyErr9set_cause17h5c7dc6f2f9d6ff4cE, symObjAddr: 0x6454, symBinAddr: 0x33880, symSize: 0x164 }
  - { offset: 0x111D99, size: 0x8, addend: 0x0, symName: __ZN4pyo33err5PyErr9traceback17hcaa15befe706d0cdE, symObjAddr: 0x65F0, symBinAddr: 0x33A1C, symSize: 0x28 }
  - { offset: 0x111FD0, size: 0x8, addend: 0x0, symName: '__ZN103_$LT$alloc..vec..into_iter..IntoIter$LT$T$C$A$GT$$u20$as$u20$core..iter..traits..iterator..Iterator$GT$4next17ha7cf220065a32066E', symObjAddr: 0x0, symBinAddr: 0x3455C, symSize: 0xA8 }
  - { offset: 0x112011, size: 0x8, addend: 0x0, symName: '__ZN3std4sync4once4Once15call_once_force28_$u7b$$u7b$closure$u7d$$u7d$17h45e349505c36a24aE', symObjAddr: 0x9F0, symBinAddr: 0x34E70, symSize: 0x68 }
  - { offset: 0x1120A3, size: 0x8, addend: 0x0, symName: '__ZN3std4sync4once4Once15call_once_force28_$u7b$$u7b$closure$u7d$$u7d$17h761d9dec291b3725E', symObjAddr: 0xA58, symBinAddr: 0x34ED8, symSize: 0x84 }
  - { offset: 0x112135, size: 0x8, addend: 0x0, symName: '__ZN3std4sync4once4Once15call_once_force28_$u7b$$u7b$closure$u7d$$u7d$17ha47238cc319b2c58E', symObjAddr: 0xADC, symBinAddr: 0x34F5C, symSize: 0x84 }
  - { offset: 0x1121C7, size: 0x8, addend: 0x0, symName: '__ZN3std4sync4once4Once15call_once_force28_$u7b$$u7b$closure$u7d$$u7d$17hc7ad5763a18b5d0cE', symObjAddr: 0xB60, symBinAddr: 0x34FE0, symSize: 0x68 }
  - { offset: 0x112259, size: 0x8, addend: 0x0, symName: '__ZN3std4sync4once4Once15call_once_force28_$u7b$$u7b$closure$u7d$$u7d$17hcdb92d2ee8e348f5E', symObjAddr: 0xBC8, symBinAddr: 0x35048, symSize: 0x84 }
  - { offset: 0x1122F1, size: 0x8, addend: 0x0, symName: '__ZN3std4sync4once4Once9call_once28_$u7b$$u7b$closure$u7d$$u7d$17h47871d3f309839c4E', symObjAddr: 0xEF8, symBinAddr: 0x35378, symSize: 0x60 }
  - { offset: 0x11237F, size: 0x8, addend: 0x0, symName: '__ZN3std4sync4once4Once9call_once28_$u7b$$u7b$closure$u7d$$u7d$17h552710a708738499E', symObjAddr: 0xF58, symBinAddr: 0x353D8, symSize: 0x60 }
  - { offset: 0x11240D, size: 0x8, addend: 0x0, symName: '__ZN3std4sync4once4Once9call_once28_$u7b$$u7b$closure$u7d$$u7d$17he623aa5394aaca3eE', symObjAddr: 0xFB8, symBinAddr: 0x35438, symSize: 0x68 }
  - { offset: 0x113DD3, size: 0x8, addend: 0x0, symName: '__ZN145_$LT$core..option..Option$LT$T$GT$$u20$as$u20$core..ops..try_trait..FromResidual$LT$core..option..Option$LT$core..convert..Infallible$GT$$GT$$GT$13from_residual17h06522387038f2757E', symObjAddr: 0x3E8, symBinAddr: 0x348E4, symSize: 0x10 }
  - { offset: 0x114FE0, size: 0x8, addend: 0x0, symName: '__ZN66_$LT$core..option..Option$LT$T$GT$$u20$as$u20$core..fmt..Debug$GT$3fmt17ha5a00a7ae8ec770bE', symObjAddr: 0x58F4, symBinAddr: 0x3749C, symSize: 0xA0 }
  - { offset: 0x115044, size: 0x8, addend: 0x0, symName: '__ZN66_$LT$core..option..Option$LT$T$GT$$u20$as$u20$core..fmt..Debug$GT$3fmt17hf6ff1c4fbf953f60E', symObjAddr: 0x5994, symBinAddr: 0x3753C, symSize: 0x98 }
  - { offset: 0x1150AE, size: 0x8, addend: 0x0, symName: '__ZN72_$LT$core..option..Option$LT$T$GT$$u20$as$u20$core..default..Default$GT$7default17h21d03b82c9d82285E', symObjAddr: 0x5A2C, symBinAddr: 0x375D4, symSize: 0x8 }
  - { offset: 0x1150D6, size: 0x8, addend: 0x0, symName: '__ZN72_$LT$core..option..Option$LT$T$GT$$u20$as$u20$core..default..Default$GT$7default17h7f98be552509474dE', symObjAddr: 0x5A34, symBinAddr: 0x375DC, symSize: 0x8 }
  - { offset: 0x1150FE, size: 0x8, addend: 0x0, symName: '__ZN72_$LT$core..option..Option$LT$T$GT$$u20$as$u20$core..default..Default$GT$7default17hbb63196bf3b79aa1E', symObjAddr: 0x5A3C, symBinAddr: 0x375E4, symSize: 0x8 }
  - { offset: 0x115126, size: 0x8, addend: 0x0, symName: '__ZN72_$LT$core..option..Option$LT$T$GT$$u20$as$u20$core..default..Default$GT$7default17he95bd1b485c3c989E', symObjAddr: 0x5A4C, symBinAddr: 0x375EC, symSize: 0x8 }
  - { offset: 0x115154, size: 0x8, addend: 0x0, symName: '__ZN75_$LT$core..option..Option$LT$T$GT$$u20$as$u20$core..ops..try_trait..Try$GT$6branch17h8a919c26473696afE', symObjAddr: 0x5AD0, symBinAddr: 0x375F4, symSize: 0x40 }
  - { offset: 0x115557, size: 0x8, addend: 0x0, symName: '__ZN59_$LT$core..ffi..c_str..CStr$u20$as$u20$core..hash..Hash$GT$4hash17h600471e7fd08fd8bE', symObjAddr: 0x4F6C, symBinAddr: 0x36C04, symSize: 0x30 }
  - { offset: 0x11559C, size: 0x8, addend: 0x0, symName: '__ZN63_$LT$core..ffi..c_str..CStr$u20$as$u20$core..cmp..PartialEq$GT$2eq17h427fd97672e01b6eE', symObjAddr: 0x57B8, symBinAddr: 0x37450, symSize: 0x4C }
  - { offset: 0x1174CF, size: 0x8, addend: 0x0, symName: '__ZN115_$LT$core..iter..adapters..filter_map..FilterMap$LT$I$C$F$GT$$u20$as$u20$core..iter..traits..iterator..Iterator$GT$4next17h4a6a74728cb6bb49E', symObjAddr: 0x298, symBinAddr: 0x347F4, symSize: 0x2C }
  - { offset: 0x117516, size: 0x8, addend: 0x0, symName: '__ZN115_$LT$core..iter..adapters..filter_map..FilterMap$LT$I$C$F$GT$$u20$as$u20$core..iter..traits..iterator..Iterator$GT$4next17hea7ee3b0f2d637a9E', symObjAddr: 0x2C4, symBinAddr: 0x34820, symSize: 0x2C }
  - { offset: 0x11755D, size: 0x8, addend: 0x0, symName: '__ZN115_$LT$core..iter..adapters..filter_map..FilterMap$LT$I$C$F$GT$$u20$as$u20$core..iter..traits..iterator..Iterator$GT$9size_hint17h3e3de19e6f7a84adE', symObjAddr: 0x2F0, symBinAddr: 0x3484C, symSize: 0x4C }
  - { offset: 0x1175C1, size: 0x8, addend: 0x0, symName: '__ZN115_$LT$core..iter..adapters..filter_map..FilterMap$LT$I$C$F$GT$$u20$as$u20$core..iter..traits..iterator..Iterator$GT$9size_hint17heec80e8bfec7ce42E', symObjAddr: 0x33C, symBinAddr: 0x34898, symSize: 0x4C }
  - { offset: 0x1177C8, size: 0x8, addend: 0x0, symName: __ZN4core4iter6traits8iterator8Iterator7collect17h93b80790a090c60eE, symObjAddr: 0x13B8, symBinAddr: 0x3560C, symSize: 0x14 }
  - { offset: 0x117809, size: 0x8, addend: 0x0, symName: __ZN4core4iter6traits8iterator8Iterator7collect17hb453bfbed6ef0b01E, symObjAddr: 0x13CC, symBinAddr: 0x35620, symSize: 0x14 }
  - { offset: 0x117980, size: 0x8, addend: 0x0, symName: '__ZN63_$LT$I$u20$as$u20$core..iter..traits..collect..IntoIterator$GT$9into_iter17h437554aeb82d1063E', symObjAddr: 0x567C, symBinAddr: 0x37314, symSize: 0x30 }
  - { offset: 0x1179B8, size: 0x8, addend: 0x0, symName: '__ZN63_$LT$I$u20$as$u20$core..iter..traits..collect..IntoIterator$GT$9into_iter17ha799cb0312d5d12fE', symObjAddr: 0x56AC, symBinAddr: 0x37344, symSize: 0x30 }
  - { offset: 0x117A57, size: 0x8, addend: 0x0, symName: '__ZN4core5slice4iter87_$LT$impl$u20$core..iter..traits..collect..IntoIterator$u20$for$u20$$RF$$u5b$T$u5d$$GT$9into_iter17h3ebd212cdc17d4aaE', symObjAddr: 0x14C0, symBinAddr: 0x35714, symSize: 0x50 }
  - { offset: 0x117DFB, size: 0x8, addend: 0x0, symName: '__ZN42_$LT$$RF$T$u20$as$u20$core..fmt..Debug$GT$3fmt17h0ad65175ba7da99fE', symObjAddr: 0x1020, symBinAddr: 0x354A0, symSize: 0x30 }
  - { offset: 0x117F36, size: 0x8, addend: 0x0, symName: '__ZN4core3cmp5impls69_$LT$impl$u20$core..cmp..PartialEq$LT$$RF$B$GT$$u20$for$u20$$RF$A$GT$2eq17h4f2b57d05fb1cd89E', symObjAddr: 0x11DC, symBinAddr: 0x354D0, symSize: 0x44 }
  - { offset: 0x117FF1, size: 0x8, addend: 0x0, symName: '__ZN4core4hash5impls52_$LT$impl$u20$core..hash..Hash$u20$for$u20$$RF$T$GT$4hash17h449ee8bc03e2cfdfE', symObjAddr: 0x134C, symBinAddr: 0x355A0, symSize: 0x3C }
  - { offset: 0x11803C, size: 0x8, addend: 0x0, symName: '__ZN4core4hash5impls52_$LT$impl$u20$core..hash..Hash$u20$for$u20$$RF$T$GT$4hash17h52bea73fec0a86a0E', symObjAddr: 0x1388, symBinAddr: 0x355DC, symSize: 0x30 }
  - { offset: 0x11998A, size: 0x8, addend: 0x0, symName: __ZN8pyo3_ffi10dictobject12PyDict_Check17h14e55512f650f7d9E, symObjAddr: 0x5D1C, symBinAddr: 0x37710, symSize: 0x30 }
  - { offset: 0x119EE4, size: 0x8, addend: 0x0, symName: '__ZN103_$LT$alloc..vec..into_iter..IntoIter$LT$T$C$A$GT$$u20$as$u20$core..iter..traits..iterator..Iterator$GT$4next17ha7cf220065a32066E', symObjAddr: 0x0, symBinAddr: 0x3455C, symSize: 0xA8 }
  - { offset: 0x11A042, size: 0x8, addend: 0x0, symName: '__ZN103_$LT$alloc..vec..into_iter..IntoIter$LT$T$C$A$GT$$u20$as$u20$core..iter..traits..iterator..Iterator$GT$4next17hf956ffe1ab820729E', symObjAddr: 0xA8, symBinAddr: 0x34604, symSize: 0x88 }
  - { offset: 0x11A19C, size: 0x8, addend: 0x0, symName: '__ZN103_$LT$alloc..vec..into_iter..IntoIter$LT$T$C$A$GT$$u20$as$u20$core..iter..traits..iterator..Iterator$GT$9size_hint17h4da54b84a0fbb2f9E', symObjAddr: 0x130, symBinAddr: 0x3468C, symSize: 0xB4 }
  - { offset: 0x11A2B5, size: 0x8, addend: 0x0, symName: '__ZN103_$LT$alloc..vec..into_iter..IntoIter$LT$T$C$A$GT$$u20$as$u20$core..iter..traits..iterator..Iterator$GT$9size_hint17h58424d33c8b82509E', symObjAddr: 0x1E4, symBinAddr: 0x34740, symSize: 0xB4 }
  - { offset: 0x11A3DE, size: 0x8, addend: 0x0, symName: '__ZN157_$LT$$LT$alloc..vec..into_iter..IntoIter$LT$T$C$A$GT$$u20$as$u20$core..ops..drop..Drop$GT$..drop..DropGuard$LT$T$C$A$GT$$u20$as$u20$core..ops..drop..Drop$GT$4drop17h889c0e3a79dbb8e0E', symObjAddr: 0x45C, symBinAddr: 0x348F4, symSize: 0x6C }
  - { offset: 0x11A521, size: 0x8, addend: 0x0, symName: '__ZN157_$LT$$LT$alloc..vec..into_iter..IntoIter$LT$T$C$A$GT$$u20$as$u20$core..ops..drop..Drop$GT$..drop..DropGuard$LT$T$C$A$GT$$u20$as$u20$core..ops..drop..Drop$GT$4drop17hf426889c6e6aa0d3E', symObjAddr: 0x4C8, symBinAddr: 0x34960, symSize: 0x6C }
  - { offset: 0x11A6B4, size: 0x8, addend: 0x0, symName: '__ZN86_$LT$alloc..vec..into_iter..IntoIter$LT$T$C$A$GT$$u20$as$u20$core..ops..drop..Drop$GT$4drop17h37e0d69d5b48851eE', symObjAddr: 0x5C40, symBinAddr: 0x37634, symSize: 0x78 }
  - { offset: 0x11A706, size: 0x8, addend: 0x0, symName: '__ZN86_$LT$alloc..vec..into_iter..IntoIter$LT$T$C$A$GT$$u20$as$u20$core..ops..drop..Drop$GT$4drop17h7cc8ec50ca5e243cE', symObjAddr: 0x5CB8, symBinAddr: 0x376AC, symSize: 0x64 }
  - { offset: 0x11A9F7, size: 0x8, addend: 0x0, symName: '__ZN63_$LT$alloc..alloc..Global$u20$as$u20$core..alloc..Allocator$GT$10deallocate17h71de9d7c797291bfE', symObjAddr: 0x56DC, symBinAddr: 0x37374, symSize: 0x58 }
  - { offset: 0x11AAC5, size: 0x8, addend: 0x0, symName: '__ZN63_$LT$alloc..alloc..Global$u20$as$u20$core..alloc..Allocator$GT$6shrink17h9ec1294fa6361f1eE', symObjAddr: 0x5734, symBinAddr: 0x373CC, symSize: 0x44 }
  - { offset: 0x11AB56, size: 0x8, addend: 0x0, symName: '__ZN63_$LT$alloc..alloc..Global$u20$as$u20$core..alloc..Allocator$GT$8allocate17h2d4c354528c84caaE', symObjAddr: 0x5778, symBinAddr: 0x37410, symSize: 0x40 }
  - { offset: 0x11ABC2, size: 0x8, addend: 0x0, symName: __ZN5alloc5alloc15exchange_malloc17hb363a802f339ae03E, symObjAddr: 0x5134, symBinAddr: 0x36DCC, symSize: 0xB0 }
  - { offset: 0x11B7E0, size: 0x8, addend: 0x0, symName: __ZN3std4sync4once4Once12is_completed17ha8341117caead796E, symObjAddr: 0x54C, symBinAddr: 0x349CC, symSize: 0x38 }
  - { offset: 0x11B883, size: 0x8, addend: 0x0, symName: __ZN3std4sync4once4Once15call_once_force17h2158ad44b53bee4eE, symObjAddr: 0x584, symBinAddr: 0x34A04, symSize: 0xD4 }
  - { offset: 0x11B948, size: 0x8, addend: 0x0, symName: __ZN3std4sync4once4Once15call_once_force17h22f79c06d845fc65E, symObjAddr: 0x658, symBinAddr: 0x34AD8, symSize: 0xD4 }
  - { offset: 0x11BA0D, size: 0x8, addend: 0x0, symName: __ZN3std4sync4once4Once15call_once_force17h5588d01e3f7c1a79E, symObjAddr: 0x72C, symBinAddr: 0x34BAC, symSize: 0xEC }
  - { offset: 0x11BAD2, size: 0x8, addend: 0x0, symName: __ZN3std4sync4once4Once15call_once_force17h97cb8a6efdbc4e42E, symObjAddr: 0x818, symBinAddr: 0x34C98, symSize: 0xEC }
  - { offset: 0x11BB97, size: 0x8, addend: 0x0, symName: __ZN3std4sync4once4Once15call_once_force17he9f9eab8e89f12dfE, symObjAddr: 0x904, symBinAddr: 0x34D84, symSize: 0xEC }
  - { offset: 0x11BDC5, size: 0x8, addend: 0x0, symName: __ZN3std4sync4once4Once3new17h9944a6586b7651f9E, symObjAddr: 0xC4C, symBinAddr: 0x350CC, symSize: 0x28 }
  - { offset: 0x11BE3D, size: 0x8, addend: 0x0, symName: __ZN3std4sync4once4Once9call_once17h01749252ec5162c2E, symObjAddr: 0xC74, symBinAddr: 0x350F4, symSize: 0xD4 }
  - { offset: 0x11BF02, size: 0x8, addend: 0x0, symName: __ZN3std4sync4once4Once9call_once17h64bdfc622c17c0b4E, symObjAddr: 0xD48, symBinAddr: 0x351C8, symSize: 0xDC }
  - { offset: 0x11BFC7, size: 0x8, addend: 0x0, symName: __ZN3std4sync4once4Once9call_once17haed1428c497f043bE, symObjAddr: 0xE24, symBinAddr: 0x352A4, symSize: 0xD4 }
  - { offset: 0x11C126, size: 0x8, addend: 0x0, symName: __ZN4core3ffi5c_str4CStr6as_ptr17h0b5c3d24b457b6aeE, symObjAddr: 0x1220, symBinAddr: 0x35514, symSize: 0x18 }
  - { offset: 0x11C198, size: 0x8, addend: 0x0, symName: __ZN4core3ffi5c_str4CStr8to_bytes17h38dfe0e0c6185517E, symObjAddr: 0x12D8, symBinAddr: 0x3552C, symSize: 0x74 }
  - { offset: 0x11C23B, size: 0x8, addend: 0x0, symName: '__ZN4core4iter8adapters7step_by15StepBy$LT$I$GT$3new17h7ea856d595cf0df0E', symObjAddr: 0x13E0, symBinAddr: 0x35634, symSize: 0xE0 }
  - { offset: 0x11C3AD, size: 0x8, addend: 0x0, symName: '__ZN4core6option15Option$LT$T$GT$10ok_or_else17h1431b21d3282ef0bE', symObjAddr: 0x157C, symBinAddr: 0x35764, symSize: 0x80 }
  - { offset: 0x11C418, size: 0x8, addend: 0x0, symName: '__ZN4core6option15Option$LT$T$GT$10ok_or_else17h223b20a06c5a0ea8E', symObjAddr: 0x15FC, symBinAddr: 0x357E4, symSize: 0x80 }
  - { offset: 0x11C490, size: 0x8, addend: 0x0, symName: '__ZN4core6option15Option$LT$T$GT$10ok_or_else17he45398a206775115E', symObjAddr: 0x1794, symBinAddr: 0x35864, symSize: 0x80 }
  - { offset: 0x11C579, size: 0x8, addend: 0x0, symName: '__ZN4core6option15Option$LT$T$GT$11map_or_else17h69be07263a1ccd9bE', symObjAddr: 0x1B64, symBinAddr: 0x358E4, symSize: 0xC0 }
  - { offset: 0x11C5FC, size: 0x8, addend: 0x0, symName: '__ZN4core6option15Option$LT$T$GT$11map_or_else17h7ad18e46a93d8a84E', symObjAddr: 0x1C24, symBinAddr: 0x359A4, symSize: 0xC0 }
  - { offset: 0x11C691, size: 0x8, addend: 0x0, symName: '__ZN4core6option15Option$LT$T$GT$14unwrap_or_else17h0105939dd0c91d5dE', symObjAddr: 0x1F3C, symBinAddr: 0x35A64, symSize: 0x54 }
  - { offset: 0x11C6D6, size: 0x8, addend: 0x0, symName: '__ZN4core6option15Option$LT$T$GT$14unwrap_or_else17h367107a32fa510bfE', symObjAddr: 0x1F90, symBinAddr: 0x35AB8, symSize: 0x58 }
  - { offset: 0x11C71A, size: 0x8, addend: 0x0, symName: '__ZN4core6option15Option$LT$T$GT$14unwrap_or_else17h5280d45d49d3e5d5E', symObjAddr: 0x1FE8, symBinAddr: 0x35B10, symSize: 0x68 }
  - { offset: 0x11C779, size: 0x8, addend: 0x0, symName: '__ZN4core6option15Option$LT$T$GT$14unwrap_or_else17h656d7fd35bf15f33E', symObjAddr: 0x2050, symBinAddr: 0x35B78, symSize: 0x6C }
  - { offset: 0x11C7BE, size: 0x8, addend: 0x0, symName: '__ZN4core6option15Option$LT$T$GT$14unwrap_or_else17he4cafd8ba0df4382E', symObjAddr: 0x20BC, symBinAddr: 0x35BE4, symSize: 0x58 }
  - { offset: 0x11C802, size: 0x8, addend: 0x0, symName: '__ZN4core6option15Option$LT$T$GT$16unwrap_unchecked17h29e8272e2748c0c6E', symObjAddr: 0x2160, symBinAddr: 0x35C3C, symSize: 0x4C }
  - { offset: 0x11C843, size: 0x8, addend: 0x0, symName: '__ZN4core6option15Option$LT$T$GT$16unwrap_unchecked17h2d530ecfe030d1a0E', symObjAddr: 0x21AC, symBinAddr: 0x35C88, symSize: 0x4C }
  - { offset: 0x11C89E, size: 0x8, addend: 0x0, symName: '__ZN4core6option15Option$LT$T$GT$16unwrap_unchecked17h5c2a607af6f3ee44E', symObjAddr: 0x2254, symBinAddr: 0x35CD4, symSize: 0x4C }
  - { offset: 0x11C8DF, size: 0x8, addend: 0x0, symName: '__ZN4core6option15Option$LT$T$GT$16unwrap_unchecked17h953f943a88b5e2cbE', symObjAddr: 0x22FC, symBinAddr: 0x35D20, symSize: 0x5C }
  - { offset: 0x11C921, size: 0x8, addend: 0x0, symName: '__ZN4core6option15Option$LT$T$GT$16unwrap_unchecked17ha56efb44ae7456daE', symObjAddr: 0x2358, symBinAddr: 0x35D7C, symSize: 0x60 }
  - { offset: 0x11C999, size: 0x8, addend: 0x0, symName: '__ZN4core6option15Option$LT$T$GT$3map17h585d9d6e001d2db8E', symObjAddr: 0x263C, symBinAddr: 0x35DDC, symSize: 0x78 }
  - { offset: 0x11CA04, size: 0x8, addend: 0x0, symName: '__ZN4core6option15Option$LT$T$GT$3map17h5b4b019bff2945a5E', symObjAddr: 0x26B4, symBinAddr: 0x35E54, symSize: 0x50 }
  - { offset: 0x11CA6F, size: 0x8, addend: 0x0, symName: '__ZN4core6option15Option$LT$T$GT$3map17h80026fc329ba4944E', symObjAddr: 0x2780, symBinAddr: 0x35EA4, symSize: 0x50 }
  - { offset: 0x11CAF2, size: 0x8, addend: 0x0, symName: '__ZN4core6option15Option$LT$T$GT$3map17hc9b346d3bdc91f8cE', symObjAddr: 0x27D0, symBinAddr: 0x35EF4, symSize: 0x7C }
  - { offset: 0x11CB5D, size: 0x8, addend: 0x0, symName: '__ZN4core6option15Option$LT$T$GT$3map17he968fbfd4d9054b5E', symObjAddr: 0x284C, symBinAddr: 0x35F70, symSize: 0x5C }
  - { offset: 0x11CBC8, size: 0x8, addend: 0x0, symName: '__ZN4core6option15Option$LT$T$GT$3map17hf364400842b754d3E', symObjAddr: 0x28A8, symBinAddr: 0x35FCC, symSize: 0x84 }
  - { offset: 0x11CC4C, size: 0x8, addend: 0x0, symName: '__ZN4core6option15Option$LT$T$GT$4take17h2a842c8ca03aa19eE', symObjAddr: 0x2AEC, symBinAddr: 0x36050, symSize: 0x20 }
  - { offset: 0x11CCA3, size: 0x8, addend: 0x0, symName: '__ZN4core6option15Option$LT$T$GT$4take17h34edb0597adbd901E', symObjAddr: 0x2B0C, symBinAddr: 0x36070, symSize: 0x3C }
  - { offset: 0x11CCFA, size: 0x8, addend: 0x0, symName: '__ZN4core6option15Option$LT$T$GT$4take17h913f3d7680c39c15E', symObjAddr: 0x2B48, symBinAddr: 0x360AC, symSize: 0x5C }
  - { offset: 0x11CD51, size: 0x8, addend: 0x0, symName: '__ZN4core6option15Option$LT$T$GT$4take17hb94bd2bd0a347f56E', symObjAddr: 0x2BA4, symBinAddr: 0x36108, symSize: 0x3C }
  - { offset: 0x11CD9B, size: 0x8, addend: 0x0, symName: '__ZN4core6option15Option$LT$T$GT$4take17he60aa35687c85b94E', symObjAddr: 0x2BE0, symBinAddr: 0x36144, symSize: 0x60 }
  - { offset: 0x11CDFF, size: 0x8, addend: 0x0, symName: '__ZN4core6option15Option$LT$T$GT$6as_ref17h2d9e290fd43913fbE', symObjAddr: 0x2DA4, symBinAddr: 0x361A4, symSize: 0x4C }
  - { offset: 0x11CE63, size: 0x8, addend: 0x0, symName: '__ZN4core6option15Option$LT$T$GT$6as_ref17h79f4330ebce7d166E', symObjAddr: 0x2DF0, symBinAddr: 0x361F0, symSize: 0x4C }
  - { offset: 0x11CEC7, size: 0x8, addend: 0x0, symName: '__ZN4core6option15Option$LT$T$GT$6as_ref17ha723c73f54754530E', symObjAddr: 0x2E3C, symBinAddr: 0x3623C, symSize: 0x4C }
  - { offset: 0x11CF1E, size: 0x8, addend: 0x0, symName: '__ZN4core6option15Option$LT$T$GT$6as_ref17hc5a4aefaabd43116E', symObjAddr: 0x2ED4, symBinAddr: 0x36288, symSize: 0x4C }
  - { offset: 0x11CF82, size: 0x8, addend: 0x0, symName: '__ZN4core6option15Option$LT$T$GT$6as_ref17hfbf7284d7dc27b38E', symObjAddr: 0x2FB8, symBinAddr: 0x362D4, symSize: 0x4C }
  - { offset: 0x11CFCC, size: 0x8, addend: 0x0, symName: '__ZN4core6option15Option$LT$T$GT$6expect17h9cdee5118225b933E', symObjAddr: 0x3004, symBinAddr: 0x36320, symSize: 0x5C }
  - { offset: 0x11D007, size: 0x8, addend: 0x0, symName: '__ZN4core6option15Option$LT$T$GT$6expect17ha7905fb8dd5eeebcE', symObjAddr: 0x3060, symBinAddr: 0x3637C, symSize: 0x5C }
  - { offset: 0x11D042, size: 0x8, addend: 0x0, symName: '__ZN4core6option15Option$LT$T$GT$6expect17ha8c2c56dbeb033faE', symObjAddr: 0x30BC, symBinAddr: 0x363D8, symSize: 0x60 }
  - { offset: 0x11D096, size: 0x8, addend: 0x0, symName: '__ZN4core6option15Option$LT$T$GT$6map_or17h1f586b7df022c371E', symObjAddr: 0x311C, symBinAddr: 0x36438, symSize: 0x9C }
  - { offset: 0x11D120, size: 0x8, addend: 0x0, symName: '__ZN4core6option15Option$LT$T$GT$6map_or17h2d8b679649f71492E', symObjAddr: 0x31B8, symBinAddr: 0x364D4, symSize: 0x9C }
  - { offset: 0x11D1AA, size: 0x8, addend: 0x0, symName: '__ZN4core6option15Option$LT$T$GT$6map_or17h5105a466ee3bfabbE', symObjAddr: 0x3254, symBinAddr: 0x36570, symSize: 0x9C }
  - { offset: 0x11D234, size: 0x8, addend: 0x0, symName: '__ZN4core6option15Option$LT$T$GT$6map_or17h5c6c1057cbdbba27E', symObjAddr: 0x32F0, symBinAddr: 0x3660C, symSize: 0xA8 }
  - { offset: 0x11D2C2, size: 0x8, addend: 0x0, symName: '__ZN4core6option15Option$LT$T$GT$7is_none17h3d1bb4d11e43d3d8E', symObjAddr: 0x3398, symBinAddr: 0x366B4, symSize: 0x28 }
  - { offset: 0x11D335, size: 0x8, addend: 0x0, symName: '__ZN4core6option15Option$LT$T$GT$7is_none17h5c6a7b068f263497E', symObjAddr: 0x33E4, symBinAddr: 0x366DC, symSize: 0x28 }
  - { offset: 0x11D399, size: 0x8, addend: 0x0, symName: '__ZN4core6option15Option$LT$T$GT$7is_some17h2738b16aba356f20E', symObjAddr: 0x345C, symBinAddr: 0x36704, symSize: 0x28 }
  - { offset: 0x11D3D2, size: 0x8, addend: 0x0, symName: '__ZN4core6option15Option$LT$T$GT$7is_some17hf0f7df3b22c5c8dcE', symObjAddr: 0x34A4, symBinAddr: 0x3672C, symSize: 0x28 }
  - { offset: 0x11D40B, size: 0x8, addend: 0x0, symName: '__ZN4core6option15Option$LT$T$GT$7is_some17hfea18069cdc7ae31E', symObjAddr: 0x34CC, symBinAddr: 0x36754, symSize: 0x28 }
  - { offset: 0x11D444, size: 0x8, addend: 0x0, symName: '__ZN4core6option15Option$LT$T$GT$7replace17he2980c227bbe0d93E', symObjAddr: 0x34F4, symBinAddr: 0x3677C, symSize: 0x24 }
  - { offset: 0x11D4B1, size: 0x8, addend: 0x0, symName: '__ZN4core6option15Option$LT$T$GT$9unwrap_or17hda17b359cdabf68bE', symObjAddr: 0x35A8, symBinAddr: 0x367A0, symSize: 0x68 }
  - { offset: 0x11D506, size: 0x8, addend: 0x0, symName: __ZN4pyo36marker6Python15assume_attached17hd46d1c05ec6d6464E, symObjAddr: 0x4648, symBinAddr: 0x36808, symSize: 0x4 }
  - { offset: 0x11D519, size: 0x8, addend: 0x0, symName: __ZN4pyo36marker6Python4None17h1e17a0632bb25e13E, symObjAddr: 0x480C, symBinAddr: 0x3680C, symSize: 0x28 }
  - { offset: 0x11D555, size: 0x8, addend: 0x0, symName: __ZN4pyo36marker6Python6attach17hd4640de01be301d4E, symObjAddr: 0x4A30, symBinAddr: 0x36834, symSize: 0xF4 }
  - { offset: 0x11D5A1, size: 0x8, addend: 0x0, symName: __ZN4pyo36marker6Python6attach17hdd4a101bf59b30ecE, symObjAddr: 0x4B24, symBinAddr: 0x36928, symSize: 0xE8 }
  - { offset: 0x11D5EC, size: 0x8, addend: 0x0, symName: __ZN4pyo36marker6Python6attach17he3bfc1d1c8be8248E, symObjAddr: 0x4C0C, symBinAddr: 0x36A10, symSize: 0xE8 }
  - { offset: 0x11D651, size: 0x8, addend: 0x0, symName: __ZN4pyo36marker6Python6detach17h9d98dbf4a711a162E, symObjAddr: 0x4DDC, symBinAddr: 0x36AF8, symSize: 0xB0 }
  - { offset: 0x11D6BF, size: 0x8, addend: 0x0, symName: __ZN4pyo36marker6Python6import17h47bcfdb267bf82a0E, symObjAddr: 0x4EB4, symBinAddr: 0x36BA8, symSize: 0x24 }
  - { offset: 0x11D706, size: 0x8, addend: 0x0, symName: __ZN4pyo36marker6Python8get_type17h35bdf457e7ea9a32E, symObjAddr: 0x4F24, symBinAddr: 0x36BCC, symSize: 0x1C }
  - { offset: 0x11D73E, size: 0x8, addend: 0x0, symName: __ZN4pyo36marker6Python8get_type17hd117b65d8f700ec6E, symObjAddr: 0x4F40, symBinAddr: 0x36BE8, symSize: 0x1C }
  - { offset: 0x11D7D3, size: 0x8, addend: 0x0, symName: '__ZN5alloc3vec9into_iter21IntoIter$LT$T$C$A$GT$16as_raw_mut_slice17h017d49b106bd3deeE', symObjAddr: 0x4F9C, symBinAddr: 0x36C34, symSize: 0xCC }
  - { offset: 0x11D923, size: 0x8, addend: 0x0, symName: '__ZN5alloc3vec9into_iter21IntoIter$LT$T$C$A$GT$16as_raw_mut_slice17hc02e263508669be1E', symObjAddr: 0x5068, symBinAddr: 0x36D00, symSize: 0xCC }
  - { offset: 0x11DBBD, size: 0x8, addend: 0x0, symName: __ZN5alloc5alloc6Global18alloc_impl_runtime17hdf6ab35fe751d710E, symObjAddr: 0x51E4, symBinAddr: 0x36E7C, symSize: 0x194 }
  - { offset: 0x11E0F8, size: 0x8, addend: 0x0, symName: __ZN5alloc5alloc6Global19shrink_impl_runtime17h0179594580961b2aE, symObjAddr: 0x5378, symBinAddr: 0x37010, symSize: 0x304 }
  - { offset: 0x11EA30, size: 0x8, addend: 0x0, symName: __ZN8pyo3_ffi6object10Py_IS_TYPE17h6b45483cab1c43aeE, symObjAddr: 0x4E10, symBinAddr: 0x39184, symSize: 0x38 }
  - { offset: 0x11EA6A, size: 0x8, addend: 0x0, symName: __ZN8pyo3_ffi6object12PyType_Check17h8b21989987b56969E, symObjAddr: 0x4E48, symBinAddr: 0x391BC, symSize: 0x30 }
  - { offset: 0x11EA98, size: 0x8, addend: 0x0, symName: __ZN8pyo3_ffi6object17PyType_HasFeature17hda7de02501b37956E, symObjAddr: 0x4E78, symBinAddr: 0x391EC, symSize: 0x8C }
  - { offset: 0x11EAF3, size: 0x8, addend: 0x0, symName: __ZN8pyo3_ffi6object18PyObject_TypeCheck17hbf2f0086d6c2ba00E, symObjAddr: 0x4F10, symBinAddr: 0x39278, symSize: 0x70 }
  - { offset: 0x11EB30, size: 0x8, addend: 0x0, symName: __ZN8pyo3_ffi6object19PyType_FastSubclass17hf535fb8b34bcf061E, symObjAddr: 0x4F80, symBinAddr: 0x392E8, symSize: 0x28 }
  - { offset: 0x11EB6D, size: 0x8, addend: 0x0, symName: __ZN8pyo3_ffi6object7Py_None17h380417416128663eE, symObjAddr: 0x4FDC, symBinAddr: 0x39310, symSize: 0xC }
  - { offset: 0x11EB8B, size: 0x8, addend: 0x0, symName: __ZN8pyo3_ffi6object7Py_SIZE17ha02407e50a628ef8E, symObjAddr: 0x4FE8, symBinAddr: 0x3931C, symSize: 0x1D4 }
  - { offset: 0x11EC39, size: 0x8, addend: 0x0, symName: __ZN8pyo3_ffi6object7Py_TYPE17ha8d6d025870d4ca4E, symObjAddr: 0x51BC, symBinAddr: 0x394F0, symSize: 0x74 }
  - { offset: 0x11F2FD, size: 0x8, addend: 0x0, symName: __ZN8pyo3_ffi12methodobject17PyCFunction_NewEx17h93ab8ab7c89468feE, symObjAddr: 0x4DD8, symBinAddr: 0x3914C, symSize: 0x38 }
  - { offset: 0x11F564, size: 0x8, addend: 0x0, symName: __ZN4core4sync6atomic11atomic_load17h82168aaee55c25bfE, symObjAddr: 0x15BC, symBinAddr: 0x382D0, symSize: 0xF8 }
  - { offset: 0x11F5AA, size: 0x8, addend: 0x0, symName: __ZN4core4sync6atomic11atomic_load17hbab295e8f53f738dE, symObjAddr: 0x16B4, symBinAddr: 0x383C8, symSize: 0xF8 }
  - { offset: 0x11F5F0, size: 0x8, addend: 0x0, symName: __ZN4core4sync6atomic12atomic_store17hf2e42d69153c4e72E, symObjAddr: 0x17AC, symBinAddr: 0x384C0, symSize: 0xFC }
  - { offset: 0x11F641, size: 0x8, addend: 0x0, symName: __ZN4core4sync6atomic23atomic_compare_exchange17h22bb27f2aa876cb3E, symObjAddr: 0x18C4, symBinAddr: 0x385BC, symSize: 0x4B4 }
  - { offset: 0x11F6DC, size: 0x8, addend: 0x0, symName: __ZN4core4sync6atomic23atomic_compare_exchange17hd230dc3617c741caE, symObjAddr: 0x1D78, symBinAddr: 0x38A70, symSize: 0x4B4 }
  - { offset: 0x11F7F9, size: 0x8, addend: 0x0, symName: __ZN4core3ptr9alignment9Alignment13new_unchecked18precondition_check17ha25dcf159c384430E, symObjAddr: 0xCE8, symBinAddr: 0x37C60, symSize: 0x70 }
  - { offset: 0x11FAA5, size: 0x8, addend: 0x0, symName: '__ZN4core3ptr7mut_ptr31_$LT$impl$u20$$BP$mut$u20$T$GT$7is_null17h2d223553e96d5a2fE', symObjAddr: 0xCD0, symBinAddr: 0x37C48, symSize: 0x18 }
  - { offset: 0x11FBA2, size: 0x8, addend: 0x0, symName: '__ZN102_$LT$core..iter..adapters..zip..Zip$LT$A$C$B$GT$$u20$as$u20$core..iter..traits..iterator..Iterator$GT$4next17h177ede61a481608bE', symObjAddr: 0x28, symBinAddr: 0x37740, symSize: 0x24 }
  - { offset: 0x11FBE0, size: 0x8, addend: 0x0, symName: '__ZN102_$LT$core..iter..adapters..zip..Zip$LT$A$C$B$GT$$u20$as$u20$core..iter..traits..iterator..Iterator$GT$4next17h760b5b49c79522bbE', symObjAddr: 0x70, symBinAddr: 0x37764, symSize: 0x24 }
  - { offset: 0x11FC1E, size: 0x8, addend: 0x0, symName: '__ZN102_$LT$core..iter..adapters..zip..Zip$LT$A$C$B$GT$$u20$as$u20$core..iter..traits..iterator..Iterator$GT$9size_hint17h8f3f2cb09a0a295dE', symObjAddr: 0x94, symBinAddr: 0x37788, symSize: 0x24 }
  - { offset: 0x11FC5C, size: 0x8, addend: 0x0, symName: '__ZN102_$LT$core..iter..adapters..zip..Zip$LT$A$C$B$GT$$u20$as$u20$core..iter..traits..iterator..Iterator$GT$9size_hint17hd214cfc27fef45fcE', symObjAddr: 0xDC, symBinAddr: 0x377AC, symSize: 0x24 }
  - { offset: 0x11FCA0, size: 0x8, addend: 0x0, symName: '__ZN111_$LT$core..iter..adapters..zip..Zip$LT$A$C$B$GT$$u20$as$u20$core..iter..adapters..zip..ZipImpl$LT$A$C$B$GT$$GT$3new17h94d24a9a09e8d971E', symObjAddr: 0x59C, symBinAddr: 0x3780C, symSize: 0xBC }
  - { offset: 0x11FD33, size: 0x8, addend: 0x0, symName: '__ZN111_$LT$core..iter..adapters..zip..Zip$LT$A$C$B$GT$$u20$as$u20$core..iter..adapters..zip..ZipImpl$LT$A$C$B$GT$$GT$4next17h2e176c70fd9e32c7E', symObjAddr: 0x658, symBinAddr: 0x378C8, symSize: 0xB0 }
  - { offset: 0x11FD89, size: 0x8, addend: 0x0, symName: '__ZN111_$LT$core..iter..adapters..zip..Zip$LT$A$C$B$GT$$u20$as$u20$core..iter..adapters..zip..ZipImpl$LT$A$C$B$GT$$GT$9size_hint17he6191824dd9872ecE', symObjAddr: 0xA1C, symBinAddr: 0x37B84, symSize: 0x34 }
  - { offset: 0x11FDCF, size: 0x8, addend: 0x0, symName: '__ZN111_$LT$core..iter..adapters..zip..Zip$LT$A$C$B$GT$$u20$as$u20$core..iter..adapters..zip..ZipImpl$LT$A$C$B$GT$$GT$3new17h7ae19afb4888c949E', symObjAddr: 0x560, symBinAddr: 0x377D0, symSize: 0x3C }
  - { offset: 0x11FE1B, size: 0x8, addend: 0x0, symName: '__ZN111_$LT$core..iter..adapters..zip..Zip$LT$A$C$B$GT$$u20$as$u20$core..iter..adapters..zip..ZipImpl$LT$A$C$B$GT$$GT$4next17h7016931b8183883cE', symObjAddr: 0x708, symBinAddr: 0x37978, symSize: 0xE0 }
  - { offset: 0x11FF7C, size: 0x8, addend: 0x0, symName: '__ZN111_$LT$core..iter..adapters..zip..Zip$LT$A$C$B$GT$$u20$as$u20$core..iter..adapters..zip..ZipImpl$LT$A$C$B$GT$$GT$9size_hint17hc91f96131125696fE', symObjAddr: 0x8F0, symBinAddr: 0x37A58, symSize: 0x12C }
  - { offset: 0x120265, size: 0x8, addend: 0x0, symName: __ZN4core4iter6traits8iterator8Iterator10filter_map17h615c86cae177b77fE, symObjAddr: 0xD70, symBinAddr: 0x37CD0, symSize: 0x30 }
  - { offset: 0x1202D3, size: 0x8, addend: 0x0, symName: __ZN4core4iter6traits8iterator8Iterator10filter_map17hb7caea927b915254E, symObjAddr: 0xDA0, symBinAddr: 0x37D00, symSize: 0x30 }
  - { offset: 0x120341, size: 0x8, addend: 0x0, symName: __ZN4core4iter6traits8iterator8Iterator8find_map17h65e383e3c1d6e989E, symObjAddr: 0xE8C, symBinAddr: 0x37D30, symSize: 0x8C }
  - { offset: 0x1203C9, size: 0x8, addend: 0x0, symName: __ZN4core4iter6traits8iterator8Iterator8find_map17h7e047930b8e997cdE, symObjAddr: 0xF18, symBinAddr: 0x37DBC, symSize: 0x8C }
  - { offset: 0x120451, size: 0x8, addend: 0x0, symName: __ZN4core4iter6traits8iterator8Iterator8try_fold17h759129add054db1dE, symObjAddr: 0xFC8, symBinAddr: 0x37E48, symSize: 0x190 }
  - { offset: 0x120507, size: 0x8, addend: 0x0, symName: __ZN4core4iter6traits8iterator8Iterator8try_fold17h8705b02d3ddf1448E, symObjAddr: 0x1158, symBinAddr: 0x37FD8, symSize: 0x190 }
  - { offset: 0x121A0A, size: 0x8, addend: 0x0, symName: '__ZN4core3fmt3num52_$LT$impl$u20$core..fmt..Debug$u20$for$u20$usize$GT$3fmt17h878b030b5d14e83bE', symObjAddr: 0xC30, symBinAddr: 0x37BB8, symSize: 0x90 }
  - { offset: 0x121CB4, size: 0x8, addend: 0x0, symName: '__ZN4core5slice4iter87_$LT$impl$u20$core..iter..traits..collect..IntoIterator$u20$for$u20$$RF$$u5b$T$u5d$$GT$9into_iter17h5fac981bdf0c4b44E', symObjAddr: 0x27C0, symBinAddr: 0x38F24, symSize: 0x50 }
  - { offset: 0x1225D3, size: 0x8, addend: 0x0, symName: __ZN4pyo310conversion15IntoPyObjectExt17into_bound_py_any17h0e6dfeef9a326f43E, symObjAddr: 0x2C14, symBinAddr: 0x38F74, symSize: 0x54 }
  - { offset: 0x12263E, size: 0x8, addend: 0x0, symName: __ZN4pyo310conversion15IntoPyObjectExt22into_pyobject_or_pyerr17hcde07196c23239acE, symObjAddr: 0x2E24, symBinAddr: 0x38FC8, symSize: 0x4C }
  - { offset: 0x1226BA, size: 0x8, addend: 0x0, symName: '__ZN87_$LT$$BP$mut$u20$pyo3_ffi..object..PyObject$u20$as$u20$pyo3..ffi_ptr_ext..FfiPtrExt$GT$12assume_owned17hf2573792d4c4179fE', symObjAddr: 0x4C84, symBinAddr: 0x39064, symSize: 0x24 }
  - { offset: 0x1226FF, size: 0x8, addend: 0x0, symName: '__ZN87_$LT$$BP$mut$u20$pyo3_ffi..object..PyObject$u20$as$u20$pyo3..ffi_ptr_ext..FfiPtrExt$GT$19assume_owned_or_err17h0fc4568c6f4afccfE', symObjAddr: 0x4CCC, symBinAddr: 0x39088, symSize: 0x24 }
  - { offset: 0x122744, size: 0x8, addend: 0x0, symName: '__ZN87_$LT$$BP$mut$u20$pyo3_ffi..object..PyObject$u20$as$u20$pyo3..ffi_ptr_ext..FfiPtrExt$GT$19assume_owned_or_opt17haa406f33aede104fE', symObjAddr: 0x4CF0, symBinAddr: 0x390AC, symSize: 0x24 }
  - { offset: 0x122789, size: 0x8, addend: 0x0, symName: '__ZN87_$LT$$BP$mut$u20$pyo3_ffi..object..PyObject$u20$as$u20$pyo3..ffi_ptr_ext..FfiPtrExt$GT$25assume_borrowed_unchecked17h21cd7021dd9fffffE', symObjAddr: 0x4D5C, symBinAddr: 0x390D0, symSize: 0x24 }
  - { offset: 0x12301A, size: 0x8, addend: 0x0, symName: __ZN4core4sync6atomic11AtomicUsize16compare_exchange17h5409700a96efa397E, symObjAddr: 0x1454, symBinAddr: 0x38168, symSize: 0x30 }
  - { offset: 0x123079, size: 0x8, addend: 0x0, symName: __ZN4core4sync6atomic11AtomicUsize4load17h2b97749efdfa2849E, symObjAddr: 0x1484, symBinAddr: 0x38198, symSize: 0x24 }
  - { offset: 0x1230AB, size: 0x8, addend: 0x0, symName: __ZN4core4sync6atomic11AtomicUsize5store17hcc5d806694a7cd50E, symObjAddr: 0x14A8, symBinAddr: 0x381BC, symSize: 0x28 }
  - { offset: 0x123122, size: 0x8, addend: 0x0, symName: __ZN4core4sync6atomic11AtomicUsize9fetch_sub17hc178f73dcae68751E, symObjAddr: 0x14D0, symBinAddr: 0x381E4, symSize: 0xEC }
  - { offset: 0x1234DD, size: 0x8, addend: 0x0, symName: '__ZN5alloc3str56_$LT$impl$u20$alloc..borrow..ToOwned$u20$for$u20$str$GT$8to_owned17hcc94dcff5b9e9012E', symObjAddr: 0x4B60, symBinAddr: 0x39014, symSize: 0x50 }
  - { offset: 0x1238D8, size: 0x8, addend: 0x0, symName: '__ZN88_$LT$hashbrown..scopeguard..ScopeGuard$LT$T$C$F$GT$$u20$as$u20$core..ops..drop..Drop$GT$4drop17h44eb4d1bb6a656fdE', symObjAddr: 0x4D80, symBinAddr: 0x390F4, symSize: 0x2C }
  - { offset: 0x123912, size: 0x8, addend: 0x0, symName: '__ZN88_$LT$hashbrown..scopeguard..ScopeGuard$LT$T$C$F$GT$$u20$as$u20$core..ops..drop..Drop$GT$4drop17h940f0fb9f47a9635E', symObjAddr: 0x4DAC, symBinAddr: 0x39120, symSize: 0x2C }
  - { offset: 0x123B26, size: 0x8, addend: 0x0, symName: __ZN9hashbrown7control5group4neon5Group10match_full17h746def908f3258e8E, symObjAddr: 0x5260, symBinAddr: 0x39564, symSize: 0x68 }
  - { offset: 0x123B5E, size: 0x8, addend: 0x0, symName: __ZN9hashbrown7control5group4neon5Group22match_empty_or_deleted17h857863d861c10adbE, symObjAddr: 0x52C8, symBinAddr: 0x395CC, symSize: 0x68 }
  - { offset: 0x123B96, size: 0x8, addend: 0x0, symName: __ZN9hashbrown7control5group4neon5Group44convert_special_to_empty_and_full_to_deleted17hc5b7ca2b616047c2E, symObjAddr: 0x5330, symBinAddr: 0x39634, symSize: 0x88 }
  - { offset: 0x123BCE, size: 0x8, addend: 0x0, symName: __ZN9hashbrown7control5group4neon5Group9match_tag17hb340d691ba2f1d1dE, symObjAddr: 0x53B8, symBinAddr: 0x396BC, symSize: 0x7C }
  - { offset: 0x123D5B, size: 0x8, addend: 0x0, symName: __ZN3std6thread6thread6Thread6unpark17hfcc360b13768f323E, symObjAddr: 0x0, symBinAddr: 0x39738, symSize: 0x38 }
  - { offset: 0x123E6B, size: 0x8, addend: 0x0, symName: __ZN4core4sync6atomic11atomic_load17hbec2196c25769b11E, symObjAddr: 0x324, symBinAddr: 0x399B8, symSize: 0xF8 }
  - { offset: 0x123EB1, size: 0x8, addend: 0x0, symName: __ZN4core4sync6atomic11atomic_load17hda01155ef4e20b09E, symObjAddr: 0x41C, symBinAddr: 0x39AB0, symSize: 0xF8 }
  - { offset: 0x123EF7, size: 0x8, addend: 0x0, symName: __ZN4core4sync6atomic12atomic_store17hd94df09a980a14e4E, symObjAddr: 0x514, symBinAddr: 0x39BA8, symSize: 0xFC }
  - { offset: 0x124025, size: 0x8, addend: 0x0, symName: __ZN4core4sync6atomic23atomic_compare_exchange17h7d25c00498a5fc99E, symObjAddr: 0x744, symBinAddr: 0x39DD8, symSize: 0x4B4 }
  - { offset: 0x1240C0, size: 0x8, addend: 0x0, symName: __ZN4core4sync6atomic5fence17h675429f80955b2d4E, symObjAddr: 0xBF8, symBinAddr: 0x3A28C, symSize: 0xB0 }
  - { offset: 0x1241C0, size: 0x8, addend: 0x0, symName: '__ZN4core3ptr100drop_in_place$LT$core..cell..Cell$LT$core..option..Option$LT$std..thread..thread..Thread$GT$$GT$$GT$17h031752d2db9ce730E', symObjAddr: 0xF8, symBinAddr: 0x397A4, symSize: 0x24 }
  - { offset: 0x1241EF, size: 0x8, addend: 0x0, symName: '__ZN4core3ptr106drop_in_place$LT$core..cell..UnsafeCell$LT$core..option..Option$LT$std..thread..thread..Thread$GT$$GT$$GT$17h83c2f7d48baed8c1E', symObjAddr: 0x11C, symBinAddr: 0x397C8, symSize: 0x24 }
  - { offset: 0x12421E, size: 0x8, addend: 0x0, symName: '__ZN4core3ptr114drop_in_place$LT$core..pin..Pin$LT$alloc..sync..Arc$LT$std..thread..thread..Inner$C$std..alloc..System$GT$$GT$$GT$17hda339c99e3e38e7eE', symObjAddr: 0x140, symBinAddr: 0x397EC, symSize: 0x24 }
  - { offset: 0x12424D, size: 0x8, addend: 0x0, symName: '__ZN4core3ptr42drop_in_place$LT$once_cell..imp..Guard$GT$17h54928c04524e4c7aE', symObjAddr: 0x164, symBinAddr: 0x39810, symSize: 0x24 }
  - { offset: 0x12427C, size: 0x8, addend: 0x0, symName: '__ZN4core3ptr43drop_in_place$LT$once_cell..imp..Waiter$GT$17h3a1aa0736a385013E', symObjAddr: 0x188, symBinAddr: 0x39834, symSize: 0x24 }
  - { offset: 0x1242AB, size: 0x8, addend: 0x0, symName: '__ZN4core3ptr48drop_in_place$LT$std..thread..thread..Thread$GT$17hc70b70a5b74bcb5eE', symObjAddr: 0x1AC, symBinAddr: 0x39858, symSize: 0x24 }
  - { offset: 0x1242DA, size: 0x8, addend: 0x0, symName: '__ZN4core3ptr76drop_in_place$LT$core..option..Option$LT$std..thread..thread..Thread$GT$$GT$17hb8ffb7fd35eb00aeE', symObjAddr: 0x1D0, symBinAddr: 0x3987C, symSize: 0x44 }
  - { offset: 0x124350, size: 0x8, addend: 0x0, symName: '__ZN4core3ptr7mut_ptr31_$LT$impl$u20$$BP$mut$u20$T$GT$7is_null17he5206297355e8cb5E', symObjAddr: 0x214, symBinAddr: 0x398C0, symSize: 0x18 }
  - { offset: 0x1243E4, size: 0x8, addend: 0x0, symName: '__ZN4core3ptr92drop_in_place$LT$alloc..sync..Arc$LT$std..thread..thread..Inner$C$std..alloc..System$GT$$GT$17h4f269be5e57ff068E', symObjAddr: 0x22C, symBinAddr: 0x398D8, symSize: 0x24 }
  - { offset: 0x124504, size: 0x8, addend: 0x0, symName: '__ZN72_$LT$core..option..Option$LT$T$GT$$u20$as$u20$core..default..Default$GT$7default17hc9923eead288db1cE', symObjAddr: 0xF88, symBinAddr: 0x3A61C, symSize: 0x8 }
  - { offset: 0x124896, size: 0x8, addend: 0x0, symName: '__ZN4core3ops8function5impls79_$LT$impl$u20$core..ops..function..FnMut$LT$A$GT$$u20$for$u20$$RF$mut$u20$F$GT$8call_mut17h5f0a59dbc0e4387aE', symObjAddr: 0xC4, symBinAddr: 0x39770, symSize: 0x34 }
  - { offset: 0x124A7A, size: 0x8, addend: 0x0, symName: '__ZN71_$LT$alloc..sync..Arc$LT$T$C$A$GT$$u20$as$u20$core..ops..drop..Drop$GT$4drop17hac3db3d592e5b76aE', symObjAddr: 0xF0C, symBinAddr: 0x3A5A0, symSize: 0x7C }
  - { offset: 0x124DC8, size: 0x8, addend: 0x0, symName: __ZN3std6thread6thread6Thread6unpark17hfcc360b13768f323E, symObjAddr: 0x0, symBinAddr: 0x39738, symSize: 0x38 }
  - { offset: 0x124F2F, size: 0x8, addend: 0x0, symName: '__ZN63_$LT$once_cell..imp..Guard$u20$as$u20$core..ops..drop..Drop$GT$4drop17hbdce332dc698d229E', symObjAddr: 0xCA8, symBinAddr: 0x3A33C, symSize: 0x250 }
  - { offset: 0x12502F, size: 0x8, addend: 0x0, symName: '__ZN63_$LT$once_cell..imp..Guard$u20$as$u20$core..ops..drop..Drop$GT$4drop28_$u7b$$u7b$closure$u7d$$u7d$17h5a390d94defc1e77E', symObjAddr: 0xEF8, symBinAddr: 0x3A58C, symSize: 0x14 }
  - { offset: 0x12506E, size: 0x8, addend: 0x0, symName: __ZN9once_cell3imp18initialize_or_wait17hb0bdddc22ea8279bE, symObjAddr: 0xF90, symBinAddr: 0x3A624, symSize: 0x18C }
  - { offset: 0x125130, size: 0x8, addend: 0x0, symName: '__ZN9once_cell3imp18initialize_or_wait28_$u7b$$u7b$closure$u7d$$u7d$17hf7f13f29c5befdd1E', symObjAddr: 0x111C, symBinAddr: 0x3A7B0, symSize: 0x18 }
  - { offset: 0x12516E, size: 0x8, addend: 0x0, symName: __ZN9once_cell3imp4wait17hc880c5f386465160E, symObjAddr: 0x1134, symBinAddr: 0x3A7C8, symSize: 0x1EC }
  - { offset: 0x125215, size: 0x8, addend: 0x0, symName: '__ZN9once_cell3imp4wait28_$u7b$$u7b$closure$u7d$$u7d$17h41b2b57983fdc385E', symObjAddr: 0x1320, symBinAddr: 0x3A9B4, symSize: 0x14 }
  - { offset: 0x12524B, size: 0x8, addend: 0x0, symName: '__ZN9once_cell3imp4wait28_$u7b$$u7b$closure$u7d$$u7d$17h498b81f1a2a395c7E', symObjAddr: 0x1334, symBinAddr: 0x3A9C8, symSize: 0x20 }
  - { offset: 0x1252A7, size: 0x8, addend: 0x0, symName: __ZN9once_cell3imp6strict4addr17h4a38f09245f5b384E, symObjAddr: 0x1354, symBinAddr: 0x3A9E8, symSize: 0x10 }
  - { offset: 0x1252DC, size: 0x8, addend: 0x0, symName: __ZN9once_cell3imp6strict8map_addr17h25405bf09235b4f2E, symObjAddr: 0x1364, symBinAddr: 0x3A9F8, symSize: 0x88 }
  - { offset: 0x12532B, size: 0x8, addend: 0x0, symName: __ZN9once_cell3imp6strict8map_addr17h5766b7574be19323E, symObjAddr: 0x13EC, symBinAddr: 0x3AA80, symSize: 0x88 }
  - { offset: 0x12537A, size: 0x8, addend: 0x0, symName: __ZN9once_cell3imp6strict8map_addr17hbfbc64aacb43e5dcE, symObjAddr: 0x1474, symBinAddr: 0x3AB08, symSize: 0x88 }
  - { offset: 0x1253C9, size: 0x8, addend: 0x0, symName: __ZN9once_cell3imp6strict8map_addr17hf656c24e67b94b1eE, symObjAddr: 0x14FC, symBinAddr: 0x3AB90, symSize: 0x94 }
  - { offset: 0x125418, size: 0x8, addend: 0x0, symName: __ZN9once_cell3imp6strict9with_addr17hd90d1cf5d3d8dc50E, symObjAddr: 0x1590, symBinAddr: 0x3AC24, symSize: 0x64 }
  - { offset: 0x125535, size: 0x8, addend: 0x0, symName: '__ZN4core4cell13Cell$LT$T$GT$3new17h6d48d3dd6f592261E', symObjAddr: 0x268, symBinAddr: 0x398FC, symSize: 0x14 }
  - { offset: 0x125596, size: 0x8, addend: 0x0, symName: '__ZN4core4cell13Cell$LT$T$GT$4take17h7eb846c340f6580cE', symObjAddr: 0x27C, symBinAddr: 0x39910, symSize: 0x3C }
  - { offset: 0x1255FD, size: 0x8, addend: 0x0, symName: __ZN4core4sync6atomic10AtomicBool3new17hc665ee2c61052d46E, symObjAddr: 0x2B8, symBinAddr: 0x3994C, symSize: 0x18 }
  - { offset: 0x12562D, size: 0x8, addend: 0x0, symName: __ZN4core4sync6atomic10AtomicBool4load17ha25f150e5cd72589E, symObjAddr: 0x2D0, symBinAddr: 0x39964, symSize: 0x2C }
  - { offset: 0x12565F, size: 0x8, addend: 0x0, symName: __ZN4core4sync6atomic10AtomicBool5store17hcebaa85e29309867E, symObjAddr: 0x2FC, symBinAddr: 0x39990, symSize: 0x28 }
  - { offset: 0x1256AD, size: 0x8, addend: 0x0, symName: '__ZN4core4sync6atomic18AtomicPtr$LT$T$GT$16compare_exchange17h77a7bb0f85a32a96E', symObjAddr: 0x610, symBinAddr: 0x39CA4, symSize: 0x38 }
  - { offset: 0x125715, size: 0x8, addend: 0x0, symName: '__ZN4core4sync6atomic18AtomicPtr$LT$T$GT$4load17ha6492c4666b8e1efE', symObjAddr: 0x648, symBinAddr: 0x39CDC, symSize: 0x24 }
  - { offset: 0x125786, size: 0x8, addend: 0x0, symName: '__ZN4core4sync6atomic18AtomicPtr$LT$T$GT$4swap17h9736083593f9d6b7E', symObjAddr: 0x66C, symBinAddr: 0x39D00, symSize: 0xD8 }
  - { offset: 0x125B35, size: 0x8, addend: 0x0, symName: __ZN4core4sync6atomic11atomic_load17h76bd8c563d975fedE, symObjAddr: 0xA08, symBinAddr: 0x3AD7C, symSize: 0xF8 }
  - { offset: 0x125BE2, size: 0x8, addend: 0x0, symName: '__ZN4core3ptr50drop_in_place$LT$pyo3_ffi..pystate..HangThread$GT$17h1b946e7be9d19404E', symObjAddr: 0x92C, symBinAddr: 0x3ACD0, symSize: 0x24 }
  - { offset: 0x125C1B, size: 0x8, addend: 0x0, symName: '__ZN4core3ptr9const_ptr33_$LT$impl$u20$$BP$const$u20$T$GT$13is_aligned_to17h9caf556c724b52d0E', symObjAddr: 0x980, symBinAddr: 0x3ACF4, symSize: 0x88 }
  - { offset: 0x125CBD, size: 0x8, addend: 0x0, symName: __ZN4core3mem6forget17haa11a563fddc34b2E, symObjAddr: 0x808, symBinAddr: 0x3ACC4, symSize: 0xC }
  - { offset: 0x1260A4, size: 0x8, addend: 0x0, symName: '__ZN71_$LT$pyo3_ffi..pystate..HangThread$u20$as$u20$core..ops..drop..Drop$GT$4drop17hdf31d20bc5457f91E', symObjAddr: 0xDB8, symBinAddr: 0x3AE74, symSize: 0x1C }
  - { offset: 0x1260CD, size: 0x8, addend: 0x0, symName: __ZN8pyo3_ffi7pystate17PyGILState_Ensure17h60deb9c875b93545E, symObjAddr: 0x10A8, symBinAddr: 0x3AF04, symSize: 0x7C }
  - { offset: 0x126126, size: 0x8, addend: 0x0, symName: __ZN8pyo3_ffi32_cstr_from_utf8_with_nul_checked17hbcc0c1c0c626eae5E, symObjAddr: 0x1034, symBinAddr: 0x3AE90, symSize: 0x74 }
  - { offset: 0x12631D, size: 0x8, addend: 0x0, symName: __ZN4core3fmt9Arguments3new17haa339d368bd89781E, symObjAddr: 0x728, symBinAddr: 0x3AC88, symSize: 0x1C }
  - { offset: 0x12634F, size: 0x8, addend: 0x0, symName: __ZN4core3fmt9Arguments8from_str17h0e6a1fc2758d0b05E, symObjAddr: 0x744, symBinAddr: 0x3ACA4, symSize: 0x20 }
  - { offset: 0x1263B7, size: 0x8, addend: 0x0, symName: __ZN4core4hint16assert_unchecked18precondition_check17h036b2c762672dfb4E, symObjAddr: 0x0, symBinAddr: 0x3AF80, symSize: 0x58 }
  - { offset: 0x1263D3, size: 0x8, addend: 0x0, symName: __ZN4core4hint16assert_unchecked18precondition_check17h036b2c762672dfb4E, symObjAddr: 0x0, symBinAddr: 0x3AF80, symSize: 0x58 }
  - { offset: 0x12641E, size: 0x8, addend: 0x0, symName: __ZN4core4hint21unreachable_unchecked18precondition_check17h447fae8e7d093057E, symObjAddr: 0x58, symBinAddr: 0x3AFD8, symSize: 0x3C }
  - { offset: 0x1264B2, size: 0x8, addend: 0x0, symName: '__ZN108_$LT$core..iter..adapters..filter..Filter$LT$I$C$P$GT$$u20$as$u20$core..iter..traits..iterator..Iterator$GT$4fold17h0fc028a92bf92213E', symObjAddr: 0x0, symBinAddr: 0x3B014, symSize: 0x34 }
  - { offset: 0x1264D8, size: 0x8, addend: 0x0, symName: '__ZN108_$LT$core..iter..adapters..filter..Filter$LT$I$C$P$GT$$u20$as$u20$core..iter..traits..iterator..Iterator$GT$4fold17h0fc028a92bf92213E', symObjAddr: 0x0, symBinAddr: 0x3B014, symSize: 0x34 }
  - { offset: 0x126540, size: 0x8, addend: 0x0, symName: '__ZN108_$LT$core..iter..adapters..filter..Filter$LT$I$C$P$GT$$u20$as$u20$core..iter..traits..iterator..Iterator$GT$4fold17h649a686615b8b910E', symObjAddr: 0x34, symBinAddr: 0x3B048, symSize: 0x34 }
  - { offset: 0x1265A8, size: 0x8, addend: 0x0, symName: '__ZN108_$LT$core..iter..adapters..filter..Filter$LT$I$C$P$GT$$u20$as$u20$core..iter..traits..iterator..Iterator$GT$4fold17h8ed11d82f767c3c5E', symObjAddr: 0x68, symBinAddr: 0x3B07C, symSize: 0x34 }
  - { offset: 0x126610, size: 0x8, addend: 0x0, symName: '__ZN108_$LT$core..iter..adapters..filter..Filter$LT$I$C$P$GT$$u20$as$u20$core..iter..traits..iterator..Iterator$GT$4fold17ha298dc55b3109ddeE', symObjAddr: 0x9C, symBinAddr: 0x3B0B0, symSize: 0x34 }
  - { offset: 0x126678, size: 0x8, addend: 0x0, symName: '__ZN108_$LT$core..iter..adapters..filter..Filter$LT$I$C$P$GT$$u20$as$u20$core..iter..traits..iterator..Iterator$GT$9size_hint17h3357d3c6022e0ffdE', symObjAddr: 0xD0, symBinAddr: 0x3B0E4, symSize: 0x4C }
  - { offset: 0x1266D3, size: 0x8, addend: 0x0, symName: '__ZN108_$LT$core..iter..adapters..filter..Filter$LT$I$C$P$GT$$u20$as$u20$core..iter..traits..iterator..Iterator$GT$9size_hint17h5efb25c422f68e52E', symObjAddr: 0x11C, symBinAddr: 0x3B130, symSize: 0x4C }
  - { offset: 0x12672E, size: 0x8, addend: 0x0, symName: '__ZN108_$LT$core..iter..adapters..filter..Filter$LT$I$C$P$GT$$u20$as$u20$core..iter..traits..iterator..Iterator$GT$9size_hint17h7a73e6b5e2e11f89E', symObjAddr: 0x168, symBinAddr: 0x3B17C, symSize: 0x4C }
  - { offset: 0x126789, size: 0x8, addend: 0x0, symName: '__ZN108_$LT$core..iter..adapters..filter..Filter$LT$I$C$P$GT$$u20$as$u20$core..iter..traits..iterator..Iterator$GT$9size_hint17h9c7c453a3e50203aE', symObjAddr: 0x1B4, symBinAddr: 0x3B1C8, symSize: 0x4C }
  - { offset: 0x1267EA, size: 0x8, addend: 0x0, symName: '__ZN4core4iter8adapters6filter11filter_fold28_$u7b$$u7b$closure$u7d$$u7d$17h1bc6fa7c14b732a2E', symObjAddr: 0x380, symBinAddr: 0x3B394, symSize: 0xB0 }
  - { offset: 0x126866, size: 0x8, addend: 0x0, symName: '__ZN4core4iter8adapters6filter11filter_fold28_$u7b$$u7b$closure$u7d$$u7d$17h2e0d6624e8ad97afE', symObjAddr: 0x430, symBinAddr: 0x3B444, symSize: 0xB0 }
  - { offset: 0x1268E2, size: 0x8, addend: 0x0, symName: '__ZN4core4iter8adapters6filter11filter_fold28_$u7b$$u7b$closure$u7d$$u7d$17h474f11d80dae923aE', symObjAddr: 0x4E0, symBinAddr: 0x3B4F4, symSize: 0xB0 }
  - { offset: 0x12695E, size: 0x8, addend: 0x0, symName: '__ZN4core4iter8adapters6filter11filter_fold28_$u7b$$u7b$closure$u7d$$u7d$17ha1b8c2a0791916f8E', symObjAddr: 0x590, symBinAddr: 0x3B5A4, symSize: 0xB0 }
  - { offset: 0x126AB8, size: 0x8, addend: 0x0, symName: __ZN4core4iter6traits8iterator8Iterator7collect17h1cb919442fc6b4f9E, symObjAddr: 0x200, symBinAddr: 0x3B214, symSize: 0x2C }
  - { offset: 0x126AF8, size: 0x8, addend: 0x0, symName: __ZN4core4iter6traits8iterator8Iterator7collect17h22062ea5ace1ca81E, symObjAddr: 0x22C, symBinAddr: 0x3B240, symSize: 0x2C }
  - { offset: 0x126B38, size: 0x8, addend: 0x0, symName: __ZN4core4iter6traits8iterator8Iterator7collect17h64cf4bd0c0904259E, symObjAddr: 0x258, symBinAddr: 0x3B26C, symSize: 0x2C }
  - { offset: 0x126B78, size: 0x8, addend: 0x0, symName: __ZN4core4iter6traits8iterator8Iterator7collect17hbfa354e842d208caE, symObjAddr: 0x284, symBinAddr: 0x3B298, symSize: 0x2C }
  - { offset: 0x126BB8, size: 0x8, addend: 0x0, symName: __ZN4core4iter6traits8iterator8Iterator8for_each17h49ea1fa1c151239aE, symObjAddr: 0x2B0, symBinAddr: 0x3B2C4, symSize: 0x34 }
  - { offset: 0x126C03, size: 0x8, addend: 0x0, symName: __ZN4core4iter6traits8iterator8Iterator8for_each17h73d3546bff1eff14E, symObjAddr: 0x2E4, symBinAddr: 0x3B2F8, symSize: 0x34 }
  - { offset: 0x126C4E, size: 0x8, addend: 0x0, symName: __ZN4core4iter6traits8iterator8Iterator8for_each17h9486f2a528039061E, symObjAddr: 0x318, symBinAddr: 0x3B32C, symSize: 0x34 }
  - { offset: 0x126C99, size: 0x8, addend: 0x0, symName: __ZN4core4iter6traits8iterator8Iterator8for_each17hc2124691e04a7ce2E, symObjAddr: 0x34C, symBinAddr: 0x3B360, symSize: 0x34 }
  - { offset: 0x126D48, size: 0x8, addend: 0x0, symName: '__ZN63_$LT$I$u20$as$u20$core..iter..traits..collect..IntoIterator$GT$9into_iter17h1298c06a9f9da0c6E', symObjAddr: 0x640, symBinAddr: 0x3B654, symSize: 0x1C }
  - { offset: 0x126D7F, size: 0x8, addend: 0x0, symName: '__ZN63_$LT$I$u20$as$u20$core..iter..traits..collect..IntoIterator$GT$9into_iter17h73722e6d076132daE', symObjAddr: 0x65C, symBinAddr: 0x3B670, symSize: 0x1C }
  - { offset: 0x126DB6, size: 0x8, addend: 0x0, symName: '__ZN63_$LT$I$u20$as$u20$core..iter..traits..collect..IntoIterator$GT$9into_iter17h7c6dd01bc3cf0fecE', symObjAddr: 0x678, symBinAddr: 0x3B68C, symSize: 0x1C }
  - { offset: 0x126DED, size: 0x8, addend: 0x0, symName: '__ZN63_$LT$I$u20$as$u20$core..iter..traits..collect..IntoIterator$GT$9into_iter17h83f108d933ff1724E', symObjAddr: 0x694, symBinAddr: 0x3B6A8, symSize: 0x1C }
  - { offset: 0x1271D4, size: 0x8, addend: 0x0, symName: '__ZN3std4hash6random11RandomState3new28_$u7b$$u7b$closure$u7d$$u7d$17hf9ad9e932d8b7d1eE', symObjAddr: 0x0, symBinAddr: 0x3B6C4, symSize: 0x2C }
  - { offset: 0x1272EE, size: 0x8, addend: 0x0, symName: __ZN4core4hash11BuildHasher8hash_one17hd9537d45eddc1756E, symObjAddr: 0x60, symBinAddr: 0x3B724, symSize: 0x84 }
  - { offset: 0x127604, size: 0x8, addend: 0x0, symName: '__ZN3std4hash6random11RandomState3new28_$u7b$$u7b$closure$u7d$$u7d$17hf9ad9e932d8b7d1eE', symObjAddr: 0x0, symBinAddr: 0x3B6C4, symSize: 0x2C }
  - { offset: 0x1276C5, size: 0x8, addend: 0x0, symName: '__ZN3std4hash6random11RandomState3new4KEYS29_$u7b$$u7b$constant$u7d$$u7d$28_$u7b$$u7b$closure$u7d$$u7d$17h58c926d548dcacf9E', symObjAddr: 0x2C, symBinAddr: 0x3B6F0, symSize: 0x34 }
  - { offset: 0x127897, size: 0x8, addend: 0x0, symName: __ZN4core4char7convert18from_u32_unchecked18precondition_check17hd9e6598c8203b2b6E, symObjAddr: 0x0, symBinAddr: 0x3B7A8, symSize: 0x7C }
  - { offset: 0x127922, size: 0x8, addend: 0x0, symName: __ZN4core4char7convert18from_u32_unchecked18precondition_check17hd9e6598c8203b2b6E, symObjAddr: 0x0, symBinAddr: 0x3B7A8, symSize: 0x7C }
  - { offset: 0x1279A8, size: 0x8, addend: 0x0, symName: '__ZN4core4char7convert65_$LT$impl$u20$core..convert..From$LT$char$GT$$u20$for$u20$u32$GT$4from17h1be8b6d43df06d4dE', symObjAddr: 0x7C, symBinAddr: 0x3B824, symSize: 0x10 }
  - { offset: 0x127AC8, size: 0x8, addend: 0x0, symName: '__ZN103_$LT$alloc..vec..into_iter..IntoIter$LT$T$C$A$GT$$u20$as$u20$core..iter..traits..iterator..Iterator$GT$4next17h06688ca6b537ae26E', symObjAddr: 0x0, symBinAddr: 0x3B834, symSize: 0x8C }
  - { offset: 0x1288A7, size: 0x8, addend: 0x0, symName: '__ZN103_$LT$alloc..vec..into_iter..IntoIter$LT$T$C$A$GT$$u20$as$u20$core..iter..traits..iterator..Iterator$GT$4next17h06688ca6b537ae26E', symObjAddr: 0x0, symBinAddr: 0x3B834, symSize: 0x8C }
  - { offset: 0x128A01, size: 0x8, addend: 0x0, symName: '__ZN103_$LT$alloc..vec..into_iter..IntoIter$LT$T$C$A$GT$$u20$as$u20$core..iter..traits..iterator..Iterator$GT$4next17h7bb26399391a96c0E', symObjAddr: 0x8C, symBinAddr: 0x3B8C0, symSize: 0xAC }
  - { offset: 0x128B5F, size: 0x8, addend: 0x0, symName: '__ZN103_$LT$alloc..vec..into_iter..IntoIter$LT$T$C$A$GT$$u20$as$u20$core..iter..traits..iterator..Iterator$GT$4next17ha8c31c087ca244ccE', symObjAddr: 0x138, symBinAddr: 0x3B96C, symSize: 0xA8 }
  - { offset: 0x128CBD, size: 0x8, addend: 0x0, symName: '__ZN103_$LT$alloc..vec..into_iter..IntoIter$LT$T$C$A$GT$$u20$as$u20$core..iter..traits..iterator..Iterator$GT$9size_hint17h1d7204874d667c1fE', symObjAddr: 0x1E0, symBinAddr: 0x3BA14, symSize: 0xB4 }
  - { offset: 0x128DD6, size: 0x8, addend: 0x0, symName: '__ZN103_$LT$alloc..vec..into_iter..IntoIter$LT$T$C$A$GT$$u20$as$u20$core..iter..traits..iterator..Iterator$GT$9size_hint17h61fa97915841b7a9E', symObjAddr: 0x294, symBinAddr: 0x3BAC8, symSize: 0xB4 }
  - { offset: 0x128EEF, size: 0x8, addend: 0x0, symName: '__ZN103_$LT$alloc..vec..into_iter..IntoIter$LT$T$C$A$GT$$u20$as$u20$core..iter..traits..iterator..Iterator$GT$9size_hint17hccebdc5bb7b39e2eE', symObjAddr: 0x348, symBinAddr: 0x3BB7C, symSize: 0xB4 }
  - { offset: 0x129451, size: 0x8, addend: 0x0, symName: '__ZN5alloc3vec9into_iter21IntoIter$LT$T$C$A$GT$16as_raw_mut_slice17h49c291075642eda5E', symObjAddr: 0x3FC, symBinAddr: 0x3BC30, symSize: 0xCC }
  - { offset: 0x1295A1, size: 0x8, addend: 0x0, symName: '__ZN5alloc3vec9into_iter21IntoIter$LT$T$C$A$GT$16as_raw_mut_slice17h4d03fa67a83b224dE', symObjAddr: 0x4C8, symBinAddr: 0x3BCFC, symSize: 0xCC }
  - { offset: 0x1296F1, size: 0x8, addend: 0x0, symName: '__ZN5alloc3vec9into_iter21IntoIter$LT$T$C$A$GT$16as_raw_mut_slice17hb4e09582b2328c25E', symObjAddr: 0x594, symBinAddr: 0x3BDC8, symSize: 0xCC }
  - { offset: 0x129847, size: 0x8, addend: 0x0, symName: '__ZN4core4iter6traits8iterator8Iterator12try_for_each4call28_$u7b$$u7b$closure$u7d$$u7d$17h7ca168facfb80415E', symObjAddr: 0x0, symBinAddr: 0x3BE94, symSize: 0x3C }
  - { offset: 0x129877, size: 0x8, addend: 0x0, symName: '__ZN4core4iter6traits8iterator8Iterator12try_for_each4call28_$u7b$$u7b$closure$u7d$$u7d$17h7ca168facfb80415E', symObjAddr: 0x0, symBinAddr: 0x3BE94, symSize: 0x3C }
  - { offset: 0x1298E9, size: 0x8, addend: 0x0, symName: '__ZN4core4iter6traits8iterator8Iterator8for_each4call28_$u7b$$u7b$closure$u7d$$u7d$17h0a70493e00f989d6E', symObjAddr: 0x3C, symBinAddr: 0x3BED0, symSize: 0x28 }
  - { offset: 0x129941, size: 0x8, addend: 0x0, symName: '__ZN4core4iter6traits8iterator8Iterator8for_each4call28_$u7b$$u7b$closure$u7d$$u7d$17h5def8388bff8c1f6E', symObjAddr: 0x64, symBinAddr: 0x3BEF8, symSize: 0x28 }
  - { offset: 0x129999, size: 0x8, addend: 0x0, symName: '__ZN4core4iter6traits8iterator8Iterator8for_each4call28_$u7b$$u7b$closure$u7d$$u7d$17h8a1b3fc79a535c06E', symObjAddr: 0x8C, symBinAddr: 0x3BF20, symSize: 0x28 }
  - { offset: 0x1299F1, size: 0x8, addend: 0x0, symName: '__ZN4core4iter6traits8iterator8Iterator8for_each4call28_$u7b$$u7b$closure$u7d$$u7d$17h8dae3b6cc0304a73E', symObjAddr: 0xB4, symBinAddr: 0x3BF48, symSize: 0x28 }
  - { offset: 0x129A49, size: 0x8, addend: 0x0, symName: '__ZN4core4iter6traits8iterator8Iterator8for_each4call28_$u7b$$u7b$closure$u7d$$u7d$17h8f67a2955a418d27E', symObjAddr: 0x104, symBinAddr: 0x3BF70, symSize: 0x28 }
  - { offset: 0x129AA1, size: 0x8, addend: 0x0, symName: '__ZN4core4iter6traits8iterator8Iterator8for_each4call28_$u7b$$u7b$closure$u7d$$u7d$17hb82ea709ca1c0bc9E', symObjAddr: 0x12C, symBinAddr: 0x3BF98, symSize: 0x28 }
  - { offset: 0x129AF9, size: 0x8, addend: 0x0, symName: '__ZN4core4iter6traits8iterator8Iterator8for_each4call28_$u7b$$u7b$closure$u7d$$u7d$17hc52ac0e2e1e6889aE', symObjAddr: 0x154, symBinAddr: 0x3BFC0, symSize: 0x28 }
  - { offset: 0x129B51, size: 0x8, addend: 0x0, symName: '__ZN4core4iter6traits8iterator8Iterator8for_each4call28_$u7b$$u7b$closure$u7d$$u7d$17hc9ed0aa0b60ae0f1E', symObjAddr: 0x17C, symBinAddr: 0x3BFE8, symSize: 0x3C }
  - { offset: 0x129BAA, size: 0x8, addend: 0x0, symName: '__ZN4core4iter6traits8iterator8Iterator8for_each4call28_$u7b$$u7b$closure$u7d$$u7d$17he13aa58cd7540756E', symObjAddr: 0x1B8, symBinAddr: 0x3C024, symSize: 0x2C }
  - { offset: 0x129C02, size: 0x8, addend: 0x0, symName: '__ZN4core4iter6traits8iterator8Iterator8for_each4call28_$u7b$$u7b$closure$u7d$$u7d$17he2ff68d97541846fE', symObjAddr: 0x20C, symBinAddr: 0x3C050, symSize: 0x2C }
  - { offset: 0x129C5A, size: 0x8, addend: 0x0, symName: '__ZN4core4iter6traits8iterator8Iterator8for_each4call28_$u7b$$u7b$closure$u7d$$u7d$17he62d06fcf11757eeE', symObjAddr: 0x238, symBinAddr: 0x3C07C, symSize: 0x28 }
  - { offset: 0x129CB2, size: 0x8, addend: 0x0, symName: '__ZN4core4iter6traits8iterator8Iterator8for_each4call28_$u7b$$u7b$closure$u7d$$u7d$17hed9336ea4d1c5fa8E', symObjAddr: 0x260, symBinAddr: 0x3C0A4, symSize: 0x28 }
  - { offset: 0x129D0A, size: 0x8, addend: 0x0, symName: '__ZN4core4iter6traits8iterator8Iterator8for_each4call28_$u7b$$u7b$closure$u7d$$u7d$17hf5908c5e08a6afa4E', symObjAddr: 0x288, symBinAddr: 0x3C0CC, symSize: 0x28 }
  - { offset: 0x12A26B, size: 0x8, addend: 0x0, symName: __ZN4core5slice4sort6stable5drift10create_run17h0ccd2dc5a55ac4a3E, symObjAddr: 0x0, symBinAddr: 0x3C0F4, symSize: 0x3D8 }
  - { offset: 0x12B0A8, size: 0x8, addend: 0x0, symName: __ZN4core5slice4sort6stable5drift10create_run17h0ccd2dc5a55ac4a3E, symObjAddr: 0x0, symBinAddr: 0x3C0F4, symSize: 0x3D8 }
  - { offset: 0x12B5B7, size: 0x8, addend: 0x0, symName: __ZN4core5slice4sort6stable5drift10create_run17hba9d6a632703d97aE, symObjAddr: 0x3D8, symBinAddr: 0x3C4CC, symSize: 0x3D8 }
  - { offset: 0x12BAC6, size: 0x8, addend: 0x0, symName: __ZN4core5slice4sort6stable5drift10create_run17hf6ff49c517d3ce5aE, symObjAddr: 0x7B0, symBinAddr: 0x3C8A4, symSize: 0x3D8 }
  - { offset: 0x12BFD5, size: 0x8, addend: 0x0, symName: __ZN4core5slice4sort6stable5drift16stable_quicksort17h124d9787faa93ed9E, symObjAddr: 0xB88, symBinAddr: 0x3CC7C, symSize: 0xB4 }
  - { offset: 0x12C10F, size: 0x8, addend: 0x0, symName: __ZN4core5slice4sort6stable5drift16stable_quicksort17h2c05a7d3d1ae5b3eE, symObjAddr: 0xC3C, symBinAddr: 0x3CD30, symSize: 0xB4 }
  - { offset: 0x12C249, size: 0x8, addend: 0x0, symName: __ZN4core5slice4sort6stable5drift16stable_quicksort17hb90e79577bffee2aE, symObjAddr: 0xCF0, symBinAddr: 0x3CDE4, symSize: 0xB4 }
  - { offset: 0x12C46E, size: 0x8, addend: 0x0, symName: __ZN4core5slice4sort6stable5drift4sort17h5d95a35211ca7738E, symObjAddr: 0xDA4, symBinAddr: 0x3CE98, symSize: 0x61C }
  - { offset: 0x12CD7E, size: 0x8, addend: 0x0, symName: __ZN4core5slice4sort6stable5drift4sort17hcb787c2b91a3d9e1E, symObjAddr: 0x13C0, symBinAddr: 0x3D4B4, symSize: 0x61C }
  - { offset: 0x12D68E, size: 0x8, addend: 0x0, symName: __ZN4core5slice4sort6stable5drift4sort17hf114776741682377E, symObjAddr: 0x19DC, symBinAddr: 0x3DAD0, symSize: 0x61C }
  - { offset: 0x12F2D9, size: 0x8, addend: 0x0, symName: '__ZN116_$LT$unicode_normalization..decompose..Decompositions$LT$I$GT$$u20$as$u20$core..iter..traits..iterator..Iterator$GT$4next17h1fde76fbe3d7a73fE', symObjAddr: 0x0, symBinAddr: 0x3E0EC, symSize: 0x35C }
  - { offset: 0x12F30D, size: 0x8, addend: 0x0, symName: '__ZN116_$LT$unicode_normalization..decompose..Decompositions$LT$I$GT$$u20$as$u20$core..iter..traits..iterator..Iterator$GT$4next17h1fde76fbe3d7a73fE', symObjAddr: 0x0, symBinAddr: 0x3E0EC, symSize: 0x35C }
  - { offset: 0x12F608, size: 0x8, addend: 0x0, symName: '__ZN116_$LT$unicode_normalization..decompose..Decompositions$LT$I$GT$$u20$as$u20$core..iter..traits..iterator..Iterator$GT$4next28_$u7b$$u7b$closure$u7d$$u7d$17h1ff20768122db629E', symObjAddr: 0x35C, symBinAddr: 0x3E448, symSize: 0x30 }
  - { offset: 0x12F64A, size: 0x8, addend: 0x0, symName: '__ZN116_$LT$unicode_normalization..decompose..Decompositions$LT$I$GT$$u20$as$u20$core..iter..traits..iterator..Iterator$GT$4next28_$u7b$$u7b$closure$u7d$$u7d$17h591c405161cb84bfE', symObjAddr: 0x38C, symBinAddr: 0x3E478, symSize: 0x30 }
  - { offset: 0x12F765, size: 0x8, addend: 0x0, symName: '__ZN21unicode_normalization9decompose23Decompositions$LT$I$GT$12sort_pending28_$u7b$$u7b$closure$u7d$$u7d$17ha9cc77679303060dE', symObjAddr: 0x9C0, symBinAddr: 0x3EAAC, symSize: 0x1C }
  - { offset: 0x13008E, size: 0x8, addend: 0x0, symName: __ZN4core4iter6traits8iterator8Iterator6by_ref17h534da90eb8c2e0acE, symObjAddr: 0xBD4, symBinAddr: 0x3ECC0, symSize: 0x14 }
  - { offset: 0x1300CB, size: 0x8, addend: 0x0, symName: '__ZN72_$LT$$RF$mut$u20$I$u20$as$u20$core..iter..traits..iterator..Iterator$GT$4next17hb2c45a0efd752fe0E', symObjAddr: 0xBFC, symBinAddr: 0x3ECE8, symSize: 0x28 }
  - { offset: 0x13010E, size: 0x8, addend: 0x0, symName: '__ZN63_$LT$I$u20$as$u20$core..iter..traits..collect..IntoIterator$GT$9into_iter17h3f28082ae6b2d549E', symObjAddr: 0xBE8, symBinAddr: 0x3ECD4, symSize: 0x14 }
  - { offset: 0x1302C3, size: 0x8, addend: 0x0, symName: '__ZN21unicode_normalization9decompose23Decompositions$LT$I$GT$12reset_buffer17hd3f0d2ab1144a440E', symObjAddr: 0x3BC, symBinAddr: 0x3E4A8, symSize: 0x4A0 }
  - { offset: 0x13064A, size: 0x8, addend: 0x0, symName: '__ZN21unicode_normalization9decompose23Decompositions$LT$I$GT$12sort_pending17h2498a53c24df5234E', symObjAddr: 0x85C, symBinAddr: 0x3E948, symSize: 0x164 }
  - { offset: 0x130767, size: 0x8, addend: 0x0, symName: '__ZN21unicode_normalization9decompose23Decompositions$LT$I$GT$14new_compatible17h8c9b5d55b019a66aE', symObjAddr: 0x9DC, symBinAddr: 0x3EAC8, symSize: 0x98 }
  - { offset: 0x1307A6, size: 0x8, addend: 0x0, symName: '__ZN21unicode_normalization9decompose23Decompositions$LT$I$GT$20increment_next_ready17h2fcb6a2e1553562eE', symObjAddr: 0xA74, symBinAddr: 0x3EB60, symSize: 0x80 }
  - { offset: 0x1307E6, size: 0x8, addend: 0x0, symName: '__ZN21unicode_normalization9decompose23Decompositions$LT$I$GT$9push_back17h306ffd2c7415d380E', symObjAddr: 0xAF4, symBinAddr: 0x3EBE0, symSize: 0xE0 }
  - { offset: 0x1308E2, size: 0x8, addend: 0x0, symName: '__ZN185_$LT$core..ops..control_flow..ControlFlow$LT$B$C$C$GT$$u20$as$u20$core..ops..try_trait..FromResidual$LT$core..ops..control_flow..ControlFlow$LT$B$C$core..convert..Infallible$GT$$GT$$GT$13from_residual17h14244167d5ce6d4eE', symObjAddr: 0x0, symBinAddr: 0x3ED10, symSize: 0x38 }
  - { offset: 0x130903, size: 0x8, addend: 0x0, symName: '__ZN185_$LT$core..ops..control_flow..ControlFlow$LT$B$C$C$GT$$u20$as$u20$core..ops..try_trait..FromResidual$LT$core..ops..control_flow..ControlFlow$LT$B$C$core..convert..Infallible$GT$$GT$$GT$13from_residual17h14244167d5ce6d4eE', symObjAddr: 0x0, symBinAddr: 0x3ED10, symSize: 0x38 }
  - { offset: 0x130941, size: 0x8, addend: 0x0, symName: '__ZN185_$LT$core..ops..control_flow..ControlFlow$LT$B$C$C$GT$$u20$as$u20$core..ops..try_trait..FromResidual$LT$core..ops..control_flow..ControlFlow$LT$B$C$core..convert..Infallible$GT$$GT$$GT$13from_residual17h8cc271ee68db9e7fE', symObjAddr: 0x38, symBinAddr: 0x3ED48, symSize: 0x30 }
  - { offset: 0x13098A, size: 0x8, addend: 0x0, symName: __ZN4core3ops12control_flow11ControlFlow5Break17h3e22a95fa2b55160E, symObjAddr: 0x68, symBinAddr: 0x3ED78, symSize: 0x18 }
  - { offset: 0x1309CB, size: 0x8, addend: 0x0, symName: '__ZN95_$LT$core..ops..control_flow..ControlFlow$LT$B$C$C$GT$$u20$as$u20$core..ops..try_trait..Try$GT$11from_output17h0631e3e7e8c88eacE', symObjAddr: 0x80, symBinAddr: 0x3ED90, symSize: 0x10 }
  - { offset: 0x130A09, size: 0x8, addend: 0x0, symName: '__ZN95_$LT$core..ops..control_flow..ControlFlow$LT$B$C$C$GT$$u20$as$u20$core..ops..try_trait..Try$GT$11from_output17h624afdb09046d7b5E', symObjAddr: 0x90, symBinAddr: 0x3EDA0, symSize: 0x10 }
  - { offset: 0x130A47, size: 0x8, addend: 0x0, symName: '__ZN95_$LT$core..ops..control_flow..ControlFlow$LT$B$C$C$GT$$u20$as$u20$core..ops..try_trait..Try$GT$6branch17h9d83cfe826143492E', symObjAddr: 0xA0, symBinAddr: 0x3EDB0, symSize: 0x70 }
  - { offset: 0x130AC1, size: 0x8, addend: 0x0, symName: '__ZN95_$LT$core..ops..control_flow..ControlFlow$LT$B$C$C$GT$$u20$as$u20$core..ops..try_trait..Try$GT$6branch17hb11504262e9be85dE', symObjAddr: 0x110, symBinAddr: 0x3EE20, symSize: 0x70 }
  - { offset: 0x130EB9, size: 0x8, addend: 0x0, symName: '__ZN100_$LT$core..iter..adapters..fuse..Fuse$LT$I$GT$$u20$as$u20$core..iter..traits..iterator..Iterator$GT$4next17h079044a635f630dcE', symObjAddr: 0x0, symBinAddr: 0x3EE90, symSize: 0x24 }
  - { offset: 0x130EDF, size: 0x8, addend: 0x0, symName: '__ZN100_$LT$core..iter..adapters..fuse..Fuse$LT$I$GT$$u20$as$u20$core..iter..traits..iterator..Iterator$GT$4next17h079044a635f630dcE', symObjAddr: 0x0, symBinAddr: 0x3EE90, symSize: 0x24 }
  - { offset: 0x130F1A, size: 0x8, addend: 0x0, symName: '__ZN107_$LT$core..iter..adapters..fuse..Fuse$LT$I$GT$$u20$as$u20$core..iter..adapters..fuse..FuseImpl$LT$I$GT$$GT$4next17hf727b74efae757e3E', symObjAddr: 0x24, symBinAddr: 0x3EEB4, symSize: 0x7C }
  - { offset: 0x1313F4, size: 0x8, addend: 0x0, symName: '__ZN100_$LT$core..ops..range..RangeInclusive$LT$T$GT$$u20$as$u20$core..ops..range..RangeBounds$LT$T$GT$$GT$11start_bound17h3209a7fd1df786ccE', symObjAddr: 0x0, symBinAddr: 0x3EF30, symSize: 0x1C }
  - { offset: 0x131415, size: 0x8, addend: 0x0, symName: '__ZN100_$LT$core..ops..range..RangeInclusive$LT$T$GT$$u20$as$u20$core..ops..range..RangeBounds$LT$T$GT$$GT$11start_bound17h3209a7fd1df786ccE', symObjAddr: 0x0, symBinAddr: 0x3EF30, symSize: 0x1C }
  - { offset: 0x13144C, size: 0x8, addend: 0x0, symName: '__ZN100_$LT$core..ops..range..RangeInclusive$LT$T$GT$$u20$as$u20$core..ops..range..RangeBounds$LT$T$GT$$GT$9end_bound17h75dc4c98b420ff1bE', symObjAddr: 0x1C, symBinAddr: 0x3EF4C, symSize: 0x58 }
  - { offset: 0x1314DE, size: 0x8, addend: 0x0, symName: __ZN4core3ops5range11RangeBounds8contains17he4e3017869d1efa4E, symObjAddr: 0x57C, symBinAddr: 0x3F4AC, symSize: 0x1AC }
  - { offset: 0x13170D, size: 0x8, addend: 0x0, symName: '__ZN73_$LT$core..ops..range..Range$LT$Idx$GT$$u20$as$u20$core..clone..Clone$GT$5clone17h2622797e305acaa9E', symObjAddr: 0x7B0, symBinAddr: 0x3F6E0, symSize: 0x40 }
  - { offset: 0x131A10, size: 0x8, addend: 0x0, symName: '__ZN106_$LT$core..ops..range..Range$LT$usize$GT$$u20$as$u20$core..slice..index..SliceIndex$LT$$u5b$T$u5d$$GT$$GT$3get17hb1478db69012c3feE', symObjAddr: 0x74, symBinAddr: 0x3EFA4, symSize: 0xC0 }
  - { offset: 0x131AC2, size: 0x8, addend: 0x0, symName: '__ZN106_$LT$core..ops..range..Range$LT$usize$GT$$u20$as$u20$core..slice..index..SliceIndex$LT$$u5b$T$u5d$$GT$$GT$9index_mut17h2da2fd54c7ce8aa0E', symObjAddr: 0x134, symBinAddr: 0x3F064, symSize: 0xBC }
  - { offset: 0x131B6D, size: 0x8, addend: 0x0, symName: '__ZN106_$LT$core..ops..range..Range$LT$usize$GT$$u20$as$u20$core..slice..index..SliceIndex$LT$$u5b$T$u5d$$GT$$GT$9index_mut17hcc4bfacf98792c2aE', symObjAddr: 0x1F0, symBinAddr: 0x3F120, symSize: 0xBC }
  - { offset: 0x131C94, size: 0x8, addend: 0x0, symName: '__ZN108_$LT$core..ops..range..RangeTo$LT$usize$GT$$u20$as$u20$core..slice..index..SliceIndex$LT$$u5b$T$u5d$$GT$$GT$3get17h7669207140593d2fE', symObjAddr: 0x3A4, symBinAddr: 0x3F2D4, symSize: 0x48 }
  - { offset: 0x131CDA, size: 0x8, addend: 0x0, symName: '__ZN108_$LT$core..ops..range..RangeTo$LT$usize$GT$$u20$as$u20$core..slice..index..SliceIndex$LT$$u5b$T$u5d$$GT$$GT$9index_mut17h096bd384a30a9428E', symObjAddr: 0x3EC, symBinAddr: 0x3F31C, symSize: 0x54 }
  - { offset: 0x131D20, size: 0x8, addend: 0x0, symName: '__ZN108_$LT$core..ops..range..RangeTo$LT$usize$GT$$u20$as$u20$core..slice..index..SliceIndex$LT$$u5b$T$u5d$$GT$$GT$9index_mut17h84398a52b3fcdab4E', symObjAddr: 0x440, symBinAddr: 0x3F370, symSize: 0x54 }
  - { offset: 0x131DA7, size: 0x8, addend: 0x0, symName: '__ZN110_$LT$core..ops..range..RangeFrom$LT$usize$GT$$u20$as$u20$core..slice..index..SliceIndex$LT$$u5b$T$u5d$$GT$$GT$5index17h21ba481992617517E', symObjAddr: 0x494, symBinAddr: 0x3F3C4, symSize: 0x70 }
  - { offset: 0x131E39, size: 0x8, addend: 0x0, symName: '__ZN110_$LT$core..ops..range..RangeFrom$LT$usize$GT$$u20$as$u20$core..slice..index..SliceIndex$LT$$u5b$T$u5d$$GT$$GT$9index_mut17h77d322ac1bd9af66E', symObjAddr: 0x504, symBinAddr: 0x3F434, symSize: 0x78 }
  - { offset: 0x13208F, size: 0x8, addend: 0x0, symName: '__ZN107_$LT$core..ops..range..RangeInclusive$LT$T$GT$$u20$as$u20$core..iter..range..RangeInclusiveIteratorImpl$GT$9spec_next17hb1ce079aac7c6c15E', symObjAddr: 0x2AC, symBinAddr: 0x3F1DC, symSize: 0xF8 }
  - { offset: 0x132190, size: 0x8, addend: 0x0, symName: '__ZN4core4iter5range101_$LT$impl$u20$core..iter..traits..iterator..Iterator$u20$for$u20$core..ops..range..Range$LT$A$GT$$GT$4next17h16423bcc38e43521E', symObjAddr: 0x754, symBinAddr: 0x3F684, symSize: 0x24 }
  - { offset: 0x1321CD, size: 0x8, addend: 0x0, symName: '__ZN4core4iter5range110_$LT$impl$u20$core..iter..traits..iterator..Iterator$u20$for$u20$core..ops..range..RangeInclusive$LT$A$GT$$GT$4next17h66713105a1e6fdf8E', symObjAddr: 0x778, symBinAddr: 0x3F6A8, symSize: 0x24 }
  - { offset: 0x13220A, size: 0x8, addend: 0x0, symName: '__ZN89_$LT$core..ops..range..Range$LT$T$GT$$u20$as$u20$core..iter..range..RangeIteratorImpl$GT$9spec_next17h9b6319bcf22b15a3E', symObjAddr: 0x7F0, symBinAddr: 0x3F720, symSize: 0x94 }
  - { offset: 0x132296, size: 0x8, addend: 0x0, symName: '__ZN63_$LT$I$u20$as$u20$core..iter..traits..collect..IntoIterator$GT$9into_iter17h47def59882cdaa73E', symObjAddr: 0x79C, symBinAddr: 0x3F6CC, symSize: 0x14 }
  - { offset: 0x132454, size: 0x8, addend: 0x0, symName: '__ZN4core3ops5range25RangeInclusive$LT$Idx$GT$8contains17h2ad18620495a5440E', symObjAddr: 0x728, symBinAddr: 0x3F658, symSize: 0x2C }
  - { offset: 0x13250C, size: 0x8, addend: 0x0, symName: '__ZN116_$LT$unicode_normalization..recompose..Recompositions$LT$I$GT$$u20$as$u20$core..iter..traits..iterator..Iterator$GT$4next17hce795ca76c853350E', symObjAddr: 0x0, symBinAddr: 0x3F7B4, symSize: 0x704 }
  - { offset: 0x132588, size: 0x8, addend: 0x0, symName: '__ZN116_$LT$unicode_normalization..recompose..Recompositions$LT$I$GT$$u20$as$u20$core..iter..traits..iterator..Iterator$GT$4next17hce795ca76c853350E', symObjAddr: 0x0, symBinAddr: 0x3F7B4, symSize: 0x704 }
  - { offset: 0x133342, size: 0x8, addend: 0x0, symName: __ZN4core4iter6traits8iterator8Iterator4fold17h8eb7c87d984c45e8E, symObjAddr: 0x7BC, symBinAddr: 0x3FF70, symSize: 0xC4 }
  - { offset: 0x1333D2, size: 0x8, addend: 0x0, symName: __ZN4core4iter6traits8iterator8Iterator7collect17hb90d2769457951e1E, symObjAddr: 0x880, symBinAddr: 0x40034, symSize: 0x14 }
  - { offset: 0x133413, size: 0x8, addend: 0x0, symName: __ZN4core4iter6traits8iterator8Iterator8for_each17hb294860b759332c6E, symObjAddr: 0x894, symBinAddr: 0x40048, symSize: 0x24 }
  - { offset: 0x13345F, size: 0x8, addend: 0x0, symName: __ZN4core4iter6traits8iterator8Iterator9size_hint17h6df6a094c4cf269bE, symObjAddr: 0x8B8, symBinAddr: 0x4006C, symSize: 0x34 }
  - { offset: 0x1334BF, size: 0x8, addend: 0x0, symName: '__ZN63_$LT$I$u20$as$u20$core..iter..traits..collect..IntoIterator$GT$9into_iter17hd573fc5c35aeac51E', symObjAddr: 0x8EC, symBinAddr: 0x400A0, symSize: 0x30 }
  - { offset: 0x1335F7, size: 0x8, addend: 0x0, symName: '__ZN21unicode_normalization9recompose23Recompositions$LT$I$GT$14new_compatible17h40bf3f01d533059fE', symObjAddr: 0x704, symBinAddr: 0x3FEB8, symSize: 0xB8 }
  - { offset: 0x1336AD, size: 0x8, addend: 0x0, symName: __ZN4core3ptr14read_unaligned17h294deeeefb0853faE, symObjAddr: 0x0, symBinAddr: 0x400D0, symSize: 0x9C }
  - { offset: 0x1338A7, size: 0x8, addend: 0x0, symName: __ZN4core3ptr14read_unaligned17h294deeeefb0853faE, symObjAddr: 0x0, symBinAddr: 0x400D0, symSize: 0x9C }
  - { offset: 0x1339F2, size: 0x8, addend: 0x0, symName: __ZN4core3ptr15write_unaligned17h6947078024307ab0E, symObjAddr: 0x9C, symBinAddr: 0x4016C, symSize: 0x78 }
  - { offset: 0x133BE2, size: 0x8, addend: 0x0, symName: __ZN4core5array11try_from_fn17h21002b4731dfc2e5E, symObjAddr: 0x0, symBinAddr: 0x401E4, symSize: 0x5C }
  - { offset: 0x133FD9, size: 0x8, addend: 0x0, symName: __ZN4core5array11try_from_fn17h21002b4731dfc2e5E, symObjAddr: 0x0, symBinAddr: 0x401E4, symSize: 0x5C }
  - { offset: 0x134051, size: 0x8, addend: 0x0, symName: __ZN4core5array11try_from_fn17hf7dfa77c5c77e9b6E, symObjAddr: 0x5C, symBinAddr: 0x40240, symSize: 0x6C }
  - { offset: 0x134113, size: 0x8, addend: 0x0, symName: __ZN4core5array18try_from_fn_erased17h41181781ef4da226E, symObjAddr: 0xC8, symBinAddr: 0x402AC, symSize: 0x178 }
  - { offset: 0x1342B6, size: 0x8, addend: 0x0, symName: __ZN4core5array18try_from_fn_erased17hf46c7dbeb52c9b5eE, symObjAddr: 0x240, symBinAddr: 0x40424, symSize: 0x1B4 }
  - { offset: 0x134415, size: 0x8, addend: 0x0, symName: '__ZN4core5array40_$LT$impl$u20$$u5b$T$u3b$$u20$N$u5d$$GT$3map17h137d83f9114092b5E', symObjAddr: 0x3F4, symBinAddr: 0x405D8, symSize: 0x38 }
  - { offset: 0x13446D, size: 0x8, addend: 0x0, symName: '__ZN4core5array40_$LT$impl$u20$$u5b$T$u3b$$u20$N$u5d$$GT$3map17hcc71065d68b6b5cdE', symObjAddr: 0x42C, symBinAddr: 0x40610, symSize: 0x30 }
  - { offset: 0x1344C5, size: 0x8, addend: 0x0, symName: '__ZN4core5array40_$LT$impl$u20$$u5b$T$u3b$$u20$N$u5d$$GT$7try_map17h0084d309f8bda299E', symObjAddr: 0x45C, symBinAddr: 0x40640, symSize: 0xB4 }
  - { offset: 0x134613, size: 0x8, addend: 0x0, symName: '__ZN4core5array40_$LT$impl$u20$$u5b$T$u3b$$u20$N$u5d$$GT$7try_map17h7b906fb1c24d98f1E', symObjAddr: 0x510, symBinAddr: 0x406F4, symSize: 0xB4 }
  - { offset: 0x135247, size: 0x8, addend: 0x0, symName: '__ZN4core4iter8adapters7step_by15StepBy$LT$I$GT$3new17hfc3fb2a3dc178efdE', symObjAddr: 0x0, symBinAddr: 0x407A8, symSize: 0xE0 }
  - { offset: 0x135309, size: 0x8, addend: 0x0, symName: '__ZN4core4iter8adapters7step_by15StepBy$LT$I$GT$3new17hfc3fb2a3dc178efdE', symObjAddr: 0x0, symBinAddr: 0x407A8, symSize: 0xE0 }
  - { offset: 0x13537D, size: 0x8, addend: 0x0, symName: '__ZN108_$LT$core..iter..adapters..peekable..Peekable$LT$I$GT$$u20$as$u20$core..iter..traits..iterator..Iterator$GT$4next17h4328442a61071bddE', symObjAddr: 0x0, symBinAddr: 0x40888, symSize: 0x6C }
  - { offset: 0x13553D, size: 0x8, addend: 0x0, symName: '__ZN108_$LT$core..iter..adapters..peekable..Peekable$LT$I$GT$$u20$as$u20$core..iter..traits..iterator..Iterator$GT$4next17h4328442a61071bddE', symObjAddr: 0x0, symBinAddr: 0x40888, symSize: 0x6C }
  - { offset: 0x135602, size: 0x8, addend: 0x0, symName: '__ZN4core4iter8adapters8peekable17Peekable$LT$I$GT$4peek28_$u7b$$u7b$closure$u7d$$u7d$17hb6caa10e49152696E', symObjAddr: 0xDC, symBinAddr: 0x40964, symSize: 0x24 }
  - { offset: 0x1357A2, size: 0x8, addend: 0x0, symName: '__ZN4core4iter8adapters8peekable17Peekable$LT$I$GT$4peek17h6d7e8085f83cc9b5E', symObjAddr: 0x6C, symBinAddr: 0x408F4, symSize: 0x70 }
  - { offset: 0x13584C, size: 0x8, addend: 0x0, symName: '__ZN11jpnorm_core9l2_script8numerals13parse_kansuji28_$u7b$$u7b$closure$u7d$$u7d$17h89817ca158b3f638E', symObjAddr: 0x0, symBinAddr: 0x40988, symSize: 0x8C }
  - { offset: 0x13586D, size: 0x8, addend: 0x0, symName: '__ZN11jpnorm_core9l2_script8numerals13parse_kansuji28_$u7b$$u7b$closure$u7d$$u7d$17h89817ca158b3f638E', symObjAddr: 0x0, symBinAddr: 0x40988, symSize: 0x8C }
  - { offset: 0x1358BC, size: 0x8, addend: 0x0, symName: '__ZN11jpnorm_core9l2_script8numerals13parse_kansuji28_$u7b$$u7b$closure$u7d$$u7d$17h89a29e8012afe0dfE', symObjAddr: 0x8C, symBinAddr: 0x40A14, symSize: 0x120 }
  - { offset: 0x1358F2, size: 0x8, addend: 0x0, symName: '__ZN11jpnorm_core9l2_script8numerals13parse_kansuji28_$u7b$$u7b$closure$u7d$$u7d$17h89a6bd0ec91aef19E', symObjAddr: 0x1AC, symBinAddr: 0x40B34, symSize: 0x40 }
  - { offset: 0x135941, size: 0x8, addend: 0x0, symName: '__ZN11jpnorm_core9l2_script8numerals13parse_kansuji28_$u7b$$u7b$closure$u7d$$u7d$17ha3689003e2603d40E', symObjAddr: 0x1EC, symBinAddr: 0x40B74, symSize: 0x78 }
  - { offset: 0x135A1D, size: 0x8, addend: 0x0, symName: '__ZN5alloc3str56_$LT$impl$u20$alloc..borrow..ToOwned$u20$for$u20$str$GT$8to_owned17h6375eb197f9fb60eE', symObjAddr: 0x0, symBinAddr: 0x40BEC, symSize: 0x50 }
  - { offset: 0x135CD3, size: 0x8, addend: 0x0, symName: '__ZN5alloc3str56_$LT$impl$u20$alloc..borrow..ToOwned$u20$for$u20$str$GT$8to_owned17h6375eb197f9fb60eE', symObjAddr: 0x0, symBinAddr: 0x40BEC, symSize: 0x50 }
  - { offset: 0x135DDB, size: 0x8, addend: 0x0, symName: '__ZN3std3sys12thread_local6native4lazy20Storage$LT$T$C$D$GT$11get_or_init17h46e08e7803eccd98E', symObjAddr: 0x0, symBinAddr: 0x40C3C, symSize: 0x94 }
  - { offset: 0x136440, size: 0x8, addend: 0x0, symName: '__ZN78_$LT$$u21$$u20$as$u20$std..sys..thread_local..native..lazy..DestroyedState$GT$13register_dtor17h1b0278efaaea1bc7E', symObjAddr: 0x26C, symBinAddr: 0x40CD0, symSize: 0x10 }
  - { offset: 0x136545, size: 0x8, addend: 0x0, symName: '__ZN3std3sys12thread_local6native4lazy20Storage$LT$T$C$D$GT$11get_or_init17h46e08e7803eccd98E', symObjAddr: 0x0, symBinAddr: 0x40C3C, symSize: 0x94 }
  - { offset: 0x1367A6, size: 0x8, addend: 0x0, symName: '__ZN3std3sys12thread_local6native4lazy20Storage$LT$T$C$D$GT$16get_or_init_slow17hea4892c2fc461039E', symObjAddr: 0x94, symBinAddr: 0xBBED0, symSize: 0x1D8 }
  - { offset: 0x136A97, size: 0x8, addend: 0x0, symName: __ZN11jpnorm_core6config6Config10for_search17h1f7edaef0f21da3bE, symObjAddr: 0x0, symBinAddr: 0x40CE0, symSize: 0xC4 }
  - { offset: 0x136E37, size: 0x8, addend: 0x0, symName: __ZN11jpnorm_core6config6Config10for_search17h1f7edaef0f21da3bE, symObjAddr: 0x0, symBinAddr: 0x40CE0, symSize: 0xC4 }
  - { offset: 0x136E4A, size: 0x8, addend: 0x0, symName: __ZN11jpnorm_core6config6Config11for_compare17h58c6c57460baafd3E, symObjAddr: 0xC4, symBinAddr: 0x40DA4, symSize: 0xAC }
  - { offset: 0x136E5D, size: 0x8, addend: 0x0, symName: __ZN11jpnorm_core6config6Config11for_display17h2ab77ff4d13d9e18E, symObjAddr: 0x170, symBinAddr: 0x40E50, symSize: 0xA4 }
  - { offset: 0x136E70, size: 0x8, addend: 0x0, symName: __ZN11jpnorm_core6config6Config11from_preset17hcc58b19f16b0ee55E, symObjAddr: 0x214, symBinAddr: 0x40EF4, symSize: 0xA4 }
  - { offset: 0x136E92, size: 0x8, addend: 0x0, symName: __ZN11jpnorm_core6config6Config15neologdn_compat17hc9259e47762821cfE, symObjAddr: 0x2B8, symBinAddr: 0x40F98, symSize: 0xA4 }
  - { offset: 0x136EA5, size: 0x8, addend: 0x0, symName: __ZN11jpnorm_core6config6Config4none17h9453a055d1c132a0E, symObjAddr: 0x35C, symBinAddr: 0x4103C, symSize: 0xA0 }
  - { offset: 0x136ED6, size: 0x8, addend: 0x0, symName: __ZN4core5slice6memchr6memchr17h6c4b82817670d822E, symObjAddr: 0x0, symBinAddr: 0x410DC, symSize: 0x114 }
  - { offset: 0x136F27, size: 0x8, addend: 0x0, symName: __ZN4core5slice6memchr6memchr17h6c4b82817670d822E, symObjAddr: 0x0, symBinAddr: 0x410DC, symSize: 0x114 }
  - { offset: 0x137055, size: 0x8, addend: 0x0, symName: '__ZN106_$LT$core..slice..iter..Iter$LT$T$GT$$u20$as$u20$core..iter..traits..double_ended..DoubleEndedIterator$GT$9next_back17h3e15ec25c1437461E', symObjAddr: 0x0, symBinAddr: 0x411F0, symSize: 0xE8 }
  - { offset: 0x137399, size: 0x8, addend: 0x0, symName: '__ZN106_$LT$core..slice..iter..Iter$LT$T$GT$$u20$as$u20$core..iter..traits..double_ended..DoubleEndedIterator$GT$9next_back17h3e15ec25c1437461E', symObjAddr: 0x0, symBinAddr: 0x411F0, symSize: 0xE8 }
  - { offset: 0x1376E5, size: 0x8, addend: 0x0, symName: '__ZN4core5slice4iter87_$LT$impl$u20$core..iter..traits..collect..IntoIterator$u20$for$u20$$RF$$u5b$T$u5d$$GT$9into_iter17h8060eb2e42d9b81bE', symObjAddr: 0x50C, symBinAddr: 0x416FC, symSize: 0x50 }
  - { offset: 0x137822, size: 0x8, addend: 0x0, symName: '__ZN4core5slice4iter87_$LT$impl$u20$core..iter..traits..collect..IntoIterator$u20$for$u20$$RF$$u5b$T$u5d$$GT$9into_iter17hcaac295a2c791ac5E', symObjAddr: 0x55C, symBinAddr: 0x4174C, symSize: 0x50 }
  - { offset: 0x13795F, size: 0x8, addend: 0x0, symName: '__ZN4core5slice4iter87_$LT$impl$u20$core..iter..traits..collect..IntoIterator$u20$for$u20$$RF$$u5b$T$u5d$$GT$9into_iter17hd247cf55886df506E', symObjAddr: 0x5AC, symBinAddr: 0x4179C, symSize: 0x50 }
  - { offset: 0x137B45, size: 0x8, addend: 0x0, symName: '__ZN91_$LT$core..slice..iter..Iter$LT$T$GT$$u20$as$u20$core..iter..traits..iterator..Iterator$GT$3all17hf35f837dc8ea6c1fE', symObjAddr: 0x618, symBinAddr: 0x41808, symSize: 0xE0 }
  - { offset: 0x137C6D, size: 0x8, addend: 0x0, symName: '__ZN91_$LT$core..slice..iter..Iter$LT$T$GT$$u20$as$u20$core..iter..traits..iterator..Iterator$GT$3any17h0676c1495ae485d2E', symObjAddr: 0x6F8, symBinAddr: 0x418E8, symSize: 0xE0 }
  - { offset: 0x137D95, size: 0x8, addend: 0x0, symName: '__ZN91_$LT$core..slice..iter..Iter$LT$T$GT$$u20$as$u20$core..iter..traits..iterator..Iterator$GT$3any17h07b936d858ea7a2fE', symObjAddr: 0x7D8, symBinAddr: 0x419C8, symSize: 0xE0 }
  - { offset: 0x137EBD, size: 0x8, addend: 0x0, symName: '__ZN91_$LT$core..slice..iter..Iter$LT$T$GT$$u20$as$u20$core..iter..traits..iterator..Iterator$GT$3any17hd9919490b907f69eE', symObjAddr: 0x8B8, symBinAddr: 0x41AA8, symSize: 0xE0 }
  - { offset: 0x137F96, size: 0x8, addend: 0x0, symName: '__ZN91_$LT$core..slice..iter..Iter$LT$T$GT$$u20$as$u20$core..iter..traits..iterator..Iterator$GT$4fold17h4f226096e92fc847E', symObjAddr: 0x998, symBinAddr: 0x41B88, symSize: 0x1A0 }
  - { offset: 0x138196, size: 0x8, addend: 0x0, symName: '__ZN91_$LT$core..slice..iter..Iter$LT$T$GT$$u20$as$u20$core..iter..traits..iterator..Iterator$GT$4fold17hedcdd4a226e55ef9E', symObjAddr: 0xB38, symBinAddr: 0x41D28, symSize: 0x1F0 }
  - { offset: 0x13839F, size: 0x8, addend: 0x0, symName: '__ZN91_$LT$core..slice..iter..Iter$LT$T$GT$$u20$as$u20$core..iter..traits..iterator..Iterator$GT$4fold17hf54bf3b5972c3a2eE', symObjAddr: 0xD28, symBinAddr: 0x41F18, symSize: 0x1D8 }
  - { offset: 0x1385A0, size: 0x8, addend: 0x0, symName: '__ZN91_$LT$core..slice..iter..Iter$LT$T$GT$$u20$as$u20$core..iter..traits..iterator..Iterator$GT$4next17h54ad25a7e0ec66bfE', symObjAddr: 0xF00, symBinAddr: 0x420F0, symSize: 0x84 }
  - { offset: 0x138656, size: 0x8, addend: 0x0, symName: '__ZN91_$LT$core..slice..iter..Iter$LT$T$GT$$u20$as$u20$core..iter..traits..iterator..Iterator$GT$4next17h7d2450a09b9d5815E', symObjAddr: 0xF84, symBinAddr: 0x42174, symSize: 0x84 }
  - { offset: 0x13870C, size: 0x8, addend: 0x0, symName: '__ZN91_$LT$core..slice..iter..Iter$LT$T$GT$$u20$as$u20$core..iter..traits..iterator..Iterator$GT$4next17ha54f86eae595dc2fE', symObjAddr: 0x1008, symBinAddr: 0x421F8, symSize: 0x84 }
  - { offset: 0x1387C2, size: 0x8, addend: 0x0, symName: '__ZN91_$LT$core..slice..iter..Iter$LT$T$GT$$u20$as$u20$core..iter..traits..iterator..Iterator$GT$4next17hc2774b6cd1b43047E', symObjAddr: 0x108C, symBinAddr: 0x4227C, symSize: 0x84 }
  - { offset: 0x138878, size: 0x8, addend: 0x0, symName: '__ZN91_$LT$core..slice..iter..Iter$LT$T$GT$$u20$as$u20$core..iter..traits..iterator..Iterator$GT$4next17hd4c756812f8b65eeE', symObjAddr: 0x1110, symBinAddr: 0x42300, symSize: 0x84 }
  - { offset: 0x13892E, size: 0x8, addend: 0x0, symName: '__ZN91_$LT$core..slice..iter..Iter$LT$T$GT$$u20$as$u20$core..iter..traits..iterator..Iterator$GT$9size_hint17h1c613d8f6314d581E', symObjAddr: 0x1194, symBinAddr: 0x42384, symSize: 0xB4 }
  - { offset: 0x138A5B, size: 0x8, addend: 0x0, symName: '__ZN91_$LT$core..slice..iter..Iter$LT$T$GT$$u20$as$u20$core..iter..traits..iterator..Iterator$GT$9size_hint17h2467316a9217b0eeE', symObjAddr: 0x1248, symBinAddr: 0x42438, symSize: 0xB4 }
  - { offset: 0x138B8E, size: 0x8, addend: 0x0, symName: '__ZN94_$LT$core..slice..iter..IterMut$LT$T$GT$$u20$as$u20$core..iter..traits..iterator..Iterator$GT$4fold17h4513b4e5b131cb78E', symObjAddr: 0x12FC, symBinAddr: 0x424EC, symSize: 0x1D8 }
  - { offset: 0x138D8F, size: 0x8, addend: 0x0, symName: '__ZN94_$LT$core..slice..iter..IterMut$LT$T$GT$$u20$as$u20$core..iter..traits..iterator..Iterator$GT$4fold17h597bed479a2f79f2E', symObjAddr: 0x14D4, symBinAddr: 0x426C4, symSize: 0x1D8 }
  - { offset: 0x138F90, size: 0x8, addend: 0x0, symName: '__ZN94_$LT$core..slice..iter..IterMut$LT$T$GT$$u20$as$u20$core..iter..traits..iterator..Iterator$GT$4fold17hb4e9fb9650bdb534E', symObjAddr: 0x16AC, symBinAddr: 0x4289C, symSize: 0x1A8 }
  - { offset: 0x139190, size: 0x8, addend: 0x0, symName: '__ZN94_$LT$core..slice..iter..IterMut$LT$T$GT$$u20$as$u20$core..iter..traits..iterator..Iterator$GT$4fold17hb591cbcfbb411418E', symObjAddr: 0x1854, symBinAddr: 0x42A44, symSize: 0x1A8 }
  - { offset: 0x139390, size: 0x8, addend: 0x0, symName: '__ZN94_$LT$core..slice..iter..IterMut$LT$T$GT$$u20$as$u20$core..iter..traits..iterator..Iterator$GT$9size_hint17h34efb4e97f59a964E', symObjAddr: 0x19FC, symBinAddr: 0x42BEC, symSize: 0xB4 }
  - { offset: 0x1394BD, size: 0x8, addend: 0x0, symName: '__ZN94_$LT$core..slice..iter..IterMut$LT$T$GT$$u20$as$u20$core..iter..traits..iterator..Iterator$GT$9size_hint17h95aeb993429d0c26E', symObjAddr: 0x1AB0, symBinAddr: 0x42CA0, symSize: 0xB4 }
  - { offset: 0x13AB20, size: 0x8, addend: 0x0, symName: __ZN4core4iter6traits8iterator8Iterator3map17h30aa6a8e5ae03decE, symObjAddr: 0xE8, symBinAddr: 0x412D8, symSize: 0x1C }
  - { offset: 0x13AB78, size: 0x8, addend: 0x0, symName: __ZN4core4iter6traits8iterator8Iterator3map17h50d0a895f0a58913E, symObjAddr: 0x104, symBinAddr: 0x412F4, symSize: 0x30 }
  - { offset: 0x13ABE5, size: 0x8, addend: 0x0, symName: __ZN4core4iter6traits8iterator8Iterator3map17h63e8170ac4ed80a5E, symObjAddr: 0x134, symBinAddr: 0x41324, symSize: 0x1C }
  - { offset: 0x13AC3D, size: 0x8, addend: 0x0, symName: __ZN4core4iter6traits8iterator8Iterator3map17h82d9ab14648127e1E, symObjAddr: 0x150, symBinAddr: 0x41340, symSize: 0x1C }
  - { offset: 0x13AC95, size: 0x8, addend: 0x0, symName: __ZN4core4iter6traits8iterator8Iterator3map17h8f4d32eeff98eda8E, symObjAddr: 0x16C, symBinAddr: 0x4135C, symSize: 0x1C }
  - { offset: 0x13ACED, size: 0x8, addend: 0x0, symName: __ZN4core4iter6traits8iterator8Iterator6cloned17h9fbd5df535f31879E, symObjAddr: 0x188, symBinAddr: 0x41378, symSize: 0x1C }
  - { offset: 0x13AD2D, size: 0x8, addend: 0x0, symName: __ZN4core4iter6traits8iterator8Iterator7collect17h6fa32962ef4aad44E, symObjAddr: 0x1A4, symBinAddr: 0x41394, symSize: 0x2C }
  - { offset: 0x13AD6D, size: 0x8, addend: 0x0, symName: __ZN4core4iter6traits8iterator8Iterator8try_fold17h26d4eae395d856edE, symObjAddr: 0x1D0, symBinAddr: 0x413C0, symSize: 0x12C }
  - { offset: 0x13AE29, size: 0x8, addend: 0x0, symName: __ZN4core4iter6traits8iterator8Iterator9enumerate17hcfab25f3801d9991E, symObjAddr: 0x2FC, symBinAddr: 0x414EC, symSize: 0x28 }
  - { offset: 0x13AF1E, size: 0x8, addend: 0x0, symName: '__ZN63_$LT$I$u20$as$u20$core..iter..traits..collect..IntoIterator$GT$9into_iter17hcfabcfdd11715cf3E', symObjAddr: 0x5FC, symBinAddr: 0x417EC, symSize: 0x1C }
  - { offset: 0x13C7E9, size: 0x8, addend: 0x0, symName: '__ZN4core5slice4iter13Iter$LT$T$GT$3new17h20ebd96af464e975E', symObjAddr: 0x324, symBinAddr: 0x41514, symSize: 0x58 }
  - { offset: 0x13C999, size: 0x8, addend: 0x0, symName: '__ZN4core5slice4iter13Iter$LT$T$GT$3new17h223da1c2bc10669bE', symObjAddr: 0x37C, symBinAddr: 0x4156C, symSize: 0x50 }
  - { offset: 0x13CB63, size: 0x8, addend: 0x0, symName: '__ZN4core5slice4iter13Iter$LT$T$GT$3new17h2a93eaa5c41efc9bE', symObjAddr: 0x3CC, symBinAddr: 0x415BC, symSize: 0x50 }
  - { offset: 0x13CD13, size: 0x8, addend: 0x0, symName: '__ZN4core5slice4iter13Iter$LT$T$GT$3new17h9e5e0ded5af50cc5E', symObjAddr: 0x41C, symBinAddr: 0x4160C, symSize: 0x50 }
  - { offset: 0x13CE9C, size: 0x8, addend: 0x0, symName: '__ZN4core5slice4iter16IterMut$LT$T$GT$3new17hdace0aad5ded4e26E', symObjAddr: 0x46C, symBinAddr: 0x4165C, symSize: 0x50 }
  - { offset: 0x13D084, size: 0x8, addend: 0x0, symName: '__ZN4core5slice4iter16IterMut$LT$T$GT$3new17hfc0d2f214f930a00E', symObjAddr: 0x4BC, symBinAddr: 0x416AC, symSize: 0x50 }
  - { offset: 0x13DBEA, size: 0x8, addend: 0x0, symName: '__ZN49_$LT$usize$u20$as$u20$core..iter..range..Step$GT$17forward_unchecked17h3558511465c9e4b5E', symObjAddr: 0x0, symBinAddr: 0x42D54, symSize: 0x50 }
  - { offset: 0x13DC41, size: 0x8, addend: 0x0, symName: '__ZN49_$LT$usize$u20$as$u20$core..iter..range..Step$GT$17forward_unchecked17h3558511465c9e4b5E', symObjAddr: 0x0, symBinAddr: 0x42D54, symSize: 0x50 }
  - { offset: 0x13DCC9, size: 0x8, addend: 0x0, symName: '__ZN136_$LT$core..result..Result$LT$V$C$E$GT$$u20$as$u20$core..iter..traits..collect..FromIterator$LT$core..result..Result$LT$A$C$E$GT$$GT$$GT$9from_iter17hf992ef6bd3a3e1b2E', symObjAddr: 0x0, symBinAddr: 0x42DA4, symSize: 0x34 }
  - { offset: 0x13DD8A, size: 0x8, addend: 0x0, symName: '__ZN136_$LT$core..result..Result$LT$V$C$E$GT$$u20$as$u20$core..iter..traits..collect..FromIterator$LT$core..result..Result$LT$A$C$E$GT$$GT$$GT$9from_iter17hf992ef6bd3a3e1b2E', symObjAddr: 0x0, symBinAddr: 0x42DA4, symSize: 0x34 }
  - { offset: 0x13DDE2, size: 0x8, addend: 0x0, symName: '__ZN136_$LT$core..result..Result$LT$V$C$E$GT$$u20$as$u20$core..iter..traits..collect..FromIterator$LT$core..result..Result$LT$A$C$E$GT$$GT$$GT$9from_iter28_$u7b$$u7b$closure$u7d$$u7d$17h12997424b11a7b5bE', symObjAddr: 0x34, symBinAddr: 0x42DD8, symSize: 0x28 }
  - { offset: 0x13DF5F, size: 0x8, addend: 0x0, symName: '__ZN153_$LT$core..result..Result$LT$T$C$F$GT$$u20$as$u20$core..ops..try_trait..FromResidual$LT$core..result..Result$LT$core..convert..Infallible$C$E$GT$$GT$$GT$13from_residual17h39a811ea274d6340E', symObjAddr: 0x5C, symBinAddr: 0x42E00, symSize: 0x18 }
  - { offset: 0x13DFC6, size: 0x8, addend: 0x0, symName: '__ZN153_$LT$core..result..Result$LT$T$C$F$GT$$u20$as$u20$core..ops..try_trait..FromResidual$LT$core..result..Result$LT$core..convert..Infallible$C$E$GT$$GT$$GT$13from_residual17h6506f2f517f59dc9E', symObjAddr: 0x74, symBinAddr: 0x42E18, symSize: 0x6C }
  - { offset: 0x13E04C, size: 0x8, addend: 0x0, symName: '__ZN153_$LT$core..result..Result$LT$T$C$F$GT$$u20$as$u20$core..ops..try_trait..FromResidual$LT$core..result..Result$LT$core..convert..Infallible$C$E$GT$$GT$$GT$13from_residual17hb4882d43a3ecc0abE', symObjAddr: 0xE0, symBinAddr: 0x42E84, symSize: 0x6C }
  - { offset: 0x13E0D2, size: 0x8, addend: 0x0, symName: '__ZN153_$LT$core..result..Result$LT$T$C$F$GT$$u20$as$u20$core..ops..try_trait..FromResidual$LT$core..result..Result$LT$core..convert..Infallible$C$E$GT$$GT$$GT$13from_residual17hea2b9063b9d07cb0E', symObjAddr: 0x14C, symBinAddr: 0x42EF0, symSize: 0x3C }
  - { offset: 0x13E74F, size: 0x8, addend: 0x0, symName: '__ZN79_$LT$core..result..Result$LT$T$C$E$GT$$u20$as$u20$core..ops..try_trait..Try$GT$11from_output17h9db02306d4d940d6E', symObjAddr: 0x600, symBinAddr: 0x433A4, symSize: 0x18 }
  - { offset: 0x13E78F, size: 0x8, addend: 0x0, symName: '__ZN79_$LT$core..result..Result$LT$T$C$E$GT$$u20$as$u20$core..ops..try_trait..Try$GT$6branch17h476714fc68e647b3E', symObjAddr: 0x618, symBinAddr: 0x433BC, symSize: 0x98 }
  - { offset: 0x13E80C, size: 0x8, addend: 0x0, symName: '__ZN79_$LT$core..result..Result$LT$T$C$E$GT$$u20$as$u20$core..ops..try_trait..Try$GT$6branch17h57faf6cff3b1cf6eE', symObjAddr: 0x6B0, symBinAddr: 0x43454, symSize: 0xAC }
  - { offset: 0x13E88A, size: 0x8, addend: 0x0, symName: '__ZN79_$LT$core..result..Result$LT$T$C$E$GT$$u20$as$u20$core..ops..try_trait..Try$GT$6branch17h62a26b1874be2ae2E', symObjAddr: 0x75C, symBinAddr: 0x43500, symSize: 0xC4 }
  - { offset: 0x13E909, size: 0x8, addend: 0x0, symName: '__ZN79_$LT$core..result..Result$LT$T$C$E$GT$$u20$as$u20$core..ops..try_trait..Try$GT$6branch17h73e4937ec9872b5eE', symObjAddr: 0x820, symBinAddr: 0x435C4, symSize: 0x88 }
  - { offset: 0x13E986, size: 0x8, addend: 0x0, symName: '__ZN79_$LT$core..result..Result$LT$T$C$E$GT$$u20$as$u20$core..ops..try_trait..Try$GT$6branch17he9cefd3d13b0e4f6E', symObjAddr: 0x8A8, symBinAddr: 0x4364C, symSize: 0x64 }
  - { offset: 0x1407F1, size: 0x8, addend: 0x0, symName: '__ZN5alloc5slice29_$LT$impl$u20$$u5b$T$u5d$$GT$8into_vec17h2eb054f0d955c6ffE', symObjAddr: 0x548, symBinAddr: 0x432EC, symSize: 0xB8 }
  - { offset: 0x140CB8, size: 0x8, addend: 0x0, symName: '__ZN4core6result19Result$LT$T$C$E$GT$2ok17ha6ed4cae4fe90d10E', symObjAddr: 0x188, symBinAddr: 0x42F2C, symSize: 0xA8 }
  - { offset: 0x140D0C, size: 0x8, addend: 0x0, symName: '__ZN4core6result19Result$LT$T$C$E$GT$3map17h71b48f6317c710caE', symObjAddr: 0x230, symBinAddr: 0x42FD4, symSize: 0x84 }
  - { offset: 0x140DC9, size: 0x8, addend: 0x0, symName: '__ZN4core6result19Result$LT$T$C$E$GT$6expect17h2695acb8fef0bac0E', symObjAddr: 0x2B4, symBinAddr: 0x43058, symSize: 0x8C }
  - { offset: 0x140E2B, size: 0x8, addend: 0x0, symName: '__ZN4core6result19Result$LT$T$C$E$GT$6expect17h34a0141c2928bbe9E', symObjAddr: 0x340, symBinAddr: 0x430E4, symSize: 0x84 }
  - { offset: 0x140E8D, size: 0x8, addend: 0x0, symName: '__ZN4core6result19Result$LT$T$C$E$GT$7map_err17h76b936ff35d343e3E', symObjAddr: 0x3C4, symBinAddr: 0x43168, symSize: 0x78 }
  - { offset: 0x140F1F, size: 0x8, addend: 0x0, symName: '__ZN4core6result19Result$LT$T$C$E$GT$7map_err17h8abcef5bd5dce90dE', symObjAddr: 0x43C, symBinAddr: 0x431E0, symSize: 0x94 }
  - { offset: 0x140FB2, size: 0x8, addend: 0x0, symName: '__ZN4core6result19Result$LT$T$C$E$GT$7map_err17hea95e045c98a25feE', symObjAddr: 0x4D0, symBinAddr: 0x43274, symSize: 0x78 }
  - { offset: 0x141461, size: 0x8, addend: 0x0, symName: '__ZN106_$LT$core..ops..range..Range$LT$usize$GT$$u20$as$u20$core..slice..index..SliceIndex$LT$$u5b$T$u5d$$GT$$GT$13get_unchecked18precondition_check17hacdd7a237042475aE', symObjAddr: 0x0, symBinAddr: 0x436B0, symSize: 0x80 }
  - { offset: 0x141487, size: 0x8, addend: 0x0, symName: '__ZN106_$LT$core..ops..range..Range$LT$usize$GT$$u20$as$u20$core..slice..index..SliceIndex$LT$$u5b$T$u5d$$GT$$GT$13get_unchecked18precondition_check17hacdd7a237042475aE', symObjAddr: 0x0, symBinAddr: 0x436B0, symSize: 0x80 }
  - { offset: 0x1414EE, size: 0x8, addend: 0x0, symName: '__ZN106_$LT$core..ops..range..Range$LT$usize$GT$$u20$as$u20$core..slice..index..SliceIndex$LT$$u5b$T$u5d$$GT$$GT$17get_unchecked_mut18precondition_check17ha8e742b05379391cE', symObjAddr: 0x80, symBinAddr: 0x43730, symSize: 0x80 }
  - { offset: 0x14155B, size: 0x8, addend: 0x0, symName: '__ZN75_$LT$usize$u20$as$u20$core..slice..index..SliceIndex$LT$$u5b$T$u5d$$GT$$GT$13get_unchecked18precondition_check17hd6d3c5010077cf8eE', symObjAddr: 0x100, symBinAddr: 0x437B0, symSize: 0x60 }
  - { offset: 0x1415B4, size: 0x8, addend: 0x0, symName: '__ZN75_$LT$usize$u20$as$u20$core..slice..index..SliceIndex$LT$$u5b$T$u5d$$GT$$GT$17get_unchecked_mut18precondition_check17ha147aa940eea086eE', symObjAddr: 0x160, symBinAddr: 0x43810, symSize: 0x60 }
  - { offset: 0x14165F, size: 0x8, addend: 0x0, symName: __ZN4core4hash3sip9u8to64_le17h3859090256ef2928E, symObjAddr: 0x0, symBinAddr: 0x43870, symSize: 0x240 }
  - { offset: 0x1417A7, size: 0x8, addend: 0x0, symName: __ZN4core4hash3sip9u8to64_le17h3859090256ef2928E, symObjAddr: 0x0, symBinAddr: 0x43870, symSize: 0x240 }
  - { offset: 0x141964, size: 0x8, addend: 0x0, symName: '__ZN69_$LT$core..hash..sip..Sip13Rounds$u20$as$u20$core..hash..sip..Sip$GT$8c_rounds17h50c9ea80a134bd52E', symObjAddr: 0x240, symBinAddr: 0x43AB0, symSize: 0x1A0 }
  - { offset: 0x141AD9, size: 0x8, addend: 0x0, symName: '__ZN69_$LT$core..hash..sip..Sip13Rounds$u20$as$u20$core..hash..sip..Sip$GT$8d_rounds17ha13e12fac1d27bbeE', symObjAddr: 0x3E0, symBinAddr: 0x43C50, symSize: 0x46C }
  - { offset: 0x14209F, size: 0x8, addend: 0x0, symName: '__ZN4core3cmp5impls49_$LT$impl$u20$core..cmp..Ord$u20$for$u20$char$GT$3cmp17ha85cb1a832a1be17E', symObjAddr: 0x0, symBinAddr: 0x440BC, symSize: 0x38 }
  - { offset: 0x1420DE, size: 0x8, addend: 0x0, symName: '__ZN4core3cmp5impls49_$LT$impl$u20$core..cmp..Ord$u20$for$u20$char$GT$3cmp17ha85cb1a832a1be17E', symObjAddr: 0x0, symBinAddr: 0x440BC, symSize: 0x38 }
  - { offset: 0x142121, size: 0x8, addend: 0x0, symName: '__ZN4core3cmp5impls53_$LT$impl$u20$core..cmp..PartialEq$u20$for$u20$u8$GT$2eq17h5ac48a2eefe3857eE', symObjAddr: 0x38, symBinAddr: 0x440F4, symSize: 0x2C }
  - { offset: 0x142164, size: 0x8, addend: 0x0, symName: '__ZN4core3cmp5impls55_$LT$impl$u20$core..cmp..PartialEq$u20$for$u20$char$GT$2eq17h8ef7e55ba26596ebE', symObjAddr: 0x64, symBinAddr: 0x44120, symSize: 0x2C }
  - { offset: 0x1421F9, size: 0x8, addend: 0x0, symName: '__ZN45_$LT$T$u20$as$u20$alloc..string..ToString$GT$9to_string17h17526a1969be6bccE', symObjAddr: 0x0, symBinAddr: 0x4414C, symSize: 0x24 }
  - { offset: 0x142249, size: 0x8, addend: 0x0, symName: __ZN4core3cmp10PartialOrd2lt17h60acb75cc7535603E, symObjAddr: 0x4C, symBinAddr: 0x44198, symSize: 0x70 }
  - { offset: 0x142316, size: 0x8, addend: 0x0, symName: '__ZN4core3cmp5impls70_$LT$impl$u20$core..cmp..PartialOrd$LT$$RF$B$GT$$u20$for$u20$$RF$A$GT$2lt17h4a90440b4af1a9b0E', symObjAddr: 0xBC, symBinAddr: 0x44208, symSize: 0x34 }
  - { offset: 0x1423AE, size: 0x8, addend: 0x0, symName: __ZN4core3cmp9PartialEq2ne17hdae4e17524eb8d21E, symObjAddr: 0xF0, symBinAddr: 0x4423C, symSize: 0x30 }
  - { offset: 0x142838, size: 0x8, addend: 0x0, symName: '__ZN4core4hash5impls52_$LT$impl$u20$core..hash..Hash$u20$for$u20$$RF$T$GT$4hash17h68fac30562279531E', symObjAddr: 0x120, symBinAddr: 0x4426C, symSize: 0x30 }
  - { offset: 0x1429BA, size: 0x8, addend: 0x0, symName: '__ZN4core5slice29_$LT$impl$u20$$u5b$T$u5d$$GT$12split_at_mut17h19c1f12aeee1e0cfE', symObjAddr: 0x150, symBinAddr: 0x4429C, symSize: 0xAC }
  - { offset: 0x142A45, size: 0x8, addend: 0x0, symName: '__ZN4core5slice29_$LT$impl$u20$$u5b$T$u5d$$GT$22split_at_mut_unchecked17hf097fa5fa9361dd4E', symObjAddr: 0x1FC, symBinAddr: 0x44348, symSize: 0xE8 }
  - { offset: 0x142B57, size: 0x8, addend: 0x0, symName: '__ZN4core5slice29_$LT$impl$u20$$u5b$T$u5d$$GT$4iter17h9acb37fa4a1fd14aE', symObjAddr: 0x2E4, symBinAddr: 0x44430, symSize: 0x28 }
  - { offset: 0x142BDC, size: 0x8, addend: 0x0, symName: '__ZN4core5slice29_$LT$impl$u20$$u5b$T$u5d$$GT$7reverse17h1250e6c72c625163E', symObjAddr: 0x30C, symBinAddr: 0x44458, symSize: 0xF0 }
  - { offset: 0x142DE3, size: 0x8, addend: 0x0, symName: '__ZN68_$LT$T$u20$as$u20$core..slice..sort..stable..quicksort..IsFreeze$GT$9is_freeze17h10508d62f3537c14E', symObjAddr: 0x4D4, symBinAddr: 0x44620, symSize: 0xC }
  - { offset: 0x142F93, size: 0x8, addend: 0x0, symName: '__ZN50_$LT$T$u20$as$u20$core..convert..Into$LT$U$GT$$GT$4into17hab26a4fb7f0b8bf7E', symObjAddr: 0x3FC, symBinAddr: 0x44548, symSize: 0x18 }
  - { offset: 0x142FFD, size: 0x8, addend: 0x0, symName: '__ZN51_$LT$T$u20$as$u20$core..borrow..Borrow$LT$T$GT$$GT$6borrow17h98b464a1f66a7bc6E', symObjAddr: 0x414, symBinAddr: 0x44560, symSize: 0x14 }
  - { offset: 0x14331B, size: 0x8, addend: 0x0, symName: '__ZN45_$LT$T$u20$as$u20$alloc..string..ToString$GT$9to_string17h17526a1969be6bccE', symObjAddr: 0x0, symBinAddr: 0x4414C, symSize: 0x24 }
  - { offset: 0x143352, size: 0x8, addend: 0x0, symName: '__ZN45_$LT$T$u20$as$u20$alloc..string..ToString$GT$9to_string17h9c43d50ebf5b7194E', symObjAddr: 0x24, symBinAddr: 0x44170, symSize: 0x28 }
  - { offset: 0x143405, size: 0x8, addend: 0x0, symName: '__ZN58_$LT$alloc..string..String$u20$as$u20$core..hash..Hash$GT$4hash17h0eef7dda8ab1a7f9E', symObjAddr: 0x468, symBinAddr: 0x445B4, symSize: 0x44 }
  - { offset: 0x143531, size: 0x8, addend: 0x0, symName: '__ZN89_$LT$alloc..string..String$u20$as$u20$core..iter..traits..collect..Extend$LT$char$GT$$GT$6extend17h072cc2222e5b0558E', symObjAddr: 0x4E0, symBinAddr: 0x4462C, symSize: 0xB8 }
  - { offset: 0x1435CD, size: 0x8, addend: 0x0, symName: '__ZN89_$LT$alloc..string..String$u20$as$u20$core..iter..traits..collect..Extend$LT$char$GT$$GT$6extend17h0cdecf26e4f9d13bE', symObjAddr: 0x598, symBinAddr: 0x446E4, symSize: 0xB8 }
  - { offset: 0x143669, size: 0x8, addend: 0x0, symName: '__ZN89_$LT$alloc..string..String$u20$as$u20$core..iter..traits..collect..Extend$LT$char$GT$$GT$6extend17h7576aaf77db879c3E', symObjAddr: 0x708, symBinAddr: 0x4479C, symSize: 0xC8 }
  - { offset: 0x143706, size: 0x8, addend: 0x0, symName: '__ZN89_$LT$alloc..string..String$u20$as$u20$core..iter..traits..collect..Extend$LT$char$GT$$GT$6extend17h8b75de83de75db7bE', symObjAddr: 0x7D0, symBinAddr: 0x44864, symSize: 0xB8 }
  - { offset: 0x1437A2, size: 0x8, addend: 0x0, symName: '__ZN89_$LT$alloc..string..String$u20$as$u20$core..iter..traits..collect..Extend$LT$char$GT$$GT$6extend17h9c741e1346e351ccE', symObjAddr: 0x888, symBinAddr: 0x4491C, symSize: 0xB8 }
  - { offset: 0x14383E, size: 0x8, addend: 0x0, symName: '__ZN89_$LT$alloc..string..String$u20$as$u20$core..iter..traits..collect..Extend$LT$char$GT$$GT$6extend17hbd17eca3411fc6b9E', symObjAddr: 0x940, symBinAddr: 0x449D4, symSize: 0xB8 }
  - { offset: 0x1438DA, size: 0x8, addend: 0x0, symName: '__ZN89_$LT$alloc..string..String$u20$as$u20$core..iter..traits..collect..Extend$LT$char$GT$$GT$6extend17hf3e5e388f42aa870E', symObjAddr: 0xAB0, symBinAddr: 0x44A8C, symSize: 0xB8 }
  - { offset: 0x14397B, size: 0x8, addend: 0x0, symName: '__ZN89_$LT$alloc..string..String$u20$as$u20$core..iter..traits..collect..Extend$LT$char$GT$$GT$6extend28_$u7b$$u7b$closure$u7d$$u7d$17h128b430771557f59E', symObjAddr: 0xB68, symBinAddr: 0x44B44, symSize: 0x2C }
  - { offset: 0x1439BF, size: 0x8, addend: 0x0, symName: '__ZN89_$LT$alloc..string..String$u20$as$u20$core..iter..traits..collect..Extend$LT$char$GT$$GT$6extend28_$u7b$$u7b$closure$u7d$$u7d$17h15883b272b590c7cE', symObjAddr: 0xB94, symBinAddr: 0x44B70, symSize: 0x2C }
  - { offset: 0x143A03, size: 0x8, addend: 0x0, symName: '__ZN89_$LT$alloc..string..String$u20$as$u20$core..iter..traits..collect..Extend$LT$char$GT$$GT$6extend28_$u7b$$u7b$closure$u7d$$u7d$17h1e9e02d4d4df9925E', symObjAddr: 0xBC0, symBinAddr: 0x44B9C, symSize: 0x2C }
  - { offset: 0x143A47, size: 0x8, addend: 0x0, symName: '__ZN89_$LT$alloc..string..String$u20$as$u20$core..iter..traits..collect..Extend$LT$char$GT$$GT$6extend28_$u7b$$u7b$closure$u7d$$u7d$17h2f2e9d485d82728aE', symObjAddr: 0xBEC, symBinAddr: 0x44BC8, symSize: 0x2C }
  - { offset: 0x143A8B, size: 0x8, addend: 0x0, symName: '__ZN89_$LT$alloc..string..String$u20$as$u20$core..iter..traits..collect..Extend$LT$char$GT$$GT$6extend28_$u7b$$u7b$closure$u7d$$u7d$17h3c39aca61ff7d98eE', symObjAddr: 0xC18, symBinAddr: 0x44BF4, symSize: 0x2C }
  - { offset: 0x143ACF, size: 0x8, addend: 0x0, symName: '__ZN89_$LT$alloc..string..String$u20$as$u20$core..iter..traits..collect..Extend$LT$char$GT$$GT$6extend28_$u7b$$u7b$closure$u7d$$u7d$17hbe551451444d19dcE', symObjAddr: 0xC70, symBinAddr: 0x44C20, symSize: 0x2C }
  - { offset: 0x143B13, size: 0x8, addend: 0x0, symName: '__ZN89_$LT$alloc..string..String$u20$as$u20$core..iter..traits..collect..Extend$LT$char$GT$$GT$6extend28_$u7b$$u7b$closure$u7d$$u7d$17he56a8dd56e9eb68cE', symObjAddr: 0xCC8, symBinAddr: 0x44C4C, symSize: 0x2C }
  - { offset: 0x143B5E, size: 0x8, addend: 0x0, symName: '__ZN93_$LT$alloc..string..String$u20$as$u20$core..iter..traits..collect..Extend$LT$$RF$char$GT$$GT$6extend17h3e7d01fb86f9d5f3E', symObjAddr: 0xCF4, symBinAddr: 0x44C78, symSize: 0x5C }
  - { offset: 0x143BA6, size: 0x8, addend: 0x0, symName: '__ZN95_$LT$alloc..string..String$u20$as$u20$core..iter..traits..collect..FromIterator$LT$char$GT$$GT$9from_iter17h1e06d1a11173b476E', symObjAddr: 0xDF0, symBinAddr: 0x44CD4, symSize: 0xA0 }
  - { offset: 0x143C1E, size: 0x8, addend: 0x0, symName: '__ZN95_$LT$alloc..string..String$u20$as$u20$core..iter..traits..collect..FromIterator$LT$char$GT$$GT$9from_iter17h2ff95b010b198b8eE', symObjAddr: 0xE90, symBinAddr: 0x44D74, symSize: 0xA0 }
  - { offset: 0x143C96, size: 0x8, addend: 0x0, symName: '__ZN95_$LT$alloc..string..String$u20$as$u20$core..iter..traits..collect..FromIterator$LT$char$GT$$GT$9from_iter17h52a20632dbc82cd8E', symObjAddr: 0xF30, symBinAddr: 0x44E14, symSize: 0xA0 }
  - { offset: 0x143D0E, size: 0x8, addend: 0x0, symName: '__ZN95_$LT$alloc..string..String$u20$as$u20$core..iter..traits..collect..FromIterator$LT$char$GT$$GT$9from_iter17h5948d5d8753bbfecE', symObjAddr: 0xFD0, symBinAddr: 0x44EB4, symSize: 0x88 }
  - { offset: 0x143D87, size: 0x8, addend: 0x0, symName: '__ZN95_$LT$alloc..string..String$u20$as$u20$core..iter..traits..collect..FromIterator$LT$char$GT$$GT$9from_iter17h6dfba319b948b9c8E', symObjAddr: 0x1058, symBinAddr: 0x44F3C, symSize: 0xA0 }
  - { offset: 0x143DFF, size: 0x8, addend: 0x0, symName: '__ZN95_$LT$alloc..string..String$u20$as$u20$core..iter..traits..collect..FromIterator$LT$char$GT$$GT$9from_iter17hf75f57fb4f3d07bbE', symObjAddr: 0x1198, symBinAddr: 0x44FDC, symSize: 0xA0 }
  - { offset: 0x143E7D, size: 0x8, addend: 0x0, symName: '__ZN99_$LT$alloc..string..String$u20$as$u20$core..iter..traits..collect..FromIterator$LT$$RF$char$GT$$GT$9from_iter17h7cf129fac8d496cfE', symObjAddr: 0x1238, symBinAddr: 0x4507C, symSize: 0xA0 }
  - { offset: 0x144165, size: 0x8, addend: 0x0, symName: '__ZN5alloc5slice29_$LT$impl$u20$$u5b$T$u5d$$GT$4sort17h65affac7f4039a5bE', symObjAddr: 0x4AC, symBinAddr: 0x445F8, symSize: 0x28 }
  - { offset: 0x1442C7, size: 0x8, addend: 0x0, symName: '__ZN52_$LT$Q$u20$as$u20$hashbrown..Equivalent$LT$K$GT$$GT$10equivalent17h4bccb3a1d53ce5eaE', symObjAddr: 0x428, symBinAddr: 0x44574, symSize: 0x40 }
  - { offset: 0x144865, size: 0x8, addend: 0x0, symName: '__ZN5alloc11collections5btree8navigate263_$LT$impl$u20$alloc..collections..btree..node..Handle$LT$alloc..collections..btree..node..NodeRef$LT$alloc..collections..btree..node..marker..Dying$C$K$C$V$C$alloc..collections..btree..node..marker..Leaf$GT$$C$alloc..collections..btree..node..marker..Edge$GT$$GT$27deallocating_next_unchecked28_$u7b$$u7b$closure$u7d$$u7d$17h9a69f96657594a26E', symObjAddr: 0x0, symBinAddr: 0x4511C, symSize: 0x58 }
  - { offset: 0x145C7F, size: 0x8, addend: 0x0, symName: '__ZN5alloc11collections5btree8navigate263_$LT$impl$u20$alloc..collections..btree..node..Handle$LT$alloc..collections..btree..node..NodeRef$LT$alloc..collections..btree..node..marker..Dying$C$K$C$V$C$alloc..collections..btree..node..marker..Leaf$GT$$C$alloc..collections..btree..node..marker..Edge$GT$$GT$27deallocating_next_unchecked28_$u7b$$u7b$closure$u7d$$u7d$17h9a69f96657594a26E', symObjAddr: 0x0, symBinAddr: 0x4511C, symSize: 0x58 }
  - { offset: 0x145CFB, size: 0x8, addend: 0x0, symName: '__ZN5alloc11collections5btree8navigate263_$LT$impl$u20$alloc..collections..btree..node..Handle$LT$alloc..collections..btree..node..NodeRef$LT$alloc..collections..btree..node..marker..Immut$C$K$C$V$C$alloc..collections..btree..node..marker..Leaf$GT$$C$alloc..collections..btree..node..marker..Edge$GT$$GT$14next_unchecked28_$u7b$$u7b$closure$u7d$$u7d$17h59425c7cf2ddf55aE', symObjAddr: 0x58, symBinAddr: 0x45174, symSize: 0xC4 }
  - { offset: 0x146450, size: 0x8, addend: 0x0, symName: '__ZN5alloc11collections5btree8navigate39LazyLeafRange$LT$BorrowType$C$K$C$V$GT$10init_front17h07f164c0494eefc3E', symObjAddr: 0x11C, symBinAddr: 0x45238, symSize: 0x1F8 }
  - { offset: 0x1468DD, size: 0x8, addend: 0x0, symName: '__ZN5alloc11collections5btree8navigate39LazyLeafRange$LT$BorrowType$C$K$C$V$GT$10init_front17hcc244cbb01f3301bE', symObjAddr: 0x314, symBinAddr: 0x45430, symSize: 0x1F8 }
  - { offset: 0x146D23, size: 0x8, addend: 0x0, symName: '__ZN5alloc11collections5btree8navigate75LazyLeafRange$LT$alloc..collections..btree..node..marker..Dying$C$K$C$V$GT$10take_front17h51b5c4e9acbb4d7bE', symObjAddr: 0x50C, symBinAddr: 0x45628, symSize: 0x1F4 }
  - { offset: 0x147010, size: 0x8, addend: 0x0, symName: '__ZN5alloc11collections5btree8navigate75LazyLeafRange$LT$alloc..collections..btree..node..marker..Dying$C$K$C$V$GT$16deallocating_end17ha007e99b3d1eb47cE', symObjAddr: 0x700, symBinAddr: 0x4581C, symSize: 0x98 }
  - { offset: 0x1470D5, size: 0x8, addend: 0x0, symName: '__ZN5alloc11collections5btree8navigate75LazyLeafRange$LT$alloc..collections..btree..node..marker..Dying$C$K$C$V$GT$27deallocating_next_unchecked17hc9be878f91d2e95fE', symObjAddr: 0x798, symBinAddr: 0x458B4, symSize: 0xA8 }
  - { offset: 0x147205, size: 0x8, addend: 0x0, symName: __ZN4core4char18from_u32_unchecked17hf5229d807002cc86E, symObjAddr: 0x0, symBinAddr: 0x4595C, symSize: 0x3C }
  - { offset: 0x14723E, size: 0x8, addend: 0x0, symName: __ZN4core4char18from_u32_unchecked17hf5229d807002cc86E, symObjAddr: 0x0, symBinAddr: 0x4595C, symSize: 0x3C }
  - { offset: 0x1472B5, size: 0x8, addend: 0x0, symName: '__ZN7tinyvec5array18const_generic_impl74_$LT$impl$u20$tinyvec..array..Array$u20$for$u20$$u5b$T$u3b$$u20$N$u5d$$GT$7default28_$u7b$$u7b$closure$u7d$$u7d$17hacfa153408fce719E', symObjAddr: 0x0, symBinAddr: 0x45998, symSize: 0x20 }
  - { offset: 0x1472DB, size: 0x8, addend: 0x0, symName: '__ZN7tinyvec5array18const_generic_impl74_$LT$impl$u20$tinyvec..array..Array$u20$for$u20$$u5b$T$u3b$$u20$N$u5d$$GT$7default28_$u7b$$u7b$closure$u7d$$u7d$17hacfa153408fce719E', symObjAddr: 0x0, symBinAddr: 0x45998, symSize: 0x20 }
  - { offset: 0x147316, size: 0x8, addend: 0x0, symName: '__ZN7tinyvec5array18const_generic_impl74_$LT$impl$u20$tinyvec..array..Array$u20$for$u20$$u5b$T$u3b$$u20$N$u5d$$GT$7default28_$u7b$$u7b$closure$u7d$$u7d$17hfde6d33130a3c405E', symObjAddr: 0x20, symBinAddr: 0x459B8, symSize: 0x14 }
  - { offset: 0x1473CF, size: 0x8, addend: 0x0, symName: '__ZN3std4sync9once_lock17OnceLock$LT$T$GT$10initialize17ha7b9fe213e3db11cE', symObjAddr: 0x0, symBinAddr: 0xBC0A8, symSize: 0x6C }
  - { offset: 0x148443, size: 0x8, addend: 0x0, symName: '__ZN3std4sync9once_lock17OnceLock$LT$T$GT$11get_or_init28_$u7b$$u7b$closure$u7d$$u7d$17h02b5e5f30bb065b7E', symObjAddr: 0x564, symBinAddr: 0x45E58, symSize: 0x44 }
  - { offset: 0x148484, size: 0x8, addend: 0x0, symName: '__ZN3std4sync9once_lock17OnceLock$LT$T$GT$11get_or_init28_$u7b$$u7b$closure$u7d$$u7d$17h5abfd76894fc4e6cE', symObjAddr: 0x5A8, symBinAddr: 0x45E9C, symSize: 0x40 }
  - { offset: 0x1484F1, size: 0x8, addend: 0x0, symName: '__ZN3std4sync9once_lock17OnceLock$LT$T$GT$10try_insert28_$u7b$$u7b$closure$u7d$$u7d$17h69f44ed00d8302fcE', symObjAddr: 0x430, symBinAddr: 0x45D24, symSize: 0x88 }
  - { offset: 0x14857C, size: 0x8, addend: 0x0, symName: '__ZN3std4sync9once_lock17OnceLock$LT$T$GT$10try_insert28_$u7b$$u7b$closure$u7d$$u7d$17h70421773ec23af0aE', symObjAddr: 0x4B8, symBinAddr: 0x45DAC, symSize: 0xAC }
  - { offset: 0x14860D, size: 0x8, addend: 0x0, symName: '__ZN3std4sync9once_lock17OnceLock$LT$T$GT$10initialize28_$u7b$$u7b$closure$u7d$$u7d$17h0de4894de3f19083E', symObjAddr: 0xD8, symBinAddr: 0x459CC, symSize: 0x9C }
  - { offset: 0x14872F, size: 0x8, addend: 0x0, symName: '__ZN3std4sync9once_lock17OnceLock$LT$T$GT$10initialize28_$u7b$$u7b$closure$u7d$$u7d$17hbc05df300dc304d5E', symObjAddr: 0x174, symBinAddr: 0x45A68, symSize: 0xB8 }
  - { offset: 0x148A01, size: 0x8, addend: 0x0, symName: '__ZN82_$LT$std..sync..once_lock..OnceLock$LT$T$GT$$u20$as$u20$core..default..Default$GT$7default17h26f40aeea725655dE', symObjAddr: 0xB8C, symBinAddr: 0x46480, symSize: 0x50 }
  - { offset: 0x148A91, size: 0x8, addend: 0x0, symName: '__ZN82_$LT$std..sync..once_lock..OnceLock$LT$T$GT$$u20$as$u20$core..default..Default$GT$7default17he2d5cd76525a14d7E', symObjAddr: 0xBDC, symBinAddr: 0x464D0, symSize: 0x6C }
  - { offset: 0x148E72, size: 0x8, addend: 0x0, symName: '__ZN3std4sync9once_lock17OnceLock$LT$T$GT$10initialize17ha7b9fe213e3db11cE', symObjAddr: 0x0, symBinAddr: 0xBC0A8, symSize: 0x6C }
  - { offset: 0x148F15, size: 0x8, addend: 0x0, symName: '__ZN3std4sync9once_lock17OnceLock$LT$T$GT$10initialize17he60250546e103699E', symObjAddr: 0x6C, symBinAddr: 0xBC114, symSize: 0x6C }
  - { offset: 0x149171, size: 0x8, addend: 0x0, symName: '__ZN3std4sync9once_lock17OnceLock$LT$T$GT$10try_insert17h97e603e03b3cc3bdE', symObjAddr: 0x22C, symBinAddr: 0x45B20, symSize: 0xF4 }
  - { offset: 0x149288, size: 0x8, addend: 0x0, symName: '__ZN3std4sync9once_lock17OnceLock$LT$T$GT$10try_insert17he893f93c47edb513E', symObjAddr: 0x320, symBinAddr: 0x45C14, symSize: 0x110 }
  - { offset: 0x149500, size: 0x8, addend: 0x0, symName: '__ZN3std4sync9once_lock17OnceLock$LT$T$GT$15get_or_try_init17h0a6ecdc2d935edb4E', symObjAddr: 0x5E8, symBinAddr: 0x45EDC, symSize: 0xE0 }
  - { offset: 0x1497ED, size: 0x8, addend: 0x0, symName: '__ZN3std4sync9once_lock17OnceLock$LT$T$GT$15get_or_try_init17hd3e26fcf71154356E', symObjAddr: 0x6C8, symBinAddr: 0x45FBC, symSize: 0xE0 }
